 sdk_demo_v2_2017

 Timestamp is 5e14a3ad (Tue Jan  7 23:28:45 2020)

 Preferred load address is 00400000

 Start         Length     Name                   Class
 0001:00000000 000001d0H .text$di                CODE
 0001:000001d0 0008d010H .text$mn                CODE
 0001:0008d1e0 00003b30H .text$x                 CODE
 0001:00090d10 0000009dH .text$yd                CODE
 0002:00000000 000006a0H .idata$5                DATA
 0002:000006a0 00000004H .00cfg                  DATA
 0002:000006a4 00000004H .CRT$XCA                DATA
 0002:000006a8 00000004H .CRT$XCAA               DATA
 0002:000006ac 00000008H .CRT$XCL                DATA
 0002:000006b4 00000020H .CRT$XCU                DATA
 0002:000006d4 00000004H .CRT$XCZ                DATA
 0002:000006d8 00000004H .CRT$XIA                DATA
 0002:000006dc 00000004H .CRT$XIAA               DATA
 0002:000006e0 00000004H .CRT$XIAC               DATA
 0002:000006e4 00000004H .CRT$XIC                DATA
 0002:000006e8 00000004H .CRT$XIZ                DATA
 0002:000006ec 00000004H .CRT$XLA                DATA
 0002:000006f0 00000004H .CRT$XLZ                DATA
 0002:000006f4 00000004H .CRT$XPA                DATA
 0002:000006f8 00000004H .CRT$XPZ                DATA
 0002:000006fc 00000004H .CRT$XTA                DATA
 0002:00000700 00000010H .CRT$XTZ                DATA
 0002:00000704 00000000H .gfids$y                DATA
 0002:00000710 00022a04H .rdata                  DATA
 0002:00023114 00000018H .rdata$T                DATA
 0002:0002312c 00004dc4H .rdata$r                DATA
 0002:00027ef0 00000380H .rdata$sxdata           DATA
 0002:00028270 000003dcH .rdata$zzzdbg           DATA
 0002:0002864c 00000004H .rtc$IAA                DATA
 0002:00028650 00000004H .rtc$IZZ                DATA
 0002:00028654 00000004H .rtc$TAA                DATA
 0002:00028658 00000004H .rtc$TZZ                DATA
 0002:0002865c 00000004H .tls                    DATA
 0002:00028660 00000004H .tls$                   DATA
 0002:00028664 00000004H .tls$ZZZ                DATA
 0002:00028668 00003528H .xdata$x                DATA
 0002:0002bb90 00000000H ATL$__a                 DATA
 0002:0002bb90 00000000H ATL$__z                 DATA
 0002:0002bb90 0001a7c4H .edata                  DATA
 0002:00046354 00000208H .idata$2                DATA
 0002:0004655c 00000014H .idata$3                DATA
 0002:00046570 000006a0H .idata$4                DATA
 0002:00046c10 00001ce6H .idata$6                DATA
 0003:00000000 00000348H .data                   DATA
 0003:00000348 00002050H .data$r                 DATA
 0003:00002398 00000d10H .bss                    DATA
 0004:00000000 00003680H .rsrc$01                DATA
 0004:00003680 000697a0H .rsrc$02                DATA

  Address         Publics by Value              Rva+Base       Lib:Object

 0000:00000000       ___guard_fids_table        00000000     <absolute>
 0000:00000000       ___guard_longjmp_table     00000000     <absolute>
 0000:00000000       ___guard_fids_count        00000000     <absolute>
 0000:00000000       ___guard_iat_table         00000000     <absolute>
 0000:00000000       ___guard_iat_count         00000000     <absolute>
 0000:00000000       ___dynamic_value_reloc_table 00000000     <absolute>
 0000:00000000       ___guard_longjmp_count     00000000     <absolute>
 0000:00000000       ___hybrid_code_map_count   00000000     <absolute>
 0000:00000000       ___enclave_config          00000000     <absolute>
 0000:00000000       ___hybrid_auxiliary_iat    00000000     <absolute>
 0000:00000000       ___volatile_metadata       00000000     <absolute>
 0000:00000000       ___AbsoluteZero            00000000     <absolute>
 0000:00000000       ___hybrid_code_map         00000000     <absolute>
 0000:0000002c       __tls_array                0000002c     <absolute>
 0000:000000e0       ___safe_se_handler_count   000000e0     <absolute>
 0000:00000100       ___guard_flags             00000100     <absolute>
 0000:00000000       ___ImageBase               00400000     <linker-defined>
 0001:000001d0       ??$?0$$V@?$_Compressed_pair@V?$allocator@D@std@@V?$_String_val@U?$_Simple_types@D@std@@@2@$00@std@@QAE@U_Zero_then_variadic_args_t@1@@Z 004011d0 f i sdk_demo_v2.obj
 0001:000001d0       ??$?0$$V@?$_Compressed_pair@V?$allocator@_W@std@@V?$_String_val@U?$_Simple_types@_W@std@@@2@$00@std@@QAE@U_Zero_then_variadic_args_t@1@@Z 004011d0 f i AnnotateBarWindow.obj
 0001:000001f0       ??$?8_WU?$char_traits@_W@std@@V?$allocator@_W@1@@std@@YA_NABV?$basic_string@_WU?$char_traits@_W@std@@V?$allocator@_W@2@@0@QB_W@Z 004011f0 f i AnnotateBarWindow.obj
 0001:00000210       ??$?9_WU?$char_traits@_W@std@@V?$allocator@_W@1@@std@@YA_NABV?$basic_string@_WU?$char_traits@_W@std@@V?$allocator@_W@2@@0@QB_W@Z 00401210 f i AnnotateBarWindow.obj
 0001:00000250       ??$_Allocate@$07U_Default_allocate_traits@std@@$0A@@std@@YAPAXI@Z 00401250 f i AnnotateBarWindow.obj
 0001:00000290       ??$_Allocate_manually_vector_aligned@U_Default_allocate_traits@std@@@std@@YAPAXI@Z 00401290 f i AnnotateBarWindow.obj
 0001:00000300       ??$forward@AAV?$_Tree_const_iterator@V?$_Tree_val@U?$_Tree_simple_types@PAVIClosedCaptionControllerEvent@ZOOMSDK@@@std@@@std@@@std@@@std@@YAAAV?$_Tree_const_iterator@V?$_Tree_val@U?$_Tree_simple_types@PAVIClosedCaptionControllerEvent@ZOOMSDK@@@std@@@std@@@0@AAV10@@Z 00401300 f i sdk_util.obj
 0001:00000300       ??$_Unfancy@PAVIVirtualBGImageInfo@ZOOMSDK@@@std@@YAPAPAVIVirtualBGImageInfo@ZOOMSDK@@PAPAV12@@Z 00401300 f i settings_ui.obj
 0001:00000300       ??$forward@V?$allocator@_W@std@@@std@@YA$$QAV?$allocator@_W@0@AAV10@@Z 00401300 f i chat_controller_ui.obj
 0001:00000300       ??$addressof@V?$_Tree_val@U?$_Tree_simple_types@PAVIClosedCaptionControllerEvent@ZOOMSDK@@@std@@@std@@@std@@YAPAV?$_Tree_val@U?$_Tree_simple_types@PAVIClosedCaptionControllerEvent@ZOOMSDK@@@std@@@0@AAV10@@Z 00401300 f i sdk_util.obj
 0001:00000300       ??$forward@V?$basic_string@_WU?$char_traits@_W@std@@V?$allocator@_W@2@@std@@@std@@YA$$QAV?$basic_string@_WU?$char_traits@_W@std@@V?$allocator@_W@2@@0@AAV10@@Z 00401300 f i custom_ui_share_flow.obj
 0001:00000300       ??$addressof@V?$_Tree_val@U?$_Tree_simple_types@PAVISDKInMeetingServiceMgrEvent@@@std@@@std@@@std@@YAPAV?$_Tree_val@U?$_Tree_simple_types@PAVISDKInMeetingServiceMgrEvent@@@std@@@0@AAV10@@Z 00401300 f i sdk_util.obj
 0001:00000300       ?select_on_container_copy_construction@?$_Default_allocator_traits@V?$allocator@_W@std@@@std@@SA?AV?$allocator@_W@2@ABV32@@Z 00401300 f i util_window.obj
 0001:00000300       ??$forward@V?$_Tree_const_iterator@V?$_Tree_val@U?$_Tree_simple_types@PAVISDKInMeetingServiceMgrEvent@@@std@@@std@@@std@@@std@@YA$$QAV?$_Tree_const_iterator@V?$_Tree_val@U?$_Tree_simple_types@PAVISDKInMeetingServiceMgrEvent@@@std@@@std@@@0@AAV10@@Z 00401300 f i sdk_util.obj
 0001:00000300       ??$forward@ABQAVIMeetingVideoCtrlEvent@ZOOMSDK@@@std@@YAABQAVIMeetingVideoCtrlEvent@ZOOMSDK@@ABQAV12@@Z 00401300 f i sdk_util.obj
 0001:00000300       ??$addressof@$$CBV?$_Tree_val@U?$_Tree_simple_types@PAVIPreMeetingServiceEvent@ZOOMSDK@@@std@@@std@@@std@@YAPBV?$_Tree_val@U?$_Tree_simple_types@PAVIPreMeetingServiceEvent@ZOOMSDK@@@std@@@0@ABV10@@Z 00401300 f i sdk_util.obj
 0001:00000300       ??$forward@ABQAVIAuthServiceEvent@ZOOMSDK@@@std@@YAABQAVIAuthServiceEvent@ZOOMSDK@@ABQAV12@@Z 00401300 f i sdk_util.obj
 0001:00000300       ??$addressof@V?$_Tree_val@U?$_Tree_simple_types@PAVIMeetingParticipantsCtrlEvent@ZOOMSDK@@@std@@@std@@@std@@YAPAV?$_Tree_val@U?$_Tree_simple_types@PAVIMeetingParticipantsCtrlEvent@ZOOMSDK@@@std@@@0@AAV10@@Z 00401300 f i sdk_util.obj
 0001:00000300       ??$addressof@V?$basic_string@_WU?$char_traits@_W@std@@V?$allocator@_W@2@@std@@@std@@YAPAV?$basic_string@_WU?$char_traits@_W@std@@V?$allocator@_W@2@@0@AAV10@@Z 00401300 f i chat_controller_ui.obj
 0001:00000300       ??$forward@AAPAU?$_Tree_node@PAVIClosedCaptionControllerEvent@ZOOMSDK@@PAX@std@@@std@@YAAAPAU?$_Tree_node@PAVIClosedCaptionControllerEvent@ZOOMSDK@@PAX@0@AAPAU10@@Z 00401300 f i sdk_util.obj
 0001:00000300       ??$forward@ABU?$less@PAVIMeetingServiceEvent@ZOOMSDK@@@std@@@std@@YAABU?$less@PAVIMeetingServiceEvent@ZOOMSDK@@@0@ABU10@@Z 00401300 f i sdk_util.obj
 0001:00000300       ??$_Kfn@$$CBIPAVIUserInfo@ZOOMSDK@@@?$_Tmap_traits@IPAVIUserInfo@ZOOMSDK@@U?$less@I@std@@V?$allocator@U?$pair@$$CBIPAVIUserInfo@ZOOMSDK@@@std@@@4@$0A@@std@@SAABIABU?$pair@$$CBIPAVIUserInfo@ZOOMSDK@@@1@@Z 00401300 f i user_manager.obj
 0001:00000300       ??$forward@V?$_Tree_const_iterator@V?$_Tree_val@U?$_Tree_simple_types@PAVIPreMeetingServiceEvent@ZOOMSDK@@@std@@@std@@@std@@@std@@YA$$QAV?$_Tree_const_iterator@V?$_Tree_val@U?$_Tree_simple_types@PAVIPreMeetingServiceEvent@ZOOMSDK@@@std@@@std@@@0@AAV10@@Z 00401300 f i sdk_util.obj
 0001:00000300       ??$addressof@PAU?$_List_node@HPAX@std@@@std@@YAPAPAU?$_List_node@HPAX@0@AAPAU10@@Z 00401300 f i participant_ui.obj
 0001:00000300       ??$forward@AAPAU?$_Tree_node@PAVIMeetingServiceEvent@ZOOMSDK@@PAX@std@@@std@@YAAAPAU?$_Tree_node@PAVIMeetingServiceEvent@ZOOMSDK@@PAX@0@AAPAU10@@Z 00401300 f i sdk_util.obj
 0001:00000300       ??$addressof@V?$_Tree_val@U?$_Tree_simple_types@U?$pair@$$CBIPAVIUserInfo@ZOOMSDK@@@std@@@std@@@std@@@std@@YAPAV?$_Tree_val@U?$_Tree_simple_types@U?$pair@$$CBIPAVIUserInfo@ZOOMSDK@@@std@@@std@@@0@AAV10@@Z 00401300 f i user_manager.obj
 0001:00000300       ??$forward@V?$_Tree_const_iterator@V?$_Tree_val@U?$_Tree_simple_types@PAVIMeetingServiceEvent@ZOOMSDK@@@std@@@std@@@std@@@std@@YA$$QAV?$_Tree_const_iterator@V?$_Tree_val@U?$_Tree_simple_types@PAVIMeetingServiceEvent@ZOOMSDK@@@std@@@std@@@0@AAV10@@Z 00401300 f i sdk_util.obj
 0001:00000300       ??$forward@AAV?$_Tree_const_iterator@V?$_Tree_val@U?$_Tree_simple_types@PAVISDKInMeetingServiceMgrEvent@@@std@@@std@@@std@@@std@@YAAAV?$_Tree_const_iterator@V?$_Tree_val@U?$_Tree_simple_types@PAVISDKInMeetingServiceMgrEvent@@@std@@@std@@@0@AAV10@@Z 00401300 f i sdk_util.obj
 0001:00000300       ??$forward@V?$_Tree_iterator@V?$_Tree_val@U?$_Tree_simple_types@U?$pair@$$CBIPAVIUserInfo@ZOOMSDK@@@std@@@std@@@std@@@std@@@std@@YA$$QAV?$_Tree_iterator@V?$_Tree_val@U?$_Tree_simple_types@U?$pair@$$CBIPAVIUserInfo@ZOOMSDK@@@std@@@std@@@std@@@0@AAV10@@Z 00401300 f i user_manager.obj
 0001:00000300       ??$addressof@H@std@@YAPAHAAH@Z 00401300 f i participant_ui.obj
 0001:00000300       ??$addressof@V?$_Tree_val@U?$_Tree_simple_types@PAVIMeetingServiceEvent@ZOOMSDK@@@std@@@std@@@std@@YAPAV?$_Tree_val@U?$_Tree_simple_types@PAVIMeetingServiceEvent@ZOOMSDK@@@std@@@0@AAV10@@Z 00401300 f i sdk_util.obj
 0001:00000300       ??$forward@ABUtagMONITORINFO@@@std@@YAABUtagMONITORINFO@@ABU1@@Z 00401300 f i sdk_demo_v2.obj
 0001:00000300       ??$forward@ABU?$less@PAVIMeetingChatCtrlEvent@ZOOMSDK@@@std@@@std@@YAABU?$less@PAVIMeetingChatCtrlEvent@ZOOMSDK@@@0@ABU10@@Z 00401300 f i sdk_util.obj
 0001:00000300       ??$forward@ABQAVIPreMeetingServiceEvent@ZOOMSDK@@@std@@YAABQAVIPreMeetingServiceEvent@ZOOMSDK@@ABQAV12@@Z 00401300 f i sdk_util.obj
 0001:00000300       ??$forward@ABU?$less@PAVIAuthServiceEvent@ZOOMSDK@@@std@@@std@@YAABU?$less@PAVIAuthServiceEvent@ZOOMSDK@@@0@ABU10@@Z 00401300 f i sdk_util.obj
 0001:00000300       ??$addressof@$$CBV?$_Tree_val@U?$_Tree_simple_types@PAVIAuthServiceEvent@ZOOMSDK@@@std@@@std@@@std@@YAPBV?$_Tree_val@U?$_Tree_simple_types@PAVIAuthServiceEvent@ZOOMSDK@@@std@@@0@ABV10@@Z 00401300 f i sdk_util.obj
 0001:00000300       ??$_Get_unwrapped_n@PAVIUserInfo@ZOOMSDK@@H$0A@@std@@YAPAPAVIUserInfo@ZOOMSDK@@QAPAV12@H@Z 00401300 f i user_manager.obj
 0001:00000300       ??$forward@V?$_Tree_const_iterator@V?$_Tree_val@U?$_Tree_simple_types@PAVIMeetingVideoCtrlEvent@ZOOMSDK@@@std@@@std@@@std@@@std@@YA$$QAV?$_Tree_const_iterator@V?$_Tree_val@U?$_Tree_simple_types@PAVIMeetingVideoCtrlEvent@ZOOMSDK@@@std@@@std@@@0@AAV10@@Z 00401300 f i sdk_util.obj
 0001:00000300       ??$forward@V?$_Tree_const_iterator@V?$_Tree_val@U?$_Tree_simple_types@PAVIAuthServiceEvent@ZOOMSDK@@@std@@@std@@@std@@@std@@YA$$QAV?$_Tree_const_iterator@V?$_Tree_val@U?$_Tree_simple_types@PAVIAuthServiceEvent@ZOOMSDK@@@std@@@std@@@0@AAV10@@Z 00401300 f i sdk_util.obj
 0001:00000300       ??$addressof@PAVIAuthServiceEvent@ZOOMSDK@@@std@@YAPAPAVIAuthServiceEvent@ZOOMSDK@@AAPAV12@@Z 00401300 f i sdk_util.obj
 0001:00000300       ??$forward@AAPAVIMeetingChatCtrlEvent@ZOOMSDK@@@std@@YAAAPAVIMeetingChatCtrlEvent@ZOOMSDK@@AAPAV12@@Z 00401300 f i sdk_util.obj
 0001:00000300       ??$forward@V?$_Tree_const_iterator@V?$_Tree_val@U?$_Tree_simple_types@PAVIClosedCaptionControllerEvent@ZOOMSDK@@@std@@@std@@@std@@@std@@YA$$QAV?$_Tree_const_iterator@V?$_Tree_val@U?$_Tree_simple_types@PAVIClosedCaptionControllerEvent@ZOOMSDK@@@std@@@std@@@0@AAV10@@Z 00401300 f i sdk_util.obj
 0001:00000300       ?_Kfn@?$_Tset_traits@PAVIClosedCaptionControllerEvent@ZOOMSDK@@U?$less@PAVIClosedCaptionControllerEvent@ZOOMSDK@@@std@@V?$allocator@PAVIClosedCaptionControllerEvent@ZOOMSDK@@@4@$0A@@std@@SAABQAVIClosedCaptionControllerEvent@ZOOMSDK@@ABQAV34@@Z 00401300 f i sdk_util.obj
 0001:00000300       ??$forward@PAVIUserInfo@ZOOMSDK@@@std@@YA$$QAPAVIUserInfo@ZOOMSDK@@AAPAV12@@Z 00401300 f i user_manager.obj
 0001:00000300       ??$addressof@PAVIPreMeetingServiceEvent@ZOOMSDK@@@std@@YAPAPAVIPreMeetingServiceEvent@ZOOMSDK@@AAPAV12@@Z 00401300 f i sdk_util.obj
 0001:00000300       ??$forward@AAPAVIMeetingServiceEvent@ZOOMSDK@@@std@@YAAAPAVIMeetingServiceEvent@ZOOMSDK@@AAPAV12@@Z 00401300 f i sdk_util.obj
 0001:00000300       ??$forward@AAV?$_Tree_const_iterator@V?$_Tree_val@U?$_Tree_simple_types@PAVIMeetingServiceEvent@ZOOMSDK@@@std@@@std@@@std@@@std@@YAAAV?$_Tree_const_iterator@V?$_Tree_val@U?$_Tree_simple_types@PAVIMeetingServiceEvent@ZOOMSDK@@@std@@@std@@@0@AAV10@@Z 00401300 f i sdk_util.obj
 0001:00000300       ??$forward@ABU?$less@PAVIPreMeetingServiceEvent@ZOOMSDK@@@std@@@std@@YAABU?$less@PAVIPreMeetingServiceEvent@ZOOMSDK@@@0@ABU10@@Z 00401300 f i sdk_util.obj
 0001:00000300       ??$forward@V?$tuple@$$V@std@@@std@@YA$$QAV?$tuple@$$V@0@AAV10@@Z 00401300 f i user_manager.obj
 0001:00000300       ?_Kfn@?$_Tset_traits@PAVIMeetingParticipantsCtrlEvent@ZOOMSDK@@U?$less@PAVIMeetingParticipantsCtrlEvent@ZOOMSDK@@@std@@V?$allocator@PAVIMeetingParticipantsCtrlEvent@ZOOMSDK@@@4@$0A@@std@@SAABQAVIMeetingParticipantsCtrlEvent@ZOOMSDK@@ABQAV34@@Z 00401300 f i sdk_util.obj
 0001:00000300       ?_Kfn@?$_Tset_traits@PAVIAuthServiceEvent@ZOOMSDK@@U?$less@PAVIAuthServiceEvent@ZOOMSDK@@@std@@V?$allocator@PAVIAuthServiceEvent@ZOOMSDK@@@4@$0A@@std@@SAABQAVIAuthServiceEvent@ZOOMSDK@@ABQAV34@@Z 00401300 f i sdk_util.obj
 0001:00000300       ?_Kfn@?$_Tset_traits@PAVIPreMeetingServiceEvent@ZOOMSDK@@U?$less@PAVIPreMeetingServiceEvent@ZOOMSDK@@@std@@V?$allocator@PAVIPreMeetingServiceEvent@ZOOMSDK@@@4@$0A@@std@@SAABQAVIPreMeetingServiceEvent@ZOOMSDK@@ABQAV34@@Z 00401300 f i sdk_util.obj
 0001:00000300       ??$forward@ABQAVIVirtualBGImageInfo@ZOOMSDK@@@std@@YAABQAVIVirtualBGImageInfo@ZOOMSDK@@ABQAV12@@Z 00401300 f i settings_ui.obj
 0001:00000300       ??$forward@AAPAVIMeetingVideoCtrlEvent@ZOOMSDK@@@std@@YAAAPAVIMeetingVideoCtrlEvent@ZOOMSDK@@AAPAV12@@Z 00401300 f i sdk_util.obj
 0001:00000300       ??$forward@ABU?$less@PAVIMeetingVideoCtrlEvent@ZOOMSDK@@@std@@@std@@YAABU?$less@PAVIMeetingVideoCtrlEvent@ZOOMSDK@@@0@ABU10@@Z 00401300 f i sdk_util.obj
 0001:00000300       ??$addressof@V?$_String_val@U?$_Simple_types@_W@std@@@std@@@std@@YAPAV?$_String_val@U?$_Simple_types@_W@std@@@0@AAV10@@Z 00401300 f i chat_controller_ui.obj
 0001:00000300       ??$addressof@PAU?$_Tree_node@PAVISDKInMeetingServiceMgrEvent@@PAX@std@@@std@@YAPAPAU?$_Tree_node@PAVISDKInMeetingServiceMgrEvent@@PAX@0@AAPAU10@@Z 00401300 f i sdk_util.obj
 0001:00000300       ??$_Get_unwrapped@V?$basic_string@_WU?$char_traits@_W@std@@V?$allocator@_W@2@@std@@@std@@YAPAV?$basic_string@_WU?$char_traits@_W@std@@V?$allocator@_W@2@@0@QAV10@@Z 00401300 f i custom_ui_share_flow.obj
 0001:00000300       ??$forward@U?$pair@IPAVIUserInfo@ZOOMSDK@@@std@@@std@@YA$$QAU?$pair@IPAVIUserInfo@ZOOMSDK@@@0@AAU10@@Z 00401300 f i user_manager.obj
 0001:00000300       ??$addressof@PAVIClosedCaptionControllerEvent@ZOOMSDK@@@std@@YAPAPAVIClosedCaptionControllerEvent@ZOOMSDK@@AAPAV12@@Z 00401300 f i sdk_util.obj
 0001:00000300       ??$forward@V?$_Tree_const_iterator@V?$_Tree_val@U?$_Tree_simple_types@PAVIMeetingChatCtrlEvent@ZOOMSDK@@@std@@@std@@@std@@@std@@YA$$QAV?$_Tree_const_iterator@V?$_Tree_val@U?$_Tree_simple_types@PAVIMeetingChatCtrlEvent@ZOOMSDK@@@std@@@std@@@0@AAV10@@Z 00401300 f i sdk_util.obj
 0001:00000300       ??$addressof@PAVIMeetingServiceEvent@ZOOMSDK@@@std@@YAPAPAVIMeetingServiceEvent@ZOOMSDK@@AAPAV12@@Z 00401300 f i sdk_util.obj
 0001:00000300       ??$forward@AAPAU?$_Tree_node@PAVIPreMeetingServiceEvent@ZOOMSDK@@PAX@std@@@std@@YAAAPAU?$_Tree_node@PAVIPreMeetingServiceEvent@ZOOMSDK@@PAX@0@AAPAU10@@Z 00401300 f i sdk_util.obj
 0001:00000300       ??$addressof@PAVISDKInMeetingServiceMgrEvent@@@std@@YAPAPAVISDKInMeetingServiceMgrEvent@@AAPAV1@@Z 00401300 f i sdk_util.obj
 0001:00000300       ??$forward@ABQA_W@std@@YAABQA_WABQA_W@Z 00401300 f i AnnotateBarWindow.obj
 0001:00000300       ??$_Unfancy@_W@std@@YAPA_WPA_W@Z 00401300 f i AnnotateBarWindow.obj
 0001:00000300       ??$addressof@$$CBV?$_Tree_val@U?$_Tree_simple_types@PAVIMeetingChatCtrlEvent@ZOOMSDK@@@std@@@std@@@std@@YAPBV?$_Tree_val@U?$_Tree_simple_types@PAVIMeetingChatCtrlEvent@ZOOMSDK@@@std@@@0@ABV10@@Z 00401300 f i sdk_util.obj
 0001:00000300       ??$forward@ABQAU?$_List_node@HPAX@std@@@std@@YAABQAU?$_List_node@HPAX@0@ABQAU10@@Z 00401300 f i participant_ui.obj
 0001:00000300       ??$addressof@PAU?$_Tree_node@PAVIMeetingParticipantsCtrlEvent@ZOOMSDK@@PAX@std@@@std@@YAPAPAU?$_Tree_node@PAVIMeetingParticipantsCtrlEvent@ZOOMSDK@@PAX@0@AAPAU10@@Z 00401300 f i sdk_util.obj
 0001:00000300       ??$forward@ABQAD@std@@YAABQADABQAD@Z 00401300 f i sdk_demo_v2.obj
 0001:00000300       ?_Kfn@?$_Tset_traits@PAVIMeetingVideoCtrlEvent@ZOOMSDK@@U?$less@PAVIMeetingVideoCtrlEvent@ZOOMSDK@@@std@@V?$allocator@PAVIMeetingVideoCtrlEvent@ZOOMSDK@@@4@$0A@@std@@SAABQAVIMeetingVideoCtrlEvent@ZOOMSDK@@ABQAV34@@Z 00401300 f i sdk_util.obj
 0001:00000300       ??$forward@ABUpiecewise_construct_t@std@@@std@@YAABUpiecewise_construct_t@0@ABU10@@Z 00401300 f i user_manager.obj
 0001:00000300       ??$forward@ABU?$less@PAVIMeetingParticipantsCtrlEvent@ZOOMSDK@@@std@@@std@@YAABU?$less@PAVIMeetingParticipantsCtrlEvent@ZOOMSDK@@@0@ABU10@@Z 00401300 f i sdk_util.obj
 0001:00000300       ?_Kfn@?$_Tset_traits@PAVISDKInMeetingServiceMgrEvent@@U?$less@PAVISDKInMeetingServiceMgrEvent@@@std@@V?$allocator@PAVISDKInMeetingServiceMgrEvent@@@3@$0A@@std@@SAABQAVISDKInMeetingServiceMgrEvent@@ABQAV3@@Z 00401300 f i sdk_util.obj
 0001:00000300       ??$_Get_unwrapped@UtagMONITORINFO@@@std@@YAPAUtagMONITORINFO@@QAU1@@Z 00401300 f i sdk_demo_v2.obj
 0001:00000300       ??$forward@ABU?$less@PAVIClosedCaptionControllerEvent@ZOOMSDK@@@std@@@std@@YAABU?$less@PAVIClosedCaptionControllerEvent@ZOOMSDK@@@0@ABU10@@Z 00401300 f i sdk_util.obj
 0001:00000300       ??$forward@AAPAVIPreMeetingServiceEvent@ZOOMSDK@@@std@@YAAAPAVIPreMeetingServiceEvent@ZOOMSDK@@AAPAV12@@Z 00401300 f i sdk_util.obj
 0001:00000300       ??$forward@V?$_Tree_const_iterator@V?$_Tree_val@U?$_Tree_simple_types@PAVIMeetingParticipantsCtrlEvent@ZOOMSDK@@@std@@@std@@@std@@@std@@YA$$QAV?$_Tree_const_iterator@V?$_Tree_val@U?$_Tree_simple_types@PAVIMeetingParticipantsCtrlEvent@ZOOMSDK@@@std@@@std@@@0@AAV10@@Z 00401300 f i sdk_util.obj
 0001:00000300       ??$forward@AAV?$_Tree_const_iterator@V?$_Tree_val@U?$_Tree_simple_types@PAVIMeetingParticipantsCtrlEvent@ZOOMSDK@@@std@@@std@@@std@@@std@@YAAAV?$_Tree_const_iterator@V?$_Tree_val@U?$_Tree_simple_types@PAVIMeetingParticipantsCtrlEvent@ZOOMSDK@@@std@@@std@@@0@AAV10@@Z 00401300 f i sdk_util.obj
 0001:00000300       ??$forward@AAPAVIUserInfo@ZOOMSDK@@@std@@YAAAPAVIUserInfo@ZOOMSDK@@AAPAV12@@Z 00401300 f i user_manager.obj
 0001:00000300       ??$forward@AAPAU?$_Tree_node@PAVISDKInMeetingServiceMgrEvent@@PAX@std@@@std@@YAAAPAU?$_Tree_node@PAVISDKInMeetingServiceMgrEvent@@PAX@0@AAPAU10@@Z 00401300 f i sdk_util.obj
 0001:00000300       ??$addressof@$$CBV?$_Tree_val@U?$_Tree_simple_types@PAVISDKInMeetingServiceMgrEvent@@@std@@@std@@@std@@YAPBV?$_Tree_val@U?$_Tree_simple_types@PAVISDKInMeetingServiceMgrEvent@@@std@@@0@ABV10@@Z 00401300 f i sdk_util.obj
 0001:00000300       ??$addressof@PAU?$_Tree_node@PAVIMeetingServiceEvent@ZOOMSDK@@PAX@std@@@std@@YAPAPAU?$_Tree_node@PAVIMeetingServiceEvent@ZOOMSDK@@PAX@0@AAPAU10@@Z 00401300 f i sdk_util.obj
 0001:00000300       ??$forward@_N@std@@YA$$QA_NAA_N@Z 00401300 f i sdk_util.obj
 0001:00000300       ??$forward@AAU?$pair@$$CBIPAVIUserInfo@ZOOMSDK@@@std@@@std@@YAAAU?$pair@$$CBIPAVIUserInfo@ZOOMSDK@@@0@AAU10@@Z 00401300 f i user_manager.obj
 0001:00000300       ??$forward@AAV?$_Tree_iterator@V?$_Tree_val@U?$_Tree_simple_types@U?$pair@$$CBIPAVIUserInfo@ZOOMSDK@@@std@@@std@@@std@@@std@@@std@@YAAAV?$_Tree_iterator@V?$_Tree_val@U?$_Tree_simple_types@U?$pair@$$CBIPAVIUserInfo@ZOOMSDK@@@std@@@std@@@std@@@0@AAV10@@Z 00401300 f i user_manager.obj
 0001:00000300       ??$addressof@U?$pair@$$CBIPAVIUserInfo@ZOOMSDK@@@std@@@std@@YAPAU?$pair@$$CBIPAVIUserInfo@ZOOMSDK@@@0@AAU10@@Z 00401300 f i user_manager.obj
 0001:00000300       ??$forward@AAPAU?$_Tree_node@PAVIMeetingChatCtrlEvent@ZOOMSDK@@PAX@std@@@std@@YAAAPAU?$_Tree_node@PAVIMeetingChatCtrlEvent@ZOOMSDK@@PAX@0@AAPAU10@@Z 00401300 f i sdk_util.obj
 0001:00000300       ??$addressof@PAU?$_Tree_node@PAVIMeetingChatCtrlEvent@ZOOMSDK@@PAX@std@@@std@@YAPAPAU?$_Tree_node@PAVIMeetingChatCtrlEvent@ZOOMSDK@@PAX@0@AAPAU10@@Z 00401300 f i sdk_util.obj
 0001:00000300       ??$forward@AAPAVIAuthServiceEvent@ZOOMSDK@@@std@@YAAAPAVIAuthServiceEvent@ZOOMSDK@@AAPAV12@@Z 00401300 f i sdk_util.obj
 0001:00000300       ??$addressof@PAU?$_Tree_node@U?$pair@$$CBIPAVIUserInfo@ZOOMSDK@@@std@@PAX@std@@@std@@YAPAPAU?$_Tree_node@U?$pair@$$CBIPAVIUserInfo@ZOOMSDK@@@std@@PAX@0@AAPAU10@@Z 00401300 f i user_manager.obj
 0001:00000300       ?_Kfn@?$_Tset_traits@PAVIMeetingServiceEvent@ZOOMSDK@@U?$less@PAVIMeetingServiceEvent@ZOOMSDK@@@std@@V?$allocator@PAVIMeetingServiceEvent@ZOOMSDK@@@4@$0A@@std@@SAABQAVIMeetingServiceEvent@ZOOMSDK@@ABQAV34@@Z 00401300 f i sdk_util.obj
 0001:00000300       ??$_Unfancy@D@std@@YAPADPAD@Z 00401300 f i sdk_demo_v2.obj
 0001:00000300       ??$addressof@PAVIMeetingVideoCtrlEvent@ZOOMSDK@@@std@@YAPAPAVIMeetingVideoCtrlEvent@ZOOMSDK@@AAPAV12@@Z 00401300 f i sdk_util.obj
 0001:00000300       ??$forward@ABU?$less@I@std@@@std@@YAABU?$less@I@0@ABU10@@Z 00401300 f i user_manager.obj
 0001:00000300       ??$addressof@PA_W@std@@YAPAPA_WAAPA_W@Z 00401300 f i AnnotateBarWindow.obj
 0001:00000300       ??$forward@ABQAVIMeetingServiceEvent@ZOOMSDK@@@std@@YAABQAVIMeetingServiceEvent@ZOOMSDK@@ABQAV12@@Z 00401300 f i sdk_util.obj
 0001:00000300       ??$forward@ABQAVIMeetingParticipantsCtrlEvent@ZOOMSDK@@@std@@YAABQAVIMeetingParticipantsCtrlEvent@ZOOMSDK@@ABQAV12@@Z 00401300 f i sdk_util.obj
 0001:00000300       ??$forward@ABQAVIMeetingChatCtrlEvent@ZOOMSDK@@@std@@YAABQAVIMeetingChatCtrlEvent@ZOOMSDK@@ABQAV12@@Z 00401300 f i sdk_util.obj
 0001:00000300       ??$addressof@$$CBV?$_Tree_val@U?$_Tree_simple_types@PAVIMeetingServiceEvent@ZOOMSDK@@@std@@@std@@@std@@YAPBV?$_Tree_val@U?$_Tree_simple_types@PAVIMeetingServiceEvent@ZOOMSDK@@@std@@@0@ABV10@@Z 00401300 f i sdk_util.obj
 0001:00000300       ??$move@AAD@std@@YA$$QADAAD@Z 00401300 f i sdk_util.obj
 0001:00000300       ??$forward@AAPAU?$_Tree_node@PAVIMeetingParticipantsCtrlEvent@ZOOMSDK@@PAX@std@@@std@@YAAAPAU?$_Tree_node@PAVIMeetingParticipantsCtrlEvent@ZOOMSDK@@PAX@0@AAPAU10@@Z 00401300 f i sdk_util.obj
 0001:00000300       ??$addressof@V?$_Tree_val@U?$_Tree_simple_types@PAVIMeetingVideoCtrlEvent@ZOOMSDK@@@std@@@std@@@std@@YAPAV?$_Tree_val@U?$_Tree_simple_types@PAVIMeetingVideoCtrlEvent@ZOOMSDK@@@std@@@0@AAV10@@Z 00401300 f i sdk_util.obj
 0001:00000300       ??$forward@AAPAVISDKInMeetingServiceMgrEvent@@@std@@YAAAPAVISDKInMeetingServiceMgrEvent@@AAPAV1@@Z 00401300 f i sdk_util.obj
 0001:00000300       ??$_Get_unwrapped_n@UtagMONITORINFO@@H$0A@@std@@YAPAUtagMONITORINFO@@QAU1@H@Z 00401300 f i sdk_demo_v2.obj
 0001:00000300       ??$forward@U_Zero_then_variadic_args_t@std@@@std@@YA$$QAU_Zero_then_variadic_args_t@0@AAU10@@Z 00401300 f i sdk_util.obj
 0001:00000300       ??$forward@AAV?$_Tree_const_iterator@V?$_Tree_val@U?$_Tree_simple_types@PAVIPreMeetingServiceEvent@ZOOMSDK@@@std@@@std@@@std@@@std@@YAAAV?$_Tree_const_iterator@V?$_Tree_val@U?$_Tree_simple_types@PAVIPreMeetingServiceEvent@ZOOMSDK@@@std@@@std@@@0@AAV10@@Z 00401300 f i sdk_util.obj
 0001:00000300       ??$addressof@PAU?$_Tree_node@PAVIMeetingVideoCtrlEvent@ZOOMSDK@@PAX@std@@@std@@YAPAPAU?$_Tree_node@PAVIMeetingVideoCtrlEvent@ZOOMSDK@@PAX@0@AAPAU10@@Z 00401300 f i sdk_util.obj
 0001:00000300       ??$forward@V?$tuple@ABI@std@@@std@@YA$$QAV?$tuple@ABI@0@AAV10@@Z 00401300 f i user_manager.obj
 0001:00000300       ??$_Get_size_of_n@$00@std@@YAII@Z 00401300 f i sdk_demo_v2.obj
 0001:00000300       ??$_Unfancy@V?$basic_string@_WU?$char_traits@_W@std@@V?$allocator@_W@2@@std@@@std@@YAPAV?$basic_string@_WU?$char_traits@_W@std@@V?$allocator@_W@2@@0@PAV10@@Z 00401300 f i custom_ui_share_flow.obj
 0001:00000300       ??$forward@AAPAU?$_List_node@HPAX@std@@@std@@YAAAPAU?$_List_node@HPAX@0@AAPAU10@@Z 00401300 f i participant_ui.obj
 0001:00000300       ??$addressof@$$CBV?$_Tree_val@U?$_Tree_simple_types@PAVIMeetingParticipantsCtrlEvent@ZOOMSDK@@@std@@@std@@@std@@YAPBV?$_Tree_val@U?$_Tree_simple_types@PAVIMeetingParticipantsCtrlEvent@ZOOMSDK@@@std@@@0@ABV10@@Z 00401300 f i sdk_util.obj
 0001:00000300       ??$addressof@$$CBV?$_Tree_val@U?$_Tree_simple_types@PAVIClosedCaptionControllerEvent@ZOOMSDK@@@std@@@std@@@std@@YAPBV?$_Tree_val@U?$_Tree_simple_types@PAVIClosedCaptionControllerEvent@ZOOMSDK@@@std@@@0@ABV10@@Z 00401300 f i sdk_util.obj
 0001:00000300       ??$addressof@$$CBV?$basic_string@_WU?$char_traits@_W@std@@V?$allocator@_W@2@@std@@@std@@YAPBV?$basic_string@_WU?$char_traits@_W@std@@V?$allocator@_W@2@@0@ABV10@@Z 00401300 f i custom_ui_share_flow.obj
 0001:00000300       ??$forward@I@std@@YA$$QAIAAI@Z 00401300 f i user_manager.obj
 0001:00000300       ??$_Get_unwrapped@PAVIUserInfo@ZOOMSDK@@@std@@YAPAPAVIUserInfo@ZOOMSDK@@QAPAV12@@Z 00401300 f i user_manager.obj
 0001:00000300       ??$addressof@PAU?$_Tree_node@PAVIAuthServiceEvent@ZOOMSDK@@PAX@std@@@std@@YAPAPAU?$_Tree_node@PAVIAuthServiceEvent@ZOOMSDK@@PAX@0@AAPAU10@@Z 00401300 f i sdk_util.obj
 0001:00000300       ??$addressof@PAD@std@@YAPAPADAAPAD@Z 00401300 f i sdk_demo_v2.obj
 0001:00000300       ??$forward@AAPAVIMeetingParticipantsCtrlEvent@ZOOMSDK@@@std@@YAAAPAVIMeetingParticipantsCtrlEvent@ZOOMSDK@@AAPAV12@@Z 00401300 f i sdk_util.obj
 0001:00000300       ??$forward@AAPAU?$_Tree_node@PAVIMeetingVideoCtrlEvent@ZOOMSDK@@PAX@std@@@std@@YAAAPAU?$_Tree_node@PAVIMeetingVideoCtrlEvent@ZOOMSDK@@PAX@0@AAPAU10@@Z 00401300 f i sdk_util.obj
 0001:00000300       ?_Kfn@?$_Tset_traits@PAVIMeetingChatCtrlEvent@ZOOMSDK@@U?$less@PAVIMeetingChatCtrlEvent@ZOOMSDK@@@std@@V?$allocator@PAVIMeetingChatCtrlEvent@ZOOMSDK@@@4@$0A@@std@@SAABQAVIMeetingChatCtrlEvent@ZOOMSDK@@ABQAV34@@Z 00401300 f i sdk_util.obj
 0001:00000300       ??$_Unfancy@PAVIUserInfo@ZOOMSDK@@@std@@YAPAPAVIUserInfo@ZOOMSDK@@PAPAV12@@Z 00401300 f i user_manager.obj
 0001:00000300       ??$forward@ABH@std@@YAABHABH@Z 00401300 f i participant_ui.obj
 0001:00000300       ??$forward@AAV?$_Tree_const_iterator@V?$_Tree_val@U?$_Tree_simple_types@PAVIAuthServiceEvent@ZOOMSDK@@@std@@@std@@@std@@@std@@YAAAV?$_Tree_const_iterator@V?$_Tree_val@U?$_Tree_simple_types@PAVIAuthServiceEvent@ZOOMSDK@@@std@@@std@@@0@AAV10@@Z 00401300 f i sdk_util.obj
 0001:00000300       ??$_Get_unwrapped@PAVIVirtualBGImageInfo@ZOOMSDK@@@std@@YAPAPAVIVirtualBGImageInfo@ZOOMSDK@@QAPAV12@@Z 00401300 f i settings_ui.obj
 0001:00000300       ??$_Get_unwrapped_n@PAVIVirtualBGImageInfo@ZOOMSDK@@H$0A@@std@@YAPAPAVIVirtualBGImageInfo@ZOOMSDK@@QAPAV12@H@Z 00401300 f i settings_ui.obj
 0001:00000300       ??$forward@ABQAVISDKInMeetingServiceMgrEvent@@@std@@YAABQAVISDKInMeetingServiceMgrEvent@@ABQAV1@@Z 00401300 f i sdk_util.obj
 0001:00000300       ??$forward@ABQAVIUserInfo@ZOOMSDK@@@std@@YAABQAVIUserInfo@ZOOMSDK@@ABQAV12@@Z 00401300 f i user_manager.obj
 0001:00000300       ??$forward@AAPAVIClosedCaptionControllerEvent@ZOOMSDK@@@std@@YAAAPAVIClosedCaptionControllerEvent@ZOOMSDK@@AAPAV12@@Z 00401300 f i sdk_util.obj
 0001:00000300       ??$addressof@V?$_Tree_val@U?$_Tree_simple_types@PAVIPreMeetingServiceEvent@ZOOMSDK@@@std@@@std@@@std@@YAPAV?$_Tree_val@U?$_Tree_simple_types@PAVIPreMeetingServiceEvent@ZOOMSDK@@@std@@@0@AAV10@@Z 00401300 f i sdk_util.obj
 0001:00000300       ??$_Convert_size@I@std@@YAII@Z 00401300 f i AnnotateBarWindow.obj
 0001:00000300       ??$forward@AAPAU?$_Tree_node@U?$pair@$$CBIPAVIUserInfo@ZOOMSDK@@@std@@PAX@std@@@std@@YAAAPAU?$_Tree_node@U?$pair@$$CBIPAVIUserInfo@ZOOMSDK@@@std@@PAX@0@AAPAU10@@Z 00401300 f i user_manager.obj
 0001:00000300       ??$_Get_unwrapped_n@V?$basic_string@_WU?$char_traits@_W@std@@V?$allocator@_W@2@@std@@H$0A@@std@@YAPAV?$basic_string@_WU?$char_traits@_W@std@@V?$allocator@_W@2@@0@QAV10@H@Z 00401300 f i custom_ui_share_flow.obj
 0001:00000300       ??$forward@ABU?$less@PAVISDKInMeetingServiceMgrEvent@@@std@@@std@@YAABU?$less@PAVISDKInMeetingServiceMgrEvent@@@0@ABU10@@Z 00401300 f i sdk_util.obj
 0001:00000300       ??$forward@ABQAVIClosedCaptionControllerEvent@ZOOMSDK@@@std@@YAABQAVIClosedCaptionControllerEvent@ZOOMSDK@@ABQAV12@@Z 00401300 f i sdk_util.obj
 0001:00000300       ??$addressof@PAU?$_Tree_node@PAVIPreMeetingServiceEvent@ZOOMSDK@@PAX@std@@@std@@YAPAPAU?$_Tree_node@PAVIPreMeetingServiceEvent@ZOOMSDK@@PAX@0@AAPAU10@@Z 00401300 f i sdk_util.obj
 0001:00000300       ??$move@AAV?$tuple@ABI@std@@@std@@YA$$QAV?$tuple@ABI@0@AAV10@@Z 00401300 f i user_manager.obj
 0001:00000300       ??$addressof@V?$_Tree_val@U?$_Tree_simple_types@PAVIMeetingChatCtrlEvent@ZOOMSDK@@@std@@@std@@@std@@YAPAV?$_Tree_val@U?$_Tree_simple_types@PAVIMeetingChatCtrlEvent@ZOOMSDK@@@std@@@0@AAV10@@Z 00401300 f i sdk_util.obj
 0001:00000300       ??$forward@AAV?$_Tree_const_iterator@V?$_Tree_val@U?$_Tree_simple_types@PAVIMeetingChatCtrlEvent@ZOOMSDK@@@std@@@std@@@std@@@std@@YAAAV?$_Tree_const_iterator@V?$_Tree_val@U?$_Tree_simple_types@PAVIMeetingChatCtrlEvent@ZOOMSDK@@@std@@@std@@@0@AAV10@@Z 00401300 f i sdk_util.obj
 0001:00000300       ??$forward@ABI@std@@YAABIABI@Z 00401300 f i user_manager.obj
 0001:00000300       ??$addressof@V?$_Tree_val@U?$_Tree_simple_types@PAVIAuthServiceEvent@ZOOMSDK@@@std@@@std@@@std@@YAPAV?$_Tree_val@U?$_Tree_simple_types@PAVIAuthServiceEvent@ZOOMSDK@@@std@@@0@AAV10@@Z 00401300 f i sdk_util.obj
 0001:00000300       ??$addressof@V?$_List_val@U?$_List_simple_types@H@std@@@std@@@std@@YAPAV?$_List_val@U?$_List_simple_types@H@std@@@0@AAV10@@Z 00401300 f i participant_ui.obj
 0001:00000300       ??$forward@AAPAU?$_Tree_node@PAVIAuthServiceEvent@ZOOMSDK@@PAX@std@@@std@@YAAAPAU?$_Tree_node@PAVIAuthServiceEvent@ZOOMSDK@@PAX@0@AAPAU10@@Z 00401300 f i sdk_util.obj
 0001:00000300       ??$_Unfancy@UtagMONITORINFO@@@std@@YAPAUtagMONITORINFO@@PAU1@@Z 00401300 f i sdk_demo_v2.obj
 0001:00000300       ??$addressof@V?$_Vector_val@U?$_Simple_types@PAVIUserInfo@ZOOMSDK@@@std@@@std@@@std@@YAPAV?$_Vector_val@U?$_Simple_types@PAVIUserInfo@ZOOMSDK@@@std@@@0@AAV10@@Z 00401300 f i user_manager.obj
 0001:00000300       ??$addressof@PAVIMeetingChatCtrlEvent@ZOOMSDK@@@std@@YAPAPAVIMeetingChatCtrlEvent@ZOOMSDK@@AAPAV12@@Z 00401300 f i sdk_util.obj
 0001:00000300       ??$move@AAV?$basic_string@_WU?$char_traits@_W@std@@V?$allocator@_W@2@@std@@@std@@YA$$QAV?$basic_string@_WU?$char_traits@_W@std@@V?$allocator@_W@2@@0@AAV10@@Z 00401300 f i chat_controller_ui.obj
 0001:00000300       ??$forward@AAV?$_Tree_const_iterator@V?$_Tree_val@U?$_Tree_simple_types@PAVIMeetingVideoCtrlEvent@ZOOMSDK@@@std@@@std@@@std@@@std@@YAAAV?$_Tree_const_iterator@V?$_Tree_val@U?$_Tree_simple_types@PAVIMeetingVideoCtrlEvent@ZOOMSDK@@@std@@@std@@@0@AAV10@@Z 00401300 f i sdk_util.obj
 0001:00000300       ??$move@AAV?$allocator@_W@std@@@std@@YA$$QAV?$allocator@_W@0@AAV10@@Z 00401300 f i chat_controller_ui.obj
 0001:00000300       ??$addressof@PAVIMeetingParticipantsCtrlEvent@ZOOMSDK@@@std@@YAPAPAVIMeetingParticipantsCtrlEvent@ZOOMSDK@@AAPAV12@@Z 00401300 f i sdk_util.obj
 0001:00000300       ??$addressof@PAU?$_Tree_node@PAVIClosedCaptionControllerEvent@ZOOMSDK@@PAX@std@@@std@@YAPAPAU?$_Tree_node@PAVIClosedCaptionControllerEvent@ZOOMSDK@@PAX@0@AAPAU10@@Z 00401300 f i sdk_util.obj
 0001:00000310       ??$_Deallocate@$07$0A@@std@@YAXPAXI@Z 00401310 f i AnnotateBarWindow.obj
 0001:00000370       ??$_Get_size_of_n@$01@std@@YAII@Z 00401370 f i AnnotateBarWindow.obj
 0001:000003a0       ??$_Max_value@I@std@@YAABIABI0@Z 004013a0 f i AnnotateBarWindow.obj
 0001:000003d0       ??$_Min_value@I@std@@YAABIABI0@Z 004013d0 f i AnnotateBarWindow.obj
 0001:00000400       ??$_Reallocate_for@V<lambda_03628ca18370b1f44a99b655e704819b>@@PB_W@?$basic_string@_WU?$char_traits@_W@std@@V?$allocator@_W@2@@std@@AAEAAV01@IV<lambda_03628ca18370b1f44a99b655e704819b>@@PB_W@Z 00401400 f i AnnotateBarWindow.obj
 0001:000004e0       ??$_Traits_equal@U?$char_traits@_W@std@@@std@@YA_NQB_WI0I@Z 004014e0 f i AnnotateBarWindow.obj
 0001:00000520       ??$construct@PAVIMeetingServiceEvent@ZOOMSDK@@ABQAV12@@?$_Default_allocator_traits@V?$allocator@U?$_Tree_node@PAVIMeetingServiceEvent@ZOOMSDK@@PAX@std@@@std@@@std@@SAXAAV?$allocator@U?$_Tree_node@PAVIMeetingServiceEvent@ZOOMSDK@@PAX@std@@@1@QAPAVIMeetingServiceEvent@ZOOMSDK@@ABQAV34@@Z 00401520 f i sdk_util.obj
 0001:00000520       ??$construct@PAU?$_List_node@HPAX@std@@ABQAU12@@?$_Default_allocator_traits@V?$allocator@U?$_List_node@HPAX@std@@@std@@@std@@SAXAAV?$allocator@U?$_List_node@HPAX@std@@@1@QAPAU?$_List_node@HPAX@1@ABQAU31@@Z 00401520 f i participant_ui.obj
 0001:00000520       ??$construct@PAVIMeetingChatCtrlEvent@ZOOMSDK@@ABQAV12@@?$_Default_allocator_traits@V?$allocator@U?$_Tree_node@PAVIMeetingChatCtrlEvent@ZOOMSDK@@PAX@std@@@std@@@std@@SAXAAV?$allocator@U?$_Tree_node@PAVIMeetingChatCtrlEvent@ZOOMSDK@@PAX@std@@@1@QAPAVIMeetingChatCtrlEvent@ZOOMSDK@@ABQAV34@@Z 00401520 f i sdk_util.obj
 0001:00000520       ??$construct@PA_WABQA_W@?$_Default_allocator_traits@V?$allocator@_W@std@@@std@@SAXAAV?$allocator@_W@1@QAPA_WABQA_W@Z 00401520 f i AnnotateBarWindow.obj
 0001:00000520       ??$construct@PAVIMeetingParticipantsCtrlEvent@ZOOMSDK@@ABQAV12@@?$_Default_allocator_traits@V?$allocator@U?$_Tree_node@PAVIMeetingParticipantsCtrlEvent@ZOOMSDK@@PAX@std@@@std@@@std@@SAXAAV?$allocator@U?$_Tree_node@PAVIMeetingParticipantsCtrlEvent@ZOOMSDK@@PAX@std@@@1@QAPAVIMeetingParticipantsCtrlEvent@ZOOMSDK@@ABQAV34@@Z 00401520 f i sdk_util.obj
 0001:00000520       ??$construct@PAU?$_Tree_node@PAVIClosedCaptionControllerEvent@ZOOMSDK@@PAX@std@@AAPAU12@@?$_Default_allocator_traits@V?$allocator@U?$_Tree_node@PAVIClosedCaptionControllerEvent@ZOOMSDK@@PAX@std@@@std@@@std@@SAXAAV?$allocator@U?$_Tree_node@PAVIClosedCaptionControllerEvent@ZOOMSDK@@PAX@std@@@1@QAPAU?$_Tree_node@PAVIClosedCaptionControllerEvent@ZOOMSDK@@PAX@1@AAPAU31@@Z 00401520 f i sdk_util.obj
 0001:00000520       ??$construct@PAU?$_Tree_node@PAVIMeetingServiceEvent@ZOOMSDK@@PAX@std@@AAPAU12@@?$_Default_allocator_traits@V?$allocator@U?$_Tree_node@PAVIMeetingServiceEvent@ZOOMSDK@@PAX@std@@@std@@@std@@SAXAAV?$allocator@U?$_Tree_node@PAVIMeetingServiceEvent@ZOOMSDK@@PAX@std@@@1@QAPAU?$_Tree_node@PAVIMeetingServiceEvent@ZOOMSDK@@PAX@1@AAPAU31@@Z 00401520 f i sdk_util.obj
 0001:00000520       ??$construct@PAU?$_Tree_node@PAVIAuthServiceEvent@ZOOMSDK@@PAX@std@@AAPAU12@@?$_Default_allocator_traits@V?$allocator@U?$_Tree_node@PAVIAuthServiceEvent@ZOOMSDK@@PAX@std@@@std@@@std@@SAXAAV?$allocator@U?$_Tree_node@PAVIAuthServiceEvent@ZOOMSDK@@PAX@std@@@1@QAPAU?$_Tree_node@PAVIAuthServiceEvent@ZOOMSDK@@PAX@1@AAPAU31@@Z 00401520 f i sdk_util.obj
 0001:00000520       ??$construct@PAU?$_List_node@HPAX@std@@AAPAU12@@?$_Default_allocator_traits@V?$allocator@U?$_List_node@HPAX@std@@@std@@@std@@SAXAAV?$allocator@U?$_List_node@HPAX@std@@@1@QAPAU?$_List_node@HPAX@1@AAPAU31@@Z 00401520 f i participant_ui.obj
 0001:00000520       ??$construct@PAU?$_Tree_node@PAVIMeetingParticipantsCtrlEvent@ZOOMSDK@@PAX@std@@AAPAU12@@?$_Default_allocator_traits@V?$allocator@U?$_Tree_node@PAVIMeetingParticipantsCtrlEvent@ZOOMSDK@@PAX@std@@@std@@@std@@SAXAAV?$allocator@U?$_Tree_node@PAVIMeetingParticipantsCtrlEvent@ZOOMSDK@@PAX@std@@@1@QAPAU?$_Tree_node@PAVIMeetingParticipantsCtrlEvent@ZOOMSDK@@PAX@1@AAPAU31@@Z 00401520 f i sdk_util.obj
 0001:00000520       ??$construct@PAU?$_Tree_node@PAVIPreMeetingServiceEvent@ZOOMSDK@@PAX@std@@AAPAU12@@?$_Default_allocator_traits@V?$allocator@U?$_Tree_node@PAVIPreMeetingServiceEvent@ZOOMSDK@@PAX@std@@@std@@@std@@SAXAAV?$allocator@U?$_Tree_node@PAVIPreMeetingServiceEvent@ZOOMSDK@@PAX@std@@@1@QAPAU?$_Tree_node@PAVIPreMeetingServiceEvent@ZOOMSDK@@PAX@1@AAPAU31@@Z 00401520 f i sdk_util.obj
 0001:00000520       ??$construct@PAVISDKInMeetingServiceMgrEvent@@ABQAV1@@?$_Default_allocator_traits@V?$allocator@U?$_Tree_node@PAVISDKInMeetingServiceMgrEvent@@PAX@std@@@std@@@std@@SAXAAV?$allocator@U?$_Tree_node@PAVISDKInMeetingServiceMgrEvent@@PAX@std@@@1@QAPAVISDKInMeetingServiceMgrEvent@@ABQAV3@@Z 00401520 f i sdk_util.obj
 0001:00000520       ??$construct@PAVIUserInfo@ZOOMSDK@@ABQAV12@@?$_Default_allocator_traits@V?$allocator@PAVIUserInfo@ZOOMSDK@@@std@@@std@@SAXAAV?$allocator@PAVIUserInfo@ZOOMSDK@@@1@QAPAVIUserInfo@ZOOMSDK@@ABQAV34@@Z 00401520 f i user_manager.obj
 0001:00000520       ??$construct@PAU?$_Tree_node@U?$pair@$$CBIPAVIUserInfo@ZOOMSDK@@@std@@PAX@std@@AAPAU12@@?$_Default_allocator_traits@V?$allocator@U?$_Tree_node@U?$pair@$$CBIPAVIUserInfo@ZOOMSDK@@@std@@PAX@std@@@std@@@std@@SAXAAV?$allocator@U?$_Tree_node@U?$pair@$$CBIPAVIUserInfo@ZOOMSDK@@@std@@PAX@std@@@1@QAPAU?$_Tree_node@U?$pair@$$CBIPAVIUserInfo@ZOOMSDK@@@std@@PAX@1@AAPAU31@@Z 00401520 f i user_manager.obj
 0001:00000520       ??$construct@PAU?$_Tree_node@PAVIMeetingVideoCtrlEvent@ZOOMSDK@@PAX@std@@AAPAU12@@?$_Default_allocator_traits@V?$allocator@U?$_Tree_node@PAVIMeetingVideoCtrlEvent@ZOOMSDK@@PAX@std@@@std@@@std@@SAXAAV?$allocator@U?$_Tree_node@PAVIMeetingVideoCtrlEvent@ZOOMSDK@@PAX@std@@@1@QAPAU?$_Tree_node@PAVIMeetingVideoCtrlEvent@ZOOMSDK@@PAX@1@AAPAU31@@Z 00401520 f i sdk_util.obj
 0001:00000520       ??$construct@PAVIMeetingVideoCtrlEvent@ZOOMSDK@@ABQAV12@@?$_Default_allocator_traits@V?$allocator@U?$_Tree_node@PAVIMeetingVideoCtrlEvent@ZOOMSDK@@PAX@std@@@std@@@std@@SAXAAV?$allocator@U?$_Tree_node@PAVIMeetingVideoCtrlEvent@ZOOMSDK@@PAX@std@@@1@QAPAVIMeetingVideoCtrlEvent@ZOOMSDK@@ABQAV34@@Z 00401520 f i sdk_util.obj
 0001:00000520       ??$construct@PAU?$_Tree_node@PAVIMeetingChatCtrlEvent@ZOOMSDK@@PAX@std@@AAPAU12@@?$_Default_allocator_traits@V?$allocator@U?$_Tree_node@PAVIMeetingChatCtrlEvent@ZOOMSDK@@PAX@std@@@std@@@std@@SAXAAV?$allocator@U?$_Tree_node@PAVIMeetingChatCtrlEvent@ZOOMSDK@@PAX@std@@@1@QAPAU?$_Tree_node@PAVIMeetingChatCtrlEvent@ZOOMSDK@@PAX@1@AAPAU31@@Z 00401520 f i sdk_util.obj
 0001:00000520       ??$construct@PAVIVirtualBGImageInfo@ZOOMSDK@@ABQAV12@@?$_Default_allocator_traits@V?$allocator@PAVIVirtualBGImageInfo@ZOOMSDK@@@std@@@std@@SAXAAV?$allocator@PAVIVirtualBGImageInfo@ZOOMSDK@@@1@QAPAVIVirtualBGImageInfo@ZOOMSDK@@ABQAV34@@Z 00401520 f i settings_ui.obj
 0001:00000520       ??$construct@PAU?$_Tree_node@PAVISDKInMeetingServiceMgrEvent@@PAX@std@@AAPAU12@@?$_Default_allocator_traits@V?$allocator@U?$_Tree_node@PAVISDKInMeetingServiceMgrEvent@@PAX@std@@@std@@@std@@SAXAAV?$allocator@U?$_Tree_node@PAVISDKInMeetingServiceMgrEvent@@PAX@std@@@1@QAPAU?$_Tree_node@PAVISDKInMeetingServiceMgrEvent@@PAX@1@AAPAU31@@Z 00401520 f i sdk_util.obj
 0001:00000520       ??$construct@HABH@?$_Default_allocator_traits@V?$allocator@U?$_List_node@HPAX@std@@@std@@@std@@SAXAAV?$allocator@U?$_List_node@HPAX@std@@@1@QAHABH@Z 00401520 f i participant_ui.obj
 0001:00000520       ??$construct@PAVIPreMeetingServiceEvent@ZOOMSDK@@ABQAV12@@?$_Default_allocator_traits@V?$allocator@U?$_Tree_node@PAVIPreMeetingServiceEvent@ZOOMSDK@@PAX@std@@@std@@@std@@SAXAAV?$allocator@U?$_Tree_node@PAVIPreMeetingServiceEvent@ZOOMSDK@@PAX@std@@@1@QAPAVIPreMeetingServiceEvent@ZOOMSDK@@ABQAV34@@Z 00401520 f i sdk_util.obj
 0001:00000520       ??$construct@PADABQAD@?$_Default_allocator_traits@V?$allocator@D@std@@@std@@SAXAAV?$allocator@D@1@QAPADABQAD@Z 00401520 f i sdk_demo_v2.obj
 0001:00000520       ??$construct@PAVIAuthServiceEvent@ZOOMSDK@@ABQAV12@@?$_Default_allocator_traits@V?$allocator@U?$_Tree_node@PAVIAuthServiceEvent@ZOOMSDK@@PAX@std@@@std@@@std@@SAXAAV?$allocator@U?$_Tree_node@PAVIAuthServiceEvent@ZOOMSDK@@PAX@std@@@1@QAPAVIAuthServiceEvent@ZOOMSDK@@ABQAV34@@Z 00401520 f i sdk_util.obj
 0001:00000520       ??$construct@PAVIClosedCaptionControllerEvent@ZOOMSDK@@ABQAV12@@?$_Default_allocator_traits@V?$allocator@U?$_Tree_node@PAVIClosedCaptionControllerEvent@ZOOMSDK@@PAX@std@@@std@@@std@@SAXAAV?$allocator@U?$_Tree_node@PAVIClosedCaptionControllerEvent@ZOOMSDK@@PAX@std@@@1@QAPAVIClosedCaptionControllerEvent@ZOOMSDK@@ABQAV34@@Z 00401520 f i sdk_util.obj
 0001:00000550       ??$destroy@PAVIMeetingServiceEvent@ZOOMSDK@@@?$_Default_allocator_traits@V?$allocator@U?$_Tree_node@PAVIMeetingServiceEvent@ZOOMSDK@@PAX@std@@@std@@@std@@SAXAAV?$allocator@U?$_Tree_node@PAVIMeetingServiceEvent@ZOOMSDK@@PAX@std@@@1@QAPAVIMeetingServiceEvent@ZOOMSDK@@@Z 00401550 f i sdk_util.obj
 0001:00000550       ??$_Adl_verify_range@V?$_Tree_const_iterator@V?$_Tree_val@U?$_Tree_simple_types@PAVIMeetingServiceEvent@ZOOMSDK@@@std@@@std@@@std@@V12@@std@@YAXABV?$_Tree_const_iterator@V?$_Tree_val@U?$_Tree_simple_types@PAVIMeetingServiceEvent@ZOOMSDK@@@std@@@std@@@0@0@Z 00401550 f i sdk_util.obj
 0001:00000550       ?__empty_global_delete@@YAXPAXI@Z 00401550 f i AnnotateBarWindow.obj
 0001:00000550       ?__global_delete@@YAXPAXI@Z 00401550 f i AnnotateBarWindow.obj
 0001:00000550       ??$_Destroy_range@V?$allocator@UtagMONITORINFO@@@std@@@std@@YAXPAUtagMONITORINFO@@0AAV?$allocator@UtagMONITORINFO@@@0@@Z 00401550 f i sdk_demo_v2.obj
 0001:00000550       ??$destroy@PAVIMeetingChatCtrlEvent@ZOOMSDK@@@?$_Default_allocator_traits@V?$allocator@U?$_Tree_node@PAVIMeetingChatCtrlEvent@ZOOMSDK@@PAX@std@@@std@@@std@@SAXAAV?$allocator@U?$_Tree_node@PAVIMeetingChatCtrlEvent@ZOOMSDK@@PAX@std@@@1@QAPAVIMeetingChatCtrlEvent@ZOOMSDK@@@Z 00401550 f i sdk_util.obj
 0001:00000550       ??$destroy@PAU?$_Tree_node@PAVIMeetingServiceEvent@ZOOMSDK@@PAX@std@@@?$_Default_allocator_traits@V?$allocator@U?$_Tree_node@PAVIMeetingServiceEvent@ZOOMSDK@@PAX@std@@@std@@@std@@SAXAAV?$allocator@U?$_Tree_node@PAVIMeetingServiceEvent@ZOOMSDK@@PAX@std@@@1@QAPAU?$_Tree_node@PAVIMeetingServiceEvent@ZOOMSDK@@PAX@1@@Z 00401550 f i sdk_util.obj
 0001:00000550       ??$destroy@PAD@?$_Default_allocator_traits@V?$allocator@D@std@@@std@@SAXAAV?$allocator@D@1@QAPAD@Z 00401550 f i sdk_demo_v2.obj
 0001:00000550       ??$destroy@PA_W@?$_Default_allocator_traits@V?$allocator@_W@std@@@std@@SAXAAV?$allocator@_W@1@QAPA_W@Z 00401550 f i AnnotateBarWindow.obj
 0001:00000550       ??$destroy@PAU?$_Tree_node@PAVIMeetingParticipantsCtrlEvent@ZOOMSDK@@PAX@std@@@?$_Default_allocator_traits@V?$allocator@U?$_Tree_node@PAVIMeetingParticipantsCtrlEvent@ZOOMSDK@@PAX@std@@@std@@@std@@SAXAAV?$allocator@U?$_Tree_node@PAVIMeetingParticipantsCtrlEvent@ZOOMSDK@@PAX@std@@@1@QAPAU?$_Tree_node@PAVIMeetingParticipantsCtrlEvent@ZOOMSDK@@PAX@1@@Z 00401550 f i sdk_util.obj
 0001:00000550       ??$destroy@PAU?$_Tree_node@PAVISDKInMeetingServiceMgrEvent@@PAX@std@@@?$_Default_allocator_traits@V?$allocator@U?$_Tree_node@PAVISDKInMeetingServiceMgrEvent@@PAX@std@@@std@@@std@@SAXAAV?$allocator@U?$_Tree_node@PAVISDKInMeetingServiceMgrEvent@@PAX@std@@@1@QAPAU?$_Tree_node@PAVISDKInMeetingServiceMgrEvent@@PAX@1@@Z 00401550 f i sdk_util.obj
 0001:00000550       ??$_Adl_verify_range@V?$_Tree_const_iterator@V?$_Tree_val@U?$_Tree_simple_types@PAVIMeetingParticipantsCtrlEvent@ZOOMSDK@@@std@@@std@@@std@@V12@@std@@YAXABV?$_Tree_const_iterator@V?$_Tree_val@U?$_Tree_simple_types@PAVIMeetingParticipantsCtrlEvent@ZOOMSDK@@@std@@@std@@@0@0@Z 00401550 f i sdk_util.obj
 0001:00000550       ??$destroy@PAVISDKInMeetingServiceMgrEvent@@@?$_Default_allocator_traits@V?$allocator@U?$_Tree_node@PAVISDKInMeetingServiceMgrEvent@@PAX@std@@@std@@@std@@SAXAAV?$allocator@U?$_Tree_node@PAVISDKInMeetingServiceMgrEvent@@PAX@std@@@1@QAPAVISDKInMeetingServiceMgrEvent@@@Z 00401550 f i sdk_util.obj
 0001:00000550       ??$destroy@H@?$_Default_allocator_traits@V?$allocator@U?$_List_node@HPAX@std@@@std@@@std@@SAXAAV?$allocator@U?$_List_node@HPAX@std@@@1@QAH@Z 00401550 f i participant_ui.obj
 0001:00000550       ??$_Destroy_range@V?$allocator@PAVIVirtualBGImageInfo@ZOOMSDK@@@std@@@std@@YAXPAPAVIVirtualBGImageInfo@ZOOMSDK@@0AAV?$allocator@PAVIVirtualBGImageInfo@ZOOMSDK@@@0@@Z 00401550 f i settings_ui.obj
 0001:00000550       ??$destroy@PAVIClosedCaptionControllerEvent@ZOOMSDK@@@?$_Default_allocator_traits@V?$allocator@U?$_Tree_node@PAVIClosedCaptionControllerEvent@ZOOMSDK@@PAX@std@@@std@@@std@@SAXAAV?$allocator@U?$_Tree_node@PAVIClosedCaptionControllerEvent@ZOOMSDK@@PAX@std@@@1@QAPAVIClosedCaptionControllerEvent@ZOOMSDK@@@Z 00401550 f i sdk_util.obj
 0001:00000550       ??$_Adl_verify_range@V?$_Tree_const_iterator@V?$_Tree_val@U?$_Tree_simple_types@PAVIMeetingChatCtrlEvent@ZOOMSDK@@@std@@@std@@@std@@V12@@std@@YAXABV?$_Tree_const_iterator@V?$_Tree_val@U?$_Tree_simple_types@PAVIMeetingChatCtrlEvent@ZOOMSDK@@@std@@@std@@@0@0@Z 00401550 f i sdk_util.obj
 0001:00000550       ??$destroy@U?$pair@$$CBIPAVIUserInfo@ZOOMSDK@@@std@@@?$_Default_allocator_traits@V?$allocator@U?$_Tree_node@U?$pair@$$CBIPAVIUserInfo@ZOOMSDK@@@std@@PAX@std@@@std@@@std@@SAXAAV?$allocator@U?$_Tree_node@U?$pair@$$CBIPAVIUserInfo@ZOOMSDK@@@std@@PAX@std@@@1@QAU?$pair@$$CBIPAVIUserInfo@ZOOMSDK@@@1@@Z 00401550 f i user_manager.obj
 0001:00000550       ??$_Adl_verify_range@V?$_Tree_const_iterator@V?$_Tree_val@U?$_Tree_simple_types@PAVISDKInMeetingServiceMgrEvent@@@std@@@std@@@std@@V12@@std@@YAXABV?$_Tree_const_iterator@V?$_Tree_val@U?$_Tree_simple_types@PAVISDKInMeetingServiceMgrEvent@@@std@@@std@@@0@0@Z 00401550 f i sdk_util.obj
 0001:00000550       ??$destroy@PAVIUserInfo@ZOOMSDK@@@?$_Default_allocator_traits@V?$allocator@PAVIUserInfo@ZOOMSDK@@@std@@@std@@SAXAAV?$allocator@PAVIUserInfo@ZOOMSDK@@@1@QAPAVIUserInfo@ZOOMSDK@@@Z 00401550 f i user_manager.obj
 0001:00000550       ??$_Adl_verify_range@V?$_Tree_const_iterator@V?$_Tree_val@U?$_Tree_simple_types@PAVIClosedCaptionControllerEvent@ZOOMSDK@@@std@@@std@@@std@@V12@@std@@YAXABV?$_Tree_const_iterator@V?$_Tree_val@U?$_Tree_simple_types@PAVIClosedCaptionControllerEvent@ZOOMSDK@@@std@@@std@@@0@0@Z 00401550 f i sdk_util.obj
 0001:00000550       ??$destroy@PAU?$_Tree_node@PAVIClosedCaptionControllerEvent@ZOOMSDK@@PAX@std@@@?$_Default_allocator_traits@V?$allocator@U?$_Tree_node@PAVIClosedCaptionControllerEvent@ZOOMSDK@@PAX@std@@@std@@@std@@SAXAAV?$allocator@U?$_Tree_node@PAVIClosedCaptionControllerEvent@ZOOMSDK@@PAX@std@@@1@QAPAU?$_Tree_node@PAVIClosedCaptionControllerEvent@ZOOMSDK@@PAX@1@@Z 00401550 f i sdk_util.obj
 0001:00000550       ??$destroy@PAU?$_Tree_node@PAVIPreMeetingServiceEvent@ZOOMSDK@@PAX@std@@@?$_Default_allocator_traits@V?$allocator@U?$_Tree_node@PAVIPreMeetingServiceEvent@ZOOMSDK@@PAX@std@@@std@@@std@@SAXAAV?$allocator@U?$_Tree_node@PAVIPreMeetingServiceEvent@ZOOMSDK@@PAX@std@@@1@QAPAU?$_Tree_node@PAVIPreMeetingServiceEvent@ZOOMSDK@@PAX@1@@Z 00401550 f i sdk_util.obj
 0001:00000550       ??$destroy@PAVIAuthServiceEvent@ZOOMSDK@@@?$_Default_allocator_traits@V?$allocator@U?$_Tree_node@PAVIAuthServiceEvent@ZOOMSDK@@PAX@std@@@std@@@std@@SAXAAV?$allocator@U?$_Tree_node@PAVIAuthServiceEvent@ZOOMSDK@@PAX@std@@@1@QAPAVIAuthServiceEvent@ZOOMSDK@@@Z 00401550 f i sdk_util.obj
 0001:00000550       ??$_Pocca@V?$allocator@_W@std@@@std@@YAXAAV?$allocator@_W@0@ABV10@@Z 00401550 f i custom_ui_share_flow.obj
 0001:00000550       ??$destroy@PAU?$_Tree_node@U?$pair@$$CBIPAVIUserInfo@ZOOMSDK@@@std@@PAX@std@@@?$_Default_allocator_traits@V?$allocator@U?$_Tree_node@U?$pair@$$CBIPAVIUserInfo@ZOOMSDK@@@std@@PAX@std@@@std@@@std@@SAXAAV?$allocator@U?$_Tree_node@U?$pair@$$CBIPAVIUserInfo@ZOOMSDK@@@std@@PAX@std@@@1@QAPAU?$_Tree_node@U?$pair@$$CBIPAVIUserInfo@ZOOMSDK@@@std@@PAX@1@@Z 00401550 f i user_manager.obj
 0001:00000550       ??$destroy@PAU?$_List_node@HPAX@std@@@?$_Default_allocator_traits@V?$allocator@U?$_List_node@HPAX@std@@@std@@@std@@SAXAAV?$allocator@U?$_List_node@HPAX@std@@@1@QAPAU?$_List_node@HPAX@1@@Z 00401550 f i participant_ui.obj
 0001:00000550       ??$_Adl_verify_range@V?$_Tree_const_iterator@V?$_Tree_val@U?$_Tree_simple_types@PAVIAuthServiceEvent@ZOOMSDK@@@std@@@std@@@std@@V12@@std@@YAXABV?$_Tree_const_iterator@V?$_Tree_val@U?$_Tree_simple_types@PAVIAuthServiceEvent@ZOOMSDK@@@std@@@std@@@0@0@Z 00401550 f i sdk_util.obj
 0001:00000550       ??$_Destroy_range@V?$allocator@PAVIUserInfo@ZOOMSDK@@@std@@@std@@YAXPAPAVIUserInfo@ZOOMSDK@@0AAV?$allocator@PAVIUserInfo@ZOOMSDK@@@0@@Z 00401550 f i user_manager.obj
 0001:00000550       ??$_Adl_verify_range@V?$_Tree_const_iterator@V?$_Tree_val@U?$_Tree_simple_types@PAVIPreMeetingServiceEvent@ZOOMSDK@@@std@@@std@@@std@@V12@@std@@YAXABV?$_Tree_const_iterator@V?$_Tree_val@U?$_Tree_simple_types@PAVIPreMeetingServiceEvent@ZOOMSDK@@@std@@@std@@@0@0@Z 00401550 f i sdk_util.obj
 0001:00000550       ??$destroy@PAU?$_Tree_node@PAVIMeetingChatCtrlEvent@ZOOMSDK@@PAX@std@@@?$_Default_allocator_traits@V?$allocator@U?$_Tree_node@PAVIMeetingChatCtrlEvent@ZOOMSDK@@PAX@std@@@std@@@std@@SAXAAV?$allocator@U?$_Tree_node@PAVIMeetingChatCtrlEvent@ZOOMSDK@@PAX@std@@@1@QAPAU?$_Tree_node@PAVIMeetingChatCtrlEvent@ZOOMSDK@@PAX@1@@Z 00401550 f i sdk_util.obj
 0001:00000550       ??$destroy@PAU?$_Tree_node@PAVIMeetingVideoCtrlEvent@ZOOMSDK@@PAX@std@@@?$_Default_allocator_traits@V?$allocator@U?$_Tree_node@PAVIMeetingVideoCtrlEvent@ZOOMSDK@@PAX@std@@@std@@@std@@SAXAAV?$allocator@U?$_Tree_node@PAVIMeetingVideoCtrlEvent@ZOOMSDK@@PAX@std@@@1@QAPAU?$_Tree_node@PAVIMeetingVideoCtrlEvent@ZOOMSDK@@PAX@1@@Z 00401550 f i sdk_util.obj
 0001:00000550       ??$destroy@PAVIMeetingVideoCtrlEvent@ZOOMSDK@@@?$_Default_allocator_traits@V?$allocator@U?$_Tree_node@PAVIMeetingVideoCtrlEvent@ZOOMSDK@@PAX@std@@@std@@@std@@SAXAAV?$allocator@U?$_Tree_node@PAVIMeetingVideoCtrlEvent@ZOOMSDK@@PAX@std@@@1@QAPAVIMeetingVideoCtrlEvent@ZOOMSDK@@@Z 00401550 f i sdk_util.obj
 0001:00000550       ??$destroy@PAVIPreMeetingServiceEvent@ZOOMSDK@@@?$_Default_allocator_traits@V?$allocator@U?$_Tree_node@PAVIPreMeetingServiceEvent@ZOOMSDK@@PAX@std@@@std@@@std@@SAXAAV?$allocator@U?$_Tree_node@PAVIPreMeetingServiceEvent@ZOOMSDK@@PAX@std@@@1@QAPAVIPreMeetingServiceEvent@ZOOMSDK@@@Z 00401550 f i sdk_util.obj
 0001:00000550       ??$_Adl_verify_range@V?$_Tree_const_iterator@V?$_Tree_val@U?$_Tree_simple_types@PAVIMeetingVideoCtrlEvent@ZOOMSDK@@@std@@@std@@@std@@V12@@std@@YAXABV?$_Tree_const_iterator@V?$_Tree_val@U?$_Tree_simple_types@PAVIMeetingVideoCtrlEvent@ZOOMSDK@@@std@@@std@@@0@0@Z 00401550 f i sdk_util.obj
 0001:00000550       ??$destroy@PAVIMeetingParticipantsCtrlEvent@ZOOMSDK@@@?$_Default_allocator_traits@V?$allocator@U?$_Tree_node@PAVIMeetingParticipantsCtrlEvent@ZOOMSDK@@PAX@std@@@std@@@std@@SAXAAV?$allocator@U?$_Tree_node@PAVIMeetingParticipantsCtrlEvent@ZOOMSDK@@PAX@std@@@1@QAPAVIMeetingParticipantsCtrlEvent@ZOOMSDK@@@Z 00401550 f i sdk_util.obj
 0001:00000550       ??$destroy@PAU?$_Tree_node@PAVIAuthServiceEvent@ZOOMSDK@@PAX@std@@@?$_Default_allocator_traits@V?$allocator@U?$_Tree_node@PAVIAuthServiceEvent@ZOOMSDK@@PAX@std@@@std@@@std@@SAXAAV?$allocator@U?$_Tree_node@PAVIAuthServiceEvent@ZOOMSDK@@PAX@std@@@1@QAPAU?$_Tree_node@PAVIAuthServiceEvent@ZOOMSDK@@PAX@1@@Z 00401550 f i sdk_util.obj
 0001:00000560       ??0?$_String_val@U?$_Simple_types@D@std@@@std@@QAE@XZ 00401560 f i sdk_demo_v2.obj
 0001:00000560       ??0?$_String_val@U?$_Simple_types@_W@std@@@std@@QAE@XZ 00401560 f i AnnotateBarWindow.obj
 0001:00000590       ?_Get_second@?$_Compressed_pair@V?$allocator@U?$_Tree_node@PAVIPreMeetingServiceEvent@ZOOMSDK@@PAX@std@@@std@@V?$_Tree_val@U?$_Tree_simple_types@PAVIPreMeetingServiceEvent@ZOOMSDK@@@std@@@2@$00@std@@QAEAAV?$_Tree_val@U?$_Tree_simple_types@PAVIPreMeetingServiceEvent@ZOOMSDK@@@std@@@2@XZ 00401590 f i sdk_util.obj
 0001:00000590       ?_Get_first@?$_Compressed_pair@U?$less@PAVIMeetingServiceEvent@ZOOMSDK@@@std@@V?$_Compressed_pair@V?$allocator@U?$_Tree_node@PAVIMeetingServiceEvent@ZOOMSDK@@PAX@std@@@std@@V?$_Tree_val@U?$_Tree_simple_types@PAVIMeetingServiceEvent@ZOOMSDK@@@std@@@2@$00@2@$00@std@@QBEABU?$less@PAVIMeetingServiceEvent@ZOOMSDK@@@2@XZ 00401590 f i sdk_util.obj
 0001:00000590       ?_Get_first@?$_Compressed_pair@U?$less@PAVIMeetingVideoCtrlEvent@ZOOMSDK@@@std@@V?$_Compressed_pair@V?$allocator@U?$_Tree_node@PAVIMeetingVideoCtrlEvent@ZOOMSDK@@PAX@std@@@std@@V?$_Tree_val@U?$_Tree_simple_types@PAVIMeetingVideoCtrlEvent@ZOOMSDK@@@std@@@2@$00@2@$00@std@@QAEAAU?$less@PAVIMeetingVideoCtrlEvent@ZOOMSDK@@@2@XZ 00401590 f i sdk_util.obj
 0001:00000590       ?_Get_first@?$_Compressed_pair@V?$allocator@U?$_Tree_node@U?$pair@$$CBIPAVIUserInfo@ZOOMSDK@@@std@@PAX@std@@@std@@V?$_Tree_val@U?$_Tree_simple_types@U?$pair@$$CBIPAVIUserInfo@ZOOMSDK@@@std@@@std@@@2@$00@std@@QAEAAV?$allocator@U?$_Tree_node@U?$pair@$$CBIPAVIUserInfo@ZOOMSDK@@@std@@PAX@std@@@2@XZ 00401590 f i user_manager.obj
 0001:00000590       ?_Get_second@?$_Compressed_pair@V?$allocator@PAVIVirtualBGImageInfo@ZOOMSDK@@@std@@V?$_Vector_val@U?$_Simple_types@PAVIVirtualBGImageInfo@ZOOMSDK@@@std@@@2@$00@std@@QAEAAV?$_Vector_val@U?$_Simple_types@PAVIVirtualBGImageInfo@ZOOMSDK@@@std@@@2@XZ 00401590 f i settings_ui.obj
 0001:00000590       ?_Get_second@?$_Compressed_pair@U?$less@PAVIMeetingChatCtrlEvent@ZOOMSDK@@@std@@V?$_Compressed_pair@V?$allocator@U?$_Tree_node@PAVIMeetingChatCtrlEvent@ZOOMSDK@@PAX@std@@@std@@V?$_Tree_val@U?$_Tree_simple_types@PAVIMeetingChatCtrlEvent@ZOOMSDK@@@std@@@2@$00@2@$00@std@@QAEAAV?$_Compressed_pair@V?$allocator@U?$_Tree_node@PAVIMeetingChatCtrlEvent@ZOOMSDK@@PAX@std@@@std@@V?$_Tree_val@U?$_Tree_simple_types@PAVIMeetingChatCtrlEvent@ZOOMSDK@@@std@@@2@$00@2@XZ 00401590 f i sdk_util.obj
 0001:00000590       ?_Get_second@?$_Compressed_pair@V?$allocator@U?$_Tree_node@PAVIClosedCaptionControllerEvent@ZOOMSDK@@PAX@std@@@std@@V?$_Tree_val@U?$_Tree_simple_types@PAVIClosedCaptionControllerEvent@ZOOMSDK@@@std@@@2@$00@std@@QAEAAV?$_Tree_val@U?$_Tree_simple_types@PAVIClosedCaptionControllerEvent@ZOOMSDK@@@std@@@2@XZ 00401590 f i sdk_util.obj
 0001:00000590       ?_Get_first@?$_Compressed_pair@V?$allocator@U?$_List_node@HPAX@std@@@std@@V?$_List_val@U?$_List_simple_types@H@std@@@2@$00@std@@QAEAAV?$allocator@U?$_List_node@HPAX@std@@@2@XZ 00401590 f i participant_ui.obj
 0001:00000590       ?_Get_second@?$_Compressed_pair@V?$allocator@U?$_Tree_node@PAVIMeetingParticipantsCtrlEvent@ZOOMSDK@@PAX@std@@@std@@V?$_Tree_val@U?$_Tree_simple_types@PAVIMeetingParticipantsCtrlEvent@ZOOMSDK@@@std@@@2@$00@std@@QBEABV?$_Tree_val@U?$_Tree_simple_types@PAVIMeetingParticipantsCtrlEvent@ZOOMSDK@@@std@@@2@XZ 00401590 f i sdk_util.obj
 0001:00000590       ?_Get_second@?$_Compressed_pair@V?$allocator@U?$_Tree_node@PAVIAuthServiceEvent@ZOOMSDK@@PAX@std@@@std@@V?$_Tree_val@U?$_Tree_simple_types@PAVIAuthServiceEvent@ZOOMSDK@@@std@@@2@$00@std@@QAEAAV?$_Tree_val@U?$_Tree_simple_types@PAVIAuthServiceEvent@ZOOMSDK@@@std@@@2@XZ 00401590 f i sdk_util.obj
 0001:00000590       ??0CMoreFeaturesWorkflow@@QAE@XZ 00401590 f i more_features_workflow.obj
 0001:00000590       ??0?$allocator@PAVIVirtualBGImageInfo@ZOOMSDK@@@std@@QAE@XZ 00401590 f i settings_ui.obj
 0001:00000590       ?_Get_second@?$_Compressed_pair@V?$allocator@PAVIUserInfo@ZOOMSDK@@@std@@V?$_Vector_val@U?$_Simple_types@PAVIUserInfo@ZOOMSDK@@@std@@@2@$00@std@@QBEABV?$_Vector_val@U?$_Simple_types@PAVIUserInfo@ZOOMSDK@@@std@@@2@XZ 00401590 f i user_manager.obj
 0001:00000590       ?_Get_first@?$_Compressed_pair@U?$less@I@std@@V?$_Compressed_pair@V?$allocator@U?$_Tree_node@U?$pair@$$CBIPAVIUserInfo@ZOOMSDK@@@std@@PAX@std@@@std@@V?$_Tree_val@U?$_Tree_simple_types@U?$pair@$$CBIPAVIUserInfo@ZOOMSDK@@@std@@@std@@@2@$00@2@$00@std@@QBEABU?$less@I@2@XZ 00401590 f i user_manager.obj
 0001:00000590       ?_Get_second@?$_Compressed_pair@U?$less@PAVIMeetingParticipantsCtrlEvent@ZOOMSDK@@@std@@V?$_Compressed_pair@V?$allocator@U?$_Tree_node@PAVIMeetingParticipantsCtrlEvent@ZOOMSDK@@PAX@std@@@std@@V?$_Tree_val@U?$_Tree_simple_types@PAVIMeetingParticipantsCtrlEvent@ZOOMSDK@@@std@@@2@$00@2@$00@std@@QAEAAV?$_Compressed_pair@V?$allocator@U?$_Tree_node@PAVIMeetingParticipantsCtrlEvent@ZOOMSDK@@PAX@std@@@std@@V?$_Tree_val@U?$_Tree_simple_types@PAVIMeetingParticipantsCtrlEvent@ZOOMSDK@@@std@@@2@$00@2@XZ 00401590 f i sdk_util.obj
 0001:00000590       ?_Get_second@?$_Compressed_pair@U?$less@PAVIAuthServiceEvent@ZOOMSDK@@@std@@V?$_Compressed_pair@V?$allocator@U?$_Tree_node@PAVIAuthServiceEvent@ZOOMSDK@@PAX@std@@@std@@V?$_Tree_val@U?$_Tree_simple_types@PAVIAuthServiceEvent@ZOOMSDK@@@std@@@2@$00@2@$00@std@@QBEABV?$_Compressed_pair@V?$allocator@U?$_Tree_node@PAVIAuthServiceEvent@ZOOMSDK@@PAX@std@@@std@@V?$_Tree_val@U?$_Tree_simple_types@PAVIAuthServiceEvent@ZOOMSDK@@@std@@@2@$00@2@XZ 00401590 f i sdk_util.obj
 0001:00000590       ?_Get_first@?$_Compressed_pair@U?$less@PAVIMeetingChatCtrlEvent@ZOOMSDK@@@std@@V?$_Compressed_pair@V?$allocator@U?$_Tree_node@PAVIMeetingChatCtrlEvent@ZOOMSDK@@PAX@std@@@std@@V?$_Tree_val@U?$_Tree_simple_types@PAVIMeetingChatCtrlEvent@ZOOMSDK@@@std@@@2@$00@2@$00@std@@QAEAAU?$less@PAVIMeetingChatCtrlEvent@ZOOMSDK@@@2@XZ 00401590 f i sdk_util.obj
 0001:00000590       ?_Get_second@?$_Compressed_pair@U?$less@PAVISDKInMeetingServiceMgrEvent@@@std@@V?$_Compressed_pair@V?$allocator@U?$_Tree_node@PAVISDKInMeetingServiceMgrEvent@@PAX@std@@@std@@V?$_Tree_val@U?$_Tree_simple_types@PAVISDKInMeetingServiceMgrEvent@@@std@@@2@$00@2@$00@std@@QBEABV?$_Compressed_pair@V?$allocator@U?$_Tree_node@PAVISDKInMeetingServiceMgrEvent@@PAX@std@@@std@@V?$_Tree_val@U?$_Tree_simple_types@PAVISDKInMeetingServiceMgrEvent@@@std@@@2@$00@2@XZ 00401590 f i sdk_util.obj
 0001:00000590       ?_Get_second@?$_Compressed_pair@U?$less@PAVISDKInMeetingServiceMgrEvent@@@std@@V?$_Compressed_pair@V?$allocator@U?$_Tree_node@PAVISDKInMeetingServiceMgrEvent@@PAX@std@@@std@@V?$_Tree_val@U?$_Tree_simple_types@PAVISDKInMeetingServiceMgrEvent@@@std@@@2@$00@2@$00@std@@QAEAAV?$_Compressed_pair@V?$allocator@U?$_Tree_node@PAVISDKInMeetingServiceMgrEvent@@PAX@std@@@std@@V?$_Tree_val@U?$_Tree_simple_types@PAVISDKInMeetingServiceMgrEvent@@@std@@@2@$00@2@XZ 00401590 f i sdk_util.obj
 0001:00000590       ?_Get_second@?$_Compressed_pair@U?$less@PAVIClosedCaptionControllerEvent@ZOOMSDK@@@std@@V?$_Compressed_pair@V?$allocator@U?$_Tree_node@PAVIClosedCaptionControllerEvent@ZOOMSDK@@PAX@std@@@std@@V?$_Tree_val@U?$_Tree_simple_types@PAVIClosedCaptionControllerEvent@ZOOMSDK@@@std@@@2@$00@2@$00@std@@QAEAAV?$_Compressed_pair@V?$allocator@U?$_Tree_node@PAVIClosedCaptionControllerEvent@ZOOMSDK@@PAX@std@@@std@@V?$_Tree_val@U?$_Tree_simple_types@PAVIClosedCaptionControllerEvent@ZOOMSDK@@@std@@@2@$00@2@XZ 00401590 f i sdk_util.obj
 0001:00000590       ?_Get_first@?$_Compressed_pair@V?$allocator@U?$_Tree_node@PAVIMeetingParticipantsCtrlEvent@ZOOMSDK@@PAX@std@@@std@@V?$_Tree_val@U?$_Tree_simple_types@PAVIMeetingParticipantsCtrlEvent@ZOOMSDK@@@std@@@2@$00@std@@QAEAAV?$allocator@U?$_Tree_node@PAVIMeetingParticipantsCtrlEvent@ZOOMSDK@@PAX@std@@@2@XZ 00401590 f i sdk_util.obj
 0001:00000590       ?_Get_first@?$_Compressed_pair@V?$allocator@U?$_Tree_node@PAVIMeetingServiceEvent@ZOOMSDK@@PAX@std@@@std@@V?$_Tree_val@U?$_Tree_simple_types@PAVIMeetingServiceEvent@ZOOMSDK@@@std@@@2@$00@std@@QAEAAV?$allocator@U?$_Tree_node@PAVIMeetingServiceEvent@ZOOMSDK@@PAX@std@@@2@XZ 00401590 f i sdk_util.obj
 0001:00000590       ?_Get_first@?$_Compressed_pair@V?$allocator@UtagMONITORINFO@@@std@@V?$_Vector_val@U?$_Simple_types@UtagMONITORINFO@@@std@@@2@$00@std@@QBEABV?$allocator@UtagMONITORINFO@@@2@XZ 00401590 f i sdk_demo_v2.obj
 0001:00000590       ?_Get_first@?$_Compressed_pair@V?$allocator@U?$_Tree_node@PAVIPreMeetingServiceEvent@ZOOMSDK@@PAX@std@@@std@@V?$_Tree_val@U?$_Tree_simple_types@PAVIPreMeetingServiceEvent@ZOOMSDK@@@std@@@2@$00@std@@QBEABV?$allocator@U?$_Tree_node@PAVIPreMeetingServiceEvent@ZOOMSDK@@PAX@std@@@2@XZ 00401590 f i sdk_util.obj
 0001:00000590       ?_Get_second@?$_Compressed_pair@V?$allocator@V?$basic_string@_WU?$char_traits@_W@std@@V?$allocator@_W@2@@std@@@std@@V?$_Vector_val@U?$_Simple_types@V?$basic_string@_WU?$char_traits@_W@std@@V?$allocator@_W@2@@std@@@std@@@2@$00@std@@QAEAAV?$_Vector_val@U?$_Simple_types@V?$basic_string@_WU?$char_traits@_W@std@@V?$allocator@_W@2@@std@@@std@@@2@XZ 00401590 f i custom_ui_share_flow.obj
 0001:00000590       ?_Get_second@?$_Compressed_pair@U?$less@PAVIMeetingServiceEvent@ZOOMSDK@@@std@@V?$_Compressed_pair@V?$allocator@U?$_Tree_node@PAVIMeetingServiceEvent@ZOOMSDK@@PAX@std@@@std@@V?$_Tree_val@U?$_Tree_simple_types@PAVIMeetingServiceEvent@ZOOMSDK@@@std@@@2@$00@2@$00@std@@QBEABV?$_Compressed_pair@V?$allocator@U?$_Tree_node@PAVIMeetingServiceEvent@ZOOMSDK@@PAX@std@@@std@@V?$_Tree_val@U?$_Tree_simple_types@PAVIMeetingServiceEvent@ZOOMSDK@@@std@@@2@$00@2@XZ 00401590 f i sdk_util.obj
 0001:00000590       ?_Get_second@?$_Compressed_pair@V?$allocator@U?$_Tree_node@PAVIMeetingVideoCtrlEvent@ZOOMSDK@@PAX@std@@@std@@V?$_Tree_val@U?$_Tree_simple_types@PAVIMeetingVideoCtrlEvent@ZOOMSDK@@@std@@@2@$00@std@@QBEABV?$_Tree_val@U?$_Tree_simple_types@PAVIMeetingVideoCtrlEvent@ZOOMSDK@@@std@@@2@XZ 00401590 f i sdk_util.obj
 0001:00000590       ?_Get_second@?$_Compressed_pair@U?$less@PAVIPreMeetingServiceEvent@ZOOMSDK@@@std@@V?$_Compressed_pair@V?$allocator@U?$_Tree_node@PAVIPreMeetingServiceEvent@ZOOMSDK@@PAX@std@@@std@@V?$_Tree_val@U?$_Tree_simple_types@PAVIPreMeetingServiceEvent@ZOOMSDK@@@std@@@2@$00@2@$00@std@@QAEAAV?$_Compressed_pair@V?$allocator@U?$_Tree_node@PAVIPreMeetingServiceEvent@ZOOMSDK@@PAX@std@@@std@@V?$_Tree_val@U?$_Tree_simple_types@PAVIPreMeetingServiceEvent@ZOOMSDK@@@std@@@2@$00@2@XZ 00401590 f i sdk_util.obj
 0001:00000590       ?_Get_second@?$_Compressed_pair@V?$allocator@U?$_Tree_node@PAVIAuthServiceEvent@ZOOMSDK@@PAX@std@@@std@@V?$_Tree_val@U?$_Tree_simple_types@PAVIAuthServiceEvent@ZOOMSDK@@@std@@@2@$00@std@@QBEABV?$_Tree_val@U?$_Tree_simple_types@PAVIAuthServiceEvent@ZOOMSDK@@@std@@@2@XZ 00401590 f i sdk_util.obj
 0001:00000590       ?_Get_first@?$_Compressed_pair@V?$allocator@PAVIVirtualBGImageInfo@ZOOMSDK@@@std@@V?$_Vector_val@U?$_Simple_types@PAVIVirtualBGImageInfo@ZOOMSDK@@@std@@@2@$00@std@@QAEAAV?$allocator@PAVIVirtualBGImageInfo@ZOOMSDK@@@2@XZ 00401590 f i settings_ui.obj
 0001:00000590       ?_Get_first@?$_Compressed_pair@V?$allocator@U?$_Tree_node@PAVIClosedCaptionControllerEvent@ZOOMSDK@@PAX@std@@@std@@V?$_Tree_val@U?$_Tree_simple_types@PAVIClosedCaptionControllerEvent@ZOOMSDK@@@std@@@2@$00@std@@QBEABV?$allocator@U?$_Tree_node@PAVIClosedCaptionControllerEvent@ZOOMSDK@@PAX@std@@@2@XZ 00401590 f i sdk_util.obj
 0001:00000590       ?_Get_first@?$_Compressed_pair@V?$allocator@U?$_Tree_node@PAVIAuthServiceEvent@ZOOMSDK@@PAX@std@@@std@@V?$_Tree_val@U?$_Tree_simple_types@PAVIAuthServiceEvent@ZOOMSDK@@@std@@@2@$00@std@@QAEAAV?$allocator@U?$_Tree_node@PAVIAuthServiceEvent@ZOOMSDK@@PAX@std@@@2@XZ 00401590 f i sdk_util.obj
 0001:00000590       ?_Get_first@?$_Compressed_pair@V?$allocator@V?$basic_string@_WU?$char_traits@_W@std@@V?$allocator@_W@2@@std@@@std@@V?$_Vector_val@U?$_Simple_types@V?$basic_string@_WU?$char_traits@_W@std@@V?$allocator@_W@2@@std@@@std@@@2@$00@std@@QAEAAV?$allocator@V?$basic_string@_WU?$char_traits@_W@std@@V?$allocator@_W@2@@std@@@2@XZ 00401590 f i custom_ui_share_flow.obj
 0001:00000590       ?_Get_first@?$_Compressed_pair@V?$allocator@U?$_Tree_node@PAVIPreMeetingServiceEvent@ZOOMSDK@@PAX@std@@@std@@V?$_Tree_val@U?$_Tree_simple_types@PAVIPreMeetingServiceEvent@ZOOMSDK@@@std@@@2@$00@std@@QAEAAV?$allocator@U?$_Tree_node@PAVIPreMeetingServiceEvent@ZOOMSDK@@PAX@std@@@2@XZ 00401590 f i sdk_util.obj
 0001:00000590       ?_Get_second@?$_Compressed_pair@V?$allocator@U?$_Tree_node@PAVISDKInMeetingServiceMgrEvent@@PAX@std@@@std@@V?$_Tree_val@U?$_Tree_simple_types@PAVISDKInMeetingServiceMgrEvent@@@std@@@2@$00@std@@QBEABV?$_Tree_val@U?$_Tree_simple_types@PAVISDKInMeetingServiceMgrEvent@@@std@@@2@XZ 00401590 f i sdk_util.obj
 0001:00000590       ?_Get_second@?$_Compressed_pair@V?$allocator@_W@std@@V?$_String_val@U?$_Simple_types@_W@std@@@2@$00@std@@QBEABV?$_String_val@U?$_Simple_types@_W@std@@@2@XZ 00401590 f i AnnotateBarWindow.obj
 0001:00000590       ?_Get_second@?$_Compressed_pair@U?$less@PAVIMeetingParticipantsCtrlEvent@ZOOMSDK@@@std@@V?$_Compressed_pair@V?$allocator@U?$_Tree_node@PAVIMeetingParticipantsCtrlEvent@ZOOMSDK@@PAX@std@@@std@@V?$_Tree_val@U?$_Tree_simple_types@PAVIMeetingParticipantsCtrlEvent@ZOOMSDK@@@std@@@2@$00@2@$00@std@@QBEABV?$_Compressed_pair@V?$allocator@U?$_Tree_node@PAVIMeetingParticipantsCtrlEvent@ZOOMSDK@@PAX@std@@@std@@V?$_Tree_val@U?$_Tree_simple_types@PAVIMeetingParticipantsCtrlEvent@ZOOMSDK@@@std@@@2@$00@2@XZ 00401590 f i sdk_util.obj
 0001:00000590       ?_Get_first@?$_Compressed_pair@U?$less@PAVIMeetingServiceEvent@ZOOMSDK@@@std@@V?$_Compressed_pair@V?$allocator@U?$_Tree_node@PAVIMeetingServiceEvent@ZOOMSDK@@PAX@std@@@std@@V?$_Tree_val@U?$_Tree_simple_types@PAVIMeetingServiceEvent@ZOOMSDK@@@std@@@2@$00@2@$00@std@@QAEAAU?$less@PAVIMeetingServiceEvent@ZOOMSDK@@@2@XZ 00401590 f i sdk_util.obj
 0001:00000590       ?_Get_first@?$_Compressed_pair@V?$allocator@V?$basic_string@_WU?$char_traits@_W@std@@V?$allocator@_W@2@@std@@@std@@V?$_Vector_val@U?$_Simple_types@V?$basic_string@_WU?$char_traits@_W@std@@V?$allocator@_W@2@@std@@@std@@@2@$00@std@@QBEABV?$allocator@V?$basic_string@_WU?$char_traits@_W@std@@V?$allocator@_W@2@@std@@@2@XZ 00401590 f i custom_ui_share_flow.obj
 0001:00000590       ??0?$allocator@U?$_Tree_node@U?$pair@$$CBIPAVIUserInfo@ZOOMSDK@@@std@@PAX@std@@@std@@QAE@XZ 00401590 f i user_manager.obj
 0001:00000590       ?_Get_second@?$_Compressed_pair@V?$allocator@U?$_Tree_node@U?$pair@$$CBIPAVIUserInfo@ZOOMSDK@@@std@@PAX@std@@@std@@V?$_Tree_val@U?$_Tree_simple_types@U?$pair@$$CBIPAVIUserInfo@ZOOMSDK@@@std@@@std@@@2@$00@std@@QAEAAV?$_Tree_val@U?$_Tree_simple_types@U?$pair@$$CBIPAVIUserInfo@ZOOMSDK@@@std@@@std@@@2@XZ 00401590 f i user_manager.obj
 0001:00000590       ?_Get_first@?$_Compressed_pair@U?$less@PAVIMeetingChatCtrlEvent@ZOOMSDK@@@std@@V?$_Compressed_pair@V?$allocator@U?$_Tree_node@PAVIMeetingChatCtrlEvent@ZOOMSDK@@PAX@std@@@std@@V?$_Tree_val@U?$_Tree_simple_types@PAVIMeetingChatCtrlEvent@ZOOMSDK@@@std@@@2@$00@2@$00@std@@QBEABU?$less@PAVIMeetingChatCtrlEvent@ZOOMSDK@@@2@XZ 00401590 f i sdk_util.obj
 0001:00000590       ?_Get_first@?$_Compressed_pair@V?$allocator@U?$_Tree_node@PAVIClosedCaptionControllerEvent@ZOOMSDK@@PAX@std@@@std@@V?$_Tree_val@U?$_Tree_simple_types@PAVIClosedCaptionControllerEvent@ZOOMSDK@@@std@@@2@$00@std@@QAEAAV?$allocator@U?$_Tree_node@PAVIClosedCaptionControllerEvent@ZOOMSDK@@PAX@std@@@2@XZ 00401590 f i sdk_util.obj
 0001:00000590       ?_Get_second@?$_Compressed_pair@V?$allocator@PAVIUserInfo@ZOOMSDK@@@std@@V?$_Vector_val@U?$_Simple_types@PAVIUserInfo@ZOOMSDK@@@std@@@2@$00@std@@QAEAAV?$_Vector_val@U?$_Simple_types@PAVIUserInfo@ZOOMSDK@@@std@@@2@XZ 00401590 f i user_manager.obj
 0001:00000590       ??0?$allocator@U?$_List_node@HPAX@std@@@std@@QAE@XZ 00401590 f i participant_ui.obj
 0001:00000590       ?_Get_first@?$_Compressed_pair@V?$allocator@U?$_Tree_node@PAVIMeetingServiceEvent@ZOOMSDK@@PAX@std@@@std@@V?$_Tree_val@U?$_Tree_simple_types@PAVIMeetingServiceEvent@ZOOMSDK@@@std@@@2@$00@std@@QBEABV?$allocator@U?$_Tree_node@PAVIMeetingServiceEvent@ZOOMSDK@@PAX@std@@@2@XZ 00401590 f i sdk_util.obj
 0001:00000590       ?_Get_second@?$_Compressed_pair@U?$less@PAVIPreMeetingServiceEvent@ZOOMSDK@@@std@@V?$_Compressed_pair@V?$allocator@U?$_Tree_node@PAVIPreMeetingServiceEvent@ZOOMSDK@@PAX@std@@@std@@V?$_Tree_val@U?$_Tree_simple_types@PAVIPreMeetingServiceEvent@ZOOMSDK@@@std@@@2@$00@2@$00@std@@QBEABV?$_Compressed_pair@V?$allocator@U?$_Tree_node@PAVIPreMeetingServiceEvent@ZOOMSDK@@PAX@std@@@std@@V?$_Tree_val@U?$_Tree_simple_types@PAVIPreMeetingServiceEvent@ZOOMSDK@@@std@@@2@$00@2@XZ 00401590 f i sdk_util.obj
 0001:00000590       ?_Get_second@?$_Compressed_pair@V?$allocator@U?$_List_node@HPAX@std@@@std@@V?$_List_val@U?$_List_simple_types@H@std@@@2@$00@std@@QAEAAV?$_List_val@U?$_List_simple_types@H@std@@@2@XZ 00401590 f i participant_ui.obj
 0001:00000590       ?_Get_first@?$_Compressed_pair@V?$allocator@U?$_List_node@HPAX@std@@@std@@V?$_List_val@U?$_List_simple_types@H@std@@@2@$00@std@@QBEABV?$allocator@U?$_List_node@HPAX@std@@@2@XZ 00401590 f i participant_ui.obj
 0001:00000590       ?_Get_first@?$_Compressed_pair@V?$allocator@U?$_Tree_node@PAVIAuthServiceEvent@ZOOMSDK@@PAX@std@@@std@@V?$_Tree_val@U?$_Tree_simple_types@PAVIAuthServiceEvent@ZOOMSDK@@@std@@@2@$00@std@@QBEABV?$allocator@U?$_Tree_node@PAVIAuthServiceEvent@ZOOMSDK@@PAX@std@@@2@XZ 00401590 f i sdk_util.obj
 0001:00000590       ?_Get_first@?$_Compressed_pair@V?$allocator@PAVIVirtualBGImageInfo@ZOOMSDK@@@std@@V?$_Vector_val@U?$_Simple_types@PAVIVirtualBGImageInfo@ZOOMSDK@@@std@@@2@$00@std@@QBEABV?$allocator@PAVIVirtualBGImageInfo@ZOOMSDK@@@2@XZ 00401590 f i settings_ui.obj
 0001:00000590       ??0?$allocator@U?$_Tree_node@PAVIMeetingParticipantsCtrlEvent@ZOOMSDK@@PAX@std@@@std@@QAE@XZ 00401590 f i sdk_util.obj
 0001:00000590       ?_Get_first@?$_Compressed_pair@V?$allocator@U?$_Tree_node@PAVIMeetingParticipantsCtrlEvent@ZOOMSDK@@PAX@std@@@std@@V?$_Tree_val@U?$_Tree_simple_types@PAVIMeetingParticipantsCtrlEvent@ZOOMSDK@@@std@@@2@$00@std@@QBEABV?$allocator@U?$_Tree_node@PAVIMeetingParticipantsCtrlEvent@ZOOMSDK@@PAX@std@@@2@XZ 00401590 f i sdk_util.obj
 0001:00000590       ??0?$allocator@U?$_Tree_node@PAVIClosedCaptionControllerEvent@ZOOMSDK@@PAX@std@@@std@@QAE@XZ 00401590 f i sdk_util.obj
 0001:00000590       ?_Get_first@?$_Compressed_pair@V?$allocator@D@std@@V?$_String_val@U?$_Simple_types@D@std@@@2@$00@std@@QAEAAV?$allocator@D@2@XZ 00401590 f i sdk_demo_v2.obj
 0001:00000590       ??0?$allocator@UtagMONITORINFO@@@std@@QAE@XZ 00401590 f i sdk_demo_v2.obj
 0001:00000590       ?_Get_second@?$_Compressed_pair@V?$allocator@PAVIVirtualBGImageInfo@ZOOMSDK@@@std@@V?$_Vector_val@U?$_Simple_types@PAVIVirtualBGImageInfo@ZOOMSDK@@@std@@@2@$00@std@@QBEABV?$_Vector_val@U?$_Simple_types@PAVIVirtualBGImageInfo@ZOOMSDK@@@std@@@2@XZ 00401590 f i settings_ui.obj
 0001:00000590       ?_Get_first@?$_Compressed_pair@U?$less@PAVIPreMeetingServiceEvent@ZOOMSDK@@@std@@V?$_Compressed_pair@V?$allocator@U?$_Tree_node@PAVIPreMeetingServiceEvent@ZOOMSDK@@PAX@std@@@std@@V?$_Tree_val@U?$_Tree_simple_types@PAVIPreMeetingServiceEvent@ZOOMSDK@@@std@@@2@$00@2@$00@std@@QBEABU?$less@PAVIPreMeetingServiceEvent@ZOOMSDK@@@2@XZ 00401590 f i sdk_util.obj
 0001:00000590       ?_Get_second@?$_Compressed_pair@V?$allocator@U?$_Tree_node@PAVIMeetingServiceEvent@ZOOMSDK@@PAX@std@@@std@@V?$_Tree_val@U?$_Tree_simple_types@PAVIMeetingServiceEvent@ZOOMSDK@@@std@@@2@$00@std@@QBEABV?$_Tree_val@U?$_Tree_simple_types@PAVIMeetingServiceEvent@ZOOMSDK@@@std@@@2@XZ 00401590 f i sdk_util.obj
 0001:00000590       ?_Get_second@?$_Compressed_pair@U?$less@PAVIMeetingVideoCtrlEvent@ZOOMSDK@@@std@@V?$_Compressed_pair@V?$allocator@U?$_Tree_node@PAVIMeetingVideoCtrlEvent@ZOOMSDK@@PAX@std@@@std@@V?$_Tree_val@U?$_Tree_simple_types@PAVIMeetingVideoCtrlEvent@ZOOMSDK@@@std@@@2@$00@2@$00@std@@QBEABV?$_Compressed_pair@V?$allocator@U?$_Tree_node@PAVIMeetingVideoCtrlEvent@ZOOMSDK@@PAX@std@@@std@@V?$_Tree_val@U?$_Tree_simple_types@PAVIMeetingVideoCtrlEvent@ZOOMSDK@@@std@@@2@$00@2@XZ 00401590 f i sdk_util.obj
 0001:00000590       ??0_Bxty@?$_String_val@U?$_Simple_types@D@std@@@std@@QAE@XZ 00401590 f i sdk_demo_v2.obj
 0001:00000590       ?_Get_second@?$_Compressed_pair@U?$less@PAVIAuthServiceEvent@ZOOMSDK@@@std@@V?$_Compressed_pair@V?$allocator@U?$_Tree_node@PAVIAuthServiceEvent@ZOOMSDK@@PAX@std@@@std@@V?$_Tree_val@U?$_Tree_simple_types@PAVIAuthServiceEvent@ZOOMSDK@@@std@@@2@$00@2@$00@std@@QAEAAV?$_Compressed_pair@V?$allocator@U?$_Tree_node@PAVIAuthServiceEvent@ZOOMSDK@@PAX@std@@@std@@V?$_Tree_val@U?$_Tree_simple_types@PAVIAuthServiceEvent@ZOOMSDK@@@std@@@2@$00@2@XZ 00401590 f i sdk_util.obj
 0001:00000590       ?_Get_first@?$_Compressed_pair@V?$allocator@UtagMONITORINFO@@@std@@V?$_Vector_val@U?$_Simple_types@UtagMONITORINFO@@@std@@@2@$00@std@@QAEAAV?$allocator@UtagMONITORINFO@@@2@XZ 00401590 f i sdk_demo_v2.obj
 0001:00000590       ??0?$allocator@U?$_Tree_node@PAVIMeetingServiceEvent@ZOOMSDK@@PAX@std@@@std@@QAE@XZ 00401590 f i sdk_util.obj
 0001:00000590       ?_Get_second@?$_Compressed_pair@U?$less@I@std@@V?$_Compressed_pair@V?$allocator@U?$_Tree_node@U?$pair@$$CBIPAVIUserInfo@ZOOMSDK@@@std@@PAX@std@@@std@@V?$_Tree_val@U?$_Tree_simple_types@U?$pair@$$CBIPAVIUserInfo@ZOOMSDK@@@std@@@std@@@2@$00@2@$00@std@@QAEAAV?$_Compressed_pair@V?$allocator@U?$_Tree_node@U?$pair@$$CBIPAVIUserInfo@ZOOMSDK@@@std@@PAX@std@@@std@@V?$_Tree_val@U?$_Tree_simple_types@U?$pair@$$CBIPAVIUserInfo@ZOOMSDK@@@std@@@std@@@2@$00@2@XZ 00401590 f i user_manager.obj
 0001:00000590       ?_Get_first@?$_Compressed_pair@U?$less@PAVIClosedCaptionControllerEvent@ZOOMSDK@@@std@@V?$_Compressed_pair@V?$allocator@U?$_Tree_node@PAVIClosedCaptionControllerEvent@ZOOMSDK@@PAX@std@@@std@@V?$_Tree_val@U?$_Tree_simple_types@PAVIClosedCaptionControllerEvent@ZOOMSDK@@@std@@@2@$00@2@$00@std@@QBEABU?$less@PAVIClosedCaptionControllerEvent@ZOOMSDK@@@2@XZ 00401590 f i sdk_util.obj
 0001:00000590       ?_Get_second@?$_Compressed_pair@U?$less@PAVIClosedCaptionControllerEvent@ZOOMSDK@@@std@@V?$_Compressed_pair@V?$allocator@U?$_Tree_node@PAVIClosedCaptionControllerEvent@ZOOMSDK@@PAX@std@@@std@@V?$_Tree_val@U?$_Tree_simple_types@PAVIClosedCaptionControllerEvent@ZOOMSDK@@@std@@@2@$00@2@$00@std@@QBEABV?$_Compressed_pair@V?$allocator@U?$_Tree_node@PAVIClosedCaptionControllerEvent@ZOOMSDK@@PAX@std@@@std@@V?$_Tree_val@U?$_Tree_simple_types@PAVIClosedCaptionControllerEvent@ZOOMSDK@@@std@@@2@$00@2@XZ 00401590 f i sdk_util.obj
 0001:00000590       ?_Get_first@?$_Compressed_pair@V?$allocator@U?$_Tree_node@U?$pair@$$CBIPAVIUserInfo@ZOOMSDK@@@std@@PAX@std@@@std@@V?$_Tree_val@U?$_Tree_simple_types@U?$pair@$$CBIPAVIUserInfo@ZOOMSDK@@@std@@@std@@@2@$00@std@@QBEABV?$allocator@U?$_Tree_node@U?$pair@$$CBIPAVIUserInfo@ZOOMSDK@@@std@@PAX@std@@@2@XZ 00401590 f i user_manager.obj
 0001:00000590       ?_Get_second@?$_Compressed_pair@V?$allocator@D@std@@V?$_String_val@U?$_Simple_types@D@std@@@2@$00@std@@QAEAAV?$_String_val@U?$_Simple_types@D@std@@@2@XZ 00401590 f i sdk_demo_v2.obj
 0001:00000590       ?_Get_second@?$_Compressed_pair@V?$allocator@U?$_Tree_node@PAVIMeetingServiceEvent@ZOOMSDK@@PAX@std@@@std@@V?$_Tree_val@U?$_Tree_simple_types@PAVIMeetingServiceEvent@ZOOMSDK@@@std@@@2@$00@std@@QAEAAV?$_Tree_val@U?$_Tree_simple_types@PAVIMeetingServiceEvent@ZOOMSDK@@@std@@@2@XZ 00401590 f i sdk_util.obj
 0001:00000590       ??0_Bxty@?$_String_val@U?$_Simple_types@_W@std@@@std@@QAE@XZ 00401590 f i AnnotateBarWindow.obj
 0001:00000590       ?_Get_first@?$_Compressed_pair@V?$allocator@PAVIUserInfo@ZOOMSDK@@@std@@V?$_Vector_val@U?$_Simple_types@PAVIUserInfo@ZOOMSDK@@@std@@@2@$00@std@@QBEABV?$allocator@PAVIUserInfo@ZOOMSDK@@@2@XZ 00401590 f i user_manager.obj
 0001:00000590       ?_Get_second@?$_Compressed_pair@U?$less@PAVIMeetingServiceEvent@ZOOMSDK@@@std@@V?$_Compressed_pair@V?$allocator@U?$_Tree_node@PAVIMeetingServiceEvent@ZOOMSDK@@PAX@std@@@std@@V?$_Tree_val@U?$_Tree_simple_types@PAVIMeetingServiceEvent@ZOOMSDK@@@std@@@2@$00@2@$00@std@@QAEAAV?$_Compressed_pair@V?$allocator@U?$_Tree_node@PAVIMeetingServiceEvent@ZOOMSDK@@PAX@std@@@std@@V?$_Tree_val@U?$_Tree_simple_types@PAVIMeetingServiceEvent@ZOOMSDK@@@std@@@2@$00@2@XZ 00401590 f i sdk_util.obj
 0001:00000590       ?_Get_second@?$_Compressed_pair@V?$allocator@U?$_Tree_node@PAVIMeetingChatCtrlEvent@ZOOMSDK@@PAX@std@@@std@@V?$_Tree_val@U?$_Tree_simple_types@PAVIMeetingChatCtrlEvent@ZOOMSDK@@@std@@@2@$00@std@@QAEAAV?$_Tree_val@U?$_Tree_simple_types@PAVIMeetingChatCtrlEvent@ZOOMSDK@@@std@@@2@XZ 00401590 f i sdk_util.obj
 0001:00000590       ?_Get_second@?$_Compressed_pair@V?$allocator@D@std@@V?$_String_val@U?$_Simple_types@D@std@@@2@$00@std@@QBEABV?$_String_val@U?$_Simple_types@D@std@@@2@XZ 00401590 f i sdk_demo_v2.obj
 0001:00000590       ?_Get_first@?$_Compressed_pair@U?$less@PAVIMeetingParticipantsCtrlEvent@ZOOMSDK@@@std@@V?$_Compressed_pair@V?$allocator@U?$_Tree_node@PAVIMeetingParticipantsCtrlEvent@ZOOMSDK@@PAX@std@@@std@@V?$_Tree_val@U?$_Tree_simple_types@PAVIMeetingParticipantsCtrlEvent@ZOOMSDK@@@std@@@2@$00@2@$00@std@@QAEAAU?$less@PAVIMeetingParticipantsCtrlEvent@ZOOMSDK@@@2@XZ 00401590 f i sdk_util.obj
 0001:00000590       ?_Get_first@?$_Compressed_pair@U?$less@PAVISDKInMeetingServiceMgrEvent@@@std@@V?$_Compressed_pair@V?$allocator@U?$_Tree_node@PAVISDKInMeetingServiceMgrEvent@@PAX@std@@@std@@V?$_Tree_val@U?$_Tree_simple_types@PAVISDKInMeetingServiceMgrEvent@@@std@@@2@$00@2@$00@std@@QAEAAU?$less@PAVISDKInMeetingServiceMgrEvent@@@2@XZ 00401590 f i sdk_util.obj
 0001:00000590       ?_Get_first@?$_Compressed_pair@U?$less@PAVIAuthServiceEvent@ZOOMSDK@@@std@@V?$_Compressed_pair@V?$allocator@U?$_Tree_node@PAVIAuthServiceEvent@ZOOMSDK@@PAX@std@@@std@@V?$_Tree_val@U?$_Tree_simple_types@PAVIAuthServiceEvent@ZOOMSDK@@@std@@@2@$00@2@$00@std@@QAEAAU?$less@PAVIAuthServiceEvent@ZOOMSDK@@@2@XZ 00401590 f i sdk_util.obj
 0001:00000590       ??0?$allocator@U?$_Tree_node@PAVIAuthServiceEvent@ZOOMSDK@@PAX@std@@@std@@QAE@XZ 00401590 f i sdk_util.obj
 0001:00000590       ??0?$allocator@U?$_Tree_node@PAVIPreMeetingServiceEvent@ZOOMSDK@@PAX@std@@@std@@QAE@XZ 00401590 f i sdk_util.obj
 0001:00000590       ??0?$tuple@$$V@std@@QAE@XZ 00401590 f i user_manager.obj
 0001:00000590       ?_Get_first@?$_Compressed_pair@V?$allocator@U?$_Tree_node@PAVIMeetingVideoCtrlEvent@ZOOMSDK@@PAX@std@@@std@@V?$_Tree_val@U?$_Tree_simple_types@PAVIMeetingVideoCtrlEvent@ZOOMSDK@@@std@@@2@$00@std@@QBEABV?$allocator@U?$_Tree_node@PAVIMeetingVideoCtrlEvent@ZOOMSDK@@PAX@std@@@2@XZ 00401590 f i sdk_util.obj
 0001:00000590       ?_Get_second@?$_Compressed_pair@V?$allocator@U?$_Tree_node@PAVISDKInMeetingServiceMgrEvent@@PAX@std@@@std@@V?$_Tree_val@U?$_Tree_simple_types@PAVISDKInMeetingServiceMgrEvent@@@std@@@2@$00@std@@QAEAAV?$_Tree_val@U?$_Tree_simple_types@PAVISDKInMeetingServiceMgrEvent@@@std@@@2@XZ 00401590 f i sdk_util.obj
 0001:00000590       ?_Get_second@?$_Compressed_pair@V?$allocator@U?$_Tree_node@PAVIClosedCaptionControllerEvent@ZOOMSDK@@PAX@std@@@std@@V?$_Tree_val@U?$_Tree_simple_types@PAVIClosedCaptionControllerEvent@ZOOMSDK@@@std@@@2@$00@std@@QBEABV?$_Tree_val@U?$_Tree_simple_types@PAVIClosedCaptionControllerEvent@ZOOMSDK@@@std@@@2@XZ 00401590 f i sdk_util.obj
 0001:00000590       ?_Get_second@?$_Compressed_pair@U?$less@PAVIMeetingVideoCtrlEvent@ZOOMSDK@@@std@@V?$_Compressed_pair@V?$allocator@U?$_Tree_node@PAVIMeetingVideoCtrlEvent@ZOOMSDK@@PAX@std@@@std@@V?$_Tree_val@U?$_Tree_simple_types@PAVIMeetingVideoCtrlEvent@ZOOMSDK@@@std@@@2@$00@2@$00@std@@QAEAAV?$_Compressed_pair@V?$allocator@U?$_Tree_node@PAVIMeetingVideoCtrlEvent@ZOOMSDK@@PAX@std@@@std@@V?$_Tree_val@U?$_Tree_simple_types@PAVIMeetingVideoCtrlEvent@ZOOMSDK@@@std@@@2@$00@2@XZ 00401590 f i sdk_util.obj
 0001:00000590       ?_Get_first@?$_Compressed_pair@U?$less@PAVIPreMeetingServiceEvent@ZOOMSDK@@@std@@V?$_Compressed_pair@V?$allocator@U?$_Tree_node@PAVIPreMeetingServiceEvent@ZOOMSDK@@PAX@std@@@std@@V?$_Tree_val@U?$_Tree_simple_types@PAVIPreMeetingServiceEvent@ZOOMSDK@@@std@@@2@$00@2@$00@std@@QAEAAU?$less@PAVIPreMeetingServiceEvent@ZOOMSDK@@@2@XZ 00401590 f i sdk_util.obj
 0001:00000590       ?_Get_first@?$_Compressed_pair@U?$less@PAVIMeetingParticipantsCtrlEvent@ZOOMSDK@@@std@@V?$_Compressed_pair@V?$allocator@U?$_Tree_node@PAVIMeetingParticipantsCtrlEvent@ZOOMSDK@@PAX@std@@@std@@V?$_Tree_val@U?$_Tree_simple_types@PAVIMeetingParticipantsCtrlEvent@ZOOMSDK@@@std@@@2@$00@2@$00@std@@QBEABU?$less@PAVIMeetingParticipantsCtrlEvent@ZOOMSDK@@@2@XZ 00401590 f i sdk_util.obj
 0001:00000590       ?_Get_first@?$_Compressed_pair@U?$less@PAVIAuthServiceEvent@ZOOMSDK@@@std@@V?$_Compressed_pair@V?$allocator@U?$_Tree_node@PAVIAuthServiceEvent@ZOOMSDK@@PAX@std@@@std@@V?$_Tree_val@U?$_Tree_simple_types@PAVIAuthServiceEvent@ZOOMSDK@@@std@@@2@$00@2@$00@std@@QBEABU?$less@PAVIAuthServiceEvent@ZOOMSDK@@@2@XZ 00401590 f i sdk_util.obj
 0001:00000590       ?_Get_first@?$_Compressed_pair@V?$allocator@U?$_Tree_node@PAVISDKInMeetingServiceMgrEvent@@PAX@std@@@std@@V?$_Tree_val@U?$_Tree_simple_types@PAVISDKInMeetingServiceMgrEvent@@@std@@@2@$00@std@@QAEAAV?$allocator@U?$_Tree_node@PAVISDKInMeetingServiceMgrEvent@@PAX@std@@@2@XZ 00401590 f i sdk_util.obj
 0001:00000590       ?_Get_first@?$_Compressed_pair@V?$allocator@_W@std@@V?$_String_val@U?$_Simple_types@_W@std@@@2@$00@std@@QBEABV?$allocator@_W@2@XZ 00401590 f i AnnotateBarWindow.obj
 0001:00000590       ??0?$allocator@D@std@@QAE@XZ 00401590 f i sdk_demo_v2.obj
 0001:00000590       ?_Get_second@?$_Compressed_pair@U?$less@I@std@@V?$_Compressed_pair@V?$allocator@U?$_Tree_node@U?$pair@$$CBIPAVIUserInfo@ZOOMSDK@@@std@@PAX@std@@@std@@V?$_Tree_val@U?$_Tree_simple_types@U?$pair@$$CBIPAVIUserInfo@ZOOMSDK@@@std@@@std@@@2@$00@2@$00@std@@QBEABV?$_Compressed_pair@V?$allocator@U?$_Tree_node@U?$pair@$$CBIPAVIUserInfo@ZOOMSDK@@@std@@PAX@std@@@std@@V?$_Tree_val@U?$_Tree_simple_types@U?$pair@$$CBIPAVIUserInfo@ZOOMSDK@@@std@@@std@@@2@$00@2@XZ 00401590 f i user_manager.obj
 0001:00000590       ?_Get_second@?$_Compressed_pair@V?$allocator@_W@std@@V?$_String_val@U?$_Simple_types@_W@std@@@2@$00@std@@QAEAAV?$_String_val@U?$_Simple_types@_W@std@@@2@XZ 00401590 f i AnnotateBarWindow.obj
 0001:00000590       ?_Get_first@?$_Compressed_pair@U?$less@PAVISDKInMeetingServiceMgrEvent@@@std@@V?$_Compressed_pair@V?$allocator@U?$_Tree_node@PAVISDKInMeetingServiceMgrEvent@@PAX@std@@@std@@V?$_Tree_val@U?$_Tree_simple_types@PAVISDKInMeetingServiceMgrEvent@@@std@@@2@$00@2@$00@std@@QBEABU?$less@PAVISDKInMeetingServiceMgrEvent@@@2@XZ 00401590 f i sdk_util.obj
 0001:00000590       ?_Get_first@?$_Compressed_pair@V?$allocator@PAVIUserInfo@ZOOMSDK@@@std@@V?$_Vector_val@U?$_Simple_types@PAVIUserInfo@ZOOMSDK@@@std@@@2@$00@std@@QAEAAV?$allocator@PAVIUserInfo@ZOOMSDK@@@2@XZ 00401590 f i user_manager.obj
 0001:00000590       ?_Get_first@?$_Compressed_pair@V?$allocator@U?$_Tree_node@PAVIMeetingChatCtrlEvent@ZOOMSDK@@PAX@std@@@std@@V?$_Tree_val@U?$_Tree_simple_types@PAVIMeetingChatCtrlEvent@ZOOMSDK@@@std@@@2@$00@std@@QBEABV?$allocator@U?$_Tree_node@PAVIMeetingChatCtrlEvent@ZOOMSDK@@PAX@std@@@2@XZ 00401590 f i sdk_util.obj
 0001:00000590       ?_Get_first@?$_Compressed_pair@V?$allocator@U?$_Tree_node@PAVIMeetingChatCtrlEvent@ZOOMSDK@@PAX@std@@@std@@V?$_Tree_val@U?$_Tree_simple_types@PAVIMeetingChatCtrlEvent@ZOOMSDK@@@std@@@2@$00@std@@QAEAAV?$allocator@U?$_Tree_node@PAVIMeetingChatCtrlEvent@ZOOMSDK@@PAX@std@@@2@XZ 00401590 f i sdk_util.obj
 0001:00000590       ??0?$allocator@PAVIUserInfo@ZOOMSDK@@@std@@QAE@XZ 00401590 f i user_manager.obj
 0001:00000590       ??0?$allocator@V?$basic_string@_WU?$char_traits@_W@std@@V?$allocator@_W@2@@std@@@std@@QAE@XZ 00401590 f i custom_ui_share_flow.obj
 0001:00000590       ?_Get_first@?$_Compressed_pair@V?$allocator@_W@std@@V?$_String_val@U?$_Simple_types@_W@std@@@2@$00@std@@QAEAAV?$allocator@_W@2@XZ 00401590 f i AnnotateBarWindow.obj
 0001:00000590       ?_Get_first@?$_Compressed_pair@V?$allocator@U?$_Tree_node@PAVIMeetingVideoCtrlEvent@ZOOMSDK@@PAX@std@@@std@@V?$_Tree_val@U?$_Tree_simple_types@PAVIMeetingVideoCtrlEvent@ZOOMSDK@@@std@@@2@$00@std@@QAEAAV?$allocator@U?$_Tree_node@PAVIMeetingVideoCtrlEvent@ZOOMSDK@@PAX@std@@@2@XZ 00401590 f i sdk_util.obj
 0001:00000590       ?_Get_first@?$_Compressed_pair@U?$less@I@std@@V?$_Compressed_pair@V?$allocator@U?$_Tree_node@U?$pair@$$CBIPAVIUserInfo@ZOOMSDK@@@std@@PAX@std@@@std@@V?$_Tree_val@U?$_Tree_simple_types@U?$pair@$$CBIPAVIUserInfo@ZOOMSDK@@@std@@@std@@@2@$00@2@$00@std@@QAEAAU?$less@I@2@XZ 00401590 f i user_manager.obj
 0001:00000590       ?_Get_second@?$_Compressed_pair@V?$allocator@UtagMONITORINFO@@@std@@V?$_Vector_val@U?$_Simple_types@UtagMONITORINFO@@@std@@@2@$00@std@@QAEAAV?$_Vector_val@U?$_Simple_types@UtagMONITORINFO@@@std@@@2@XZ 00401590 f i sdk_demo_v2.obj
 0001:00000590       ?_Get_second@?$_Compressed_pair@V?$allocator@UtagMONITORINFO@@@std@@V?$_Vector_val@U?$_Simple_types@UtagMONITORINFO@@@std@@@2@$00@std@@QBEABV?$_Vector_val@U?$_Simple_types@UtagMONITORINFO@@@std@@@2@XZ 00401590 f i sdk_demo_v2.obj
 0001:00000590       ?_Get_second@?$_Compressed_pair@V?$allocator@U?$_Tree_node@PAVIMeetingChatCtrlEvent@ZOOMSDK@@PAX@std@@@std@@V?$_Tree_val@U?$_Tree_simple_types@PAVIMeetingChatCtrlEvent@ZOOMSDK@@@std@@@2@$00@std@@QBEABV?$_Tree_val@U?$_Tree_simple_types@PAVIMeetingChatCtrlEvent@ZOOMSDK@@@std@@@2@XZ 00401590 f i sdk_util.obj
 0001:00000590       ?_Get_second@?$_Compressed_pair@V?$allocator@U?$_List_node@HPAX@std@@@std@@V?$_List_val@U?$_List_simple_types@H@std@@@2@$00@std@@QBEABV?$_List_val@U?$_List_simple_types@H@std@@@2@XZ 00401590 f i participant_ui.obj
 0001:00000590       ??0?$allocator@U?$_Tree_node@PAVIMeetingChatCtrlEvent@ZOOMSDK@@PAX@std@@@std@@QAE@XZ 00401590 f i sdk_util.obj
 0001:00000590       ?_Get_second@?$_Compressed_pair@V?$allocator@V?$basic_string@_WU?$char_traits@_W@std@@V?$allocator@_W@2@@std@@@std@@V?$_Vector_val@U?$_Simple_types@V?$basic_string@_WU?$char_traits@_W@std@@V?$allocator@_W@2@@std@@@std@@@2@$00@std@@QBEABV?$_Vector_val@U?$_Simple_types@V?$basic_string@_WU?$char_traits@_W@std@@V?$allocator@_W@2@@std@@@std@@@2@XZ 00401590 f i custom_ui_share_flow.obj
 0001:00000590       ?_Get_second@?$_Compressed_pair@U?$less@PAVIMeetingChatCtrlEvent@ZOOMSDK@@@std@@V?$_Compressed_pair@V?$allocator@U?$_Tree_node@PAVIMeetingChatCtrlEvent@ZOOMSDK@@PAX@std@@@std@@V?$_Tree_val@U?$_Tree_simple_types@PAVIMeetingChatCtrlEvent@ZOOMSDK@@@std@@@2@$00@2@$00@std@@QBEABV?$_Compressed_pair@V?$allocator@U?$_Tree_node@PAVIMeetingChatCtrlEvent@ZOOMSDK@@PAX@std@@@std@@V?$_Tree_val@U?$_Tree_simple_types@PAVIMeetingChatCtrlEvent@ZOOMSDK@@@std@@@2@$00@2@XZ 00401590 f i sdk_util.obj
 0001:00000590       ?_Get_second@?$_Compressed_pair@V?$allocator@U?$_Tree_node@U?$pair@$$CBIPAVIUserInfo@ZOOMSDK@@@std@@PAX@std@@@std@@V?$_Tree_val@U?$_Tree_simple_types@U?$pair@$$CBIPAVIUserInfo@ZOOMSDK@@@std@@@std@@@2@$00@std@@QBEABV?$_Tree_val@U?$_Tree_simple_types@U?$pair@$$CBIPAVIUserInfo@ZOOMSDK@@@std@@@std@@@2@XZ 00401590 f i user_manager.obj
 0001:00000590       ?_Get_first@?$_Compressed_pair@V?$allocator@U?$_Tree_node@PAVISDKInMeetingServiceMgrEvent@@PAX@std@@@std@@V?$_Tree_val@U?$_Tree_simple_types@PAVISDKInMeetingServiceMgrEvent@@@std@@@2@$00@std@@QBEABV?$allocator@U?$_Tree_node@PAVISDKInMeetingServiceMgrEvent@@PAX@std@@@2@XZ 00401590 f i sdk_util.obj
 0001:00000590       ?_Get_second@?$_Compressed_pair@V?$allocator@U?$_Tree_node@PAVIMeetingParticipantsCtrlEvent@ZOOMSDK@@PAX@std@@@std@@V?$_Tree_val@U?$_Tree_simple_types@PAVIMeetingParticipantsCtrlEvent@ZOOMSDK@@@std@@@2@$00@std@@QAEAAV?$_Tree_val@U?$_Tree_simple_types@PAVIMeetingParticipantsCtrlEvent@ZOOMSDK@@@std@@@2@XZ 00401590 f i sdk_util.obj
 0001:00000590       ?_Get_second@?$_Compressed_pair@V?$allocator@U?$_Tree_node@PAVIPreMeetingServiceEvent@ZOOMSDK@@PAX@std@@@std@@V?$_Tree_val@U?$_Tree_simple_types@PAVIPreMeetingServiceEvent@ZOOMSDK@@@std@@@2@$00@std@@QBEABV?$_Tree_val@U?$_Tree_simple_types@PAVIPreMeetingServiceEvent@ZOOMSDK@@@std@@@2@XZ 00401590 f i sdk_util.obj
 0001:00000590       ?_Get_first@?$_Compressed_pair@V?$allocator@D@std@@V?$_String_val@U?$_Simple_types@D@std@@@2@$00@std@@QBEABV?$allocator@D@2@XZ 00401590 f i sdk_demo_v2.obj
 0001:00000590       ?_Get_second@?$_Compressed_pair@V?$allocator@U?$_Tree_node@PAVIMeetingVideoCtrlEvent@ZOOMSDK@@PAX@std@@@std@@V?$_Tree_val@U?$_Tree_simple_types@PAVIMeetingVideoCtrlEvent@ZOOMSDK@@@std@@@2@$00@std@@QAEAAV?$_Tree_val@U?$_Tree_simple_types@PAVIMeetingVideoCtrlEvent@ZOOMSDK@@@std@@@2@XZ 00401590 f i sdk_util.obj
 0001:00000590       ??0?$allocator@U?$_Tree_node@PAVISDKInMeetingServiceMgrEvent@@PAX@std@@@std@@QAE@XZ 00401590 f i sdk_util.obj
 0001:00000590       ?_Get_first@?$_Compressed_pair@U?$less@PAVIClosedCaptionControllerEvent@ZOOMSDK@@@std@@V?$_Compressed_pair@V?$allocator@U?$_Tree_node@PAVIClosedCaptionControllerEvent@ZOOMSDK@@PAX@std@@@std@@V?$_Tree_val@U?$_Tree_simple_types@PAVIClosedCaptionControllerEvent@ZOOMSDK@@@std@@@2@$00@2@$00@std@@QAEAAU?$less@PAVIClosedCaptionControllerEvent@ZOOMSDK@@@2@XZ 00401590 f i sdk_util.obj
 0001:00000590       ??0?$allocator@U?$_Tree_node@PAVIMeetingVideoCtrlEvent@ZOOMSDK@@PAX@std@@@std@@QAE@XZ 00401590 f i sdk_util.obj
 0001:00000590       ??0?$allocator@_W@std@@QAE@XZ 00401590 f i AnnotateBarWindow.obj
 0001:000005a0       ??0?$basic_string@_WU?$char_traits@_W@std@@V?$allocator@_W@2@@std@@QAE@QB_W@Z 004015a0 f i AnnotateBarWindow.obj
 0001:00000630       ??0AnnotateBarWindow@@QAE@PAVICustomizedShareRender@ZOOMSDK@@@Z 00401630 f   AnnotateBarWindow.obj
 0001:00000790       ??0CComCriticalSection@ATL@@QAE@XZ 00401790 f i AnnotateBarWindow.obj
 0001:000007c0       ??0INotifyUI@DuiLib@@QAE@XZ 004017c0 f i AnnotateBarWindow.obj
 0001:000007e0       ??0_Fake_proxy_ptr_impl@std@@QAE@ABU_Fake_allocator@1@ABU_Container_base0@1@@Z 004017e0 f i AnnotateBarWindow.obj
 0001:000007f0       ??1?$_Compressed_pair@V?$allocator@D@std@@V?$_String_val@U?$_Simple_types@D@std@@@2@$00@std@@QAE@XZ 004017f0 f i sdk_demo_v2.obj
 0001:000007f0       ??1?$_Compressed_pair@V?$allocator@_W@std@@V?$_String_val@U?$_Simple_types@_W@std@@@2@$00@std@@QAE@XZ 004017f0 f i AnnotateBarWindow.obj
 0001:00000810       ??1?$_String_val@U?$_Simple_types@D@std@@@std@@QAE@XZ 00401810 f i sdk_demo_v2.obj
 0001:00000810       ??1?$_String_val@U?$_Simple_types@_W@std@@@std@@QAE@XZ 00401810 f i AnnotateBarWindow.obj
 0001:00000830       ??1?$basic_string@_WU?$char_traits@_W@std@@V?$allocator@_W@2@@std@@QAE@XZ 00401830 f i AnnotateBarWindow.obj
 0001:00000850       ??1AnnotateBarWindow@@QAE@XZ 00401850 f   AnnotateBarWindow.obj
 0001:00000a70       ?onCCBTNClicked@CSDKCustomUIWorkFlow@@UAEXXZ 00401a70 f i custom_ui_mgr_flow.obj
 0001:00000a70       ?onSelectedVBImageChanged@CSDKVirtualBGSettingsUIGroup@@UAEXXZ 00401a70 f i settings_ui.obj
 0001:00000a70       ?CustomizeDemoResource@CInitSDKWorkFlow@@QAEXXZ 00401a70 f i init_auth_sdk_workflow.obj
 0001:00000a70       ?onZoomAuthIdentityExpired@CSDKLoginCBHandler@@UAEXXZ 00401a70 f i LOGIN_sdk_login_UI.obj
 0001:00000a70       ?onZoomAuthIdentityExpired@CSDKWithoutLoginStartJoinMeetingFlow@@UAEXXZ 00401a70 f i LOGIN_join_meeting_only_workflow.obj
 0001:00000a70       ?onZoomIdentityExpired@CAuthSDKWorkFlow@@UAEXXZ 00401a70 f i init_auth_sdk_workflow.obj
 0001:00000a70       ?DoStopDirectShareBtnClick@CSDKLoggedInUIMgr@@IAEXXZ 00401a70 f i LoggedIn_sdk_controller_ui.obj
 0001:00000a70       ?Cleanup@CSDKWithoutLoginStartJoinMeetingFlow@@QAEXXZ 00401a70 f i LOGIN_sdk_login_UI.obj
 0001:00000a70       ?OnSelectedVideoDeviceIsChanged@CSDKVirtualBGSettingsWorkFlow@@UAEXXZ 00401a70 f i SETTINGS_virtualBG_workflow.obj
 0001:00000a70       ?Cleanup@CSDKVideoSettingsWorkFlow@@QAEXXZ 00401a70 f i settings_ui.obj
 0001:00000a70       ?_Orphan_all@_Container_base0@std@@QAEXXZ 00401a70 f i AnnotateBarWindow.obj
 0001:00000a70       ??1_Bxty@?$_String_val@U?$_Simple_types@_W@std@@@std@@QAE@XZ 00401a70 f i AnnotateBarWindow.obj
 0001:00000a70       ?OnNoWindowToShowPreview@CSDKCustomUIWorkFlow@@UAEXXZ 00401a70 f i custom_ui_mgr_flow.obj
 0001:00000a70       ?onAudioMenuBtnClicked@CSDKCustomUIWorkFlow@@UAEXXZ 00401a70 f i custom_ui_mgr_flow.obj
 0001:00000a70       ?OnNoVideoDeviceIsUseful@CSDKVirtualBGSettingsWorkFlow@@UAEXXZ 00401a70 f i SETTINGS_virtualBG_workflow.obj
 0001:00000a70       ?Cleanup@CSDKJoinMeetingForLoginUserFlow@@QAEXXZ 00401a70 f i Join_meeting_for_login_user_ui.obj
 0001:00000a70       ?onZoomInviteDialogFailed@CSDKCustomUIWorkFlow@@UAEXXZ 00401a70 f i custom_ui_mgr_flow.obj
 0001:00000a70       ?OnNoWindowToShowPreview@CSDKVirtualBGSettingsWorkFlow@@UAEXXZ 00401a70 f i SETTINGS_virtualBG_workflow.obj
 0001:00000a70       ?Cleanup@CSDKRecordingSettingsWorkFlow@@QAEXXZ 00401a70 f i settings_ui.obj
 0001:00000a70       ?onCustomLiveStreamMenuClicked@CSDKCustomUIWorkFlow@@UAEXXZ 00401a70 f i custom_ui_mgr_flow.obj
 0001:00000a70       ?onZoomIdentityExpired@CSDKWithoutLoginStartJoinMeetingFlow@@UAEXXZ 00401a70 f i LOGIN_join_meeting_only_workflow.obj
 0001:00000a70       ?onLogout@CSDKWithoutLoginStartJoinMeetingFlow@@UAEXXZ 00401a70 f i LOGIN_join_meeting_only_workflow.obj
 0001:00000a70       ?onLogout@CSDKLoginCBHandler@@UAEXXZ 00401a70 f i LOGIN_sdk_login_UI.obj
 0001:00000a70       ?_Release@_Fake_proxy_ptr_impl@std@@QAEXXZ 00401a70 f i AnnotateBarWindow.obj
 0001:00000a70       ?onVBImageDidDownloaded@CSDKVirtualBGSettingsUIGroup@@UAEXXZ 00401a70 f i settings_ui.obj
 0001:00000a70       ?Cleanup@CSDKLoginWithSSOFlow@@QAEXXZ 00401a70 f i LOGIN_sdk_login_UI.obj
 0001:00000a70       ?onLogout@CAuthSDKWorkFlow@@UAEXXZ 00401a70 f i init_auth_sdk_workflow.obj
 0001:00000a70       ?onSharingContentStartRecving@CCustomizeInMeetingUIMgr@@UAEXXZ 00401a70 f i custom_ui_mgr.obj
 0001:00000a70       ??1CZoomHttpRequestHelper@@QAE@XZ 00401a70 f i HttpRequestHelper.obj
 0001:00000a70       ?onStartShareBtnClicked@CSDKCustomUIWorkFlow@@UAEXXZ 00401a70 f i custom_ui_mgr_flow.obj
 0001:00000a70       ?OnSelectedAudioDeviceIsChanged@CSDKCustomUIWorkFlow@@UAEXXZ 00401a70 f i custom_ui_mgr_flow.obj
 0001:00000a70       ??1CMoreFeaturesWorkflow@@QAE@XZ 00401a70 f i more_features_workflow.obj
 0001:00000a70       ?Cleanup@CSDKRestAPIUserWorkFlow@@QAEXXZ 00401a70 f i LOGIN_sdk_login_UI.obj
 0001:00000a70       ?Cleanup@CSDKGeneralSettingsWorkFlow@@QAEXXZ 00401a70 f i settings_ui.obj
 0001:00000a70       ?Cleanup@CAuthSDKWorkFlow@@QAEXXZ 00401a70 f i sdk_init_auth_ui.obj
 0001:00000a70       ?Cleanup@CSDKAudioSettingsWorkFlow@@QAEXXZ 00401a70 f i settings_ui.obj
 0001:00000a70       ?CleanUp@CSDKFeatureCustomSettingsWorkFlow@@QAEXXZ 00401a70 f i settings_ui.obj
 0001:00000a70       ?OnNoVideoDeviceIsUseful@CSDKCustomUIWorkFlow@@UAEXXZ 00401a70 f i custom_ui_mgr_flow.obj
 0001:00000a70       ?onEndMeetingBtnClicked@CSDKCustomUIWorkFlow@@UAEXXZ 00401a70 f i custom_ui_mgr_flow.obj
 0001:00000a70       ??1CComCriticalSection@ATL@@QAE@XZ 00401a70 f i AnnotateBarWindow.obj
 0001:00000a70       ?Cleanup@CSDKUICustomSettingsWorkFlow@@QAEXXZ 00401a70 f i settings_ui.obj
 0001:00000a70       ?onParticipantListBtnClicked@CSDKCustomUIWorkFlow@@UAEXXZ 00401a70 f i custom_ui_mgr_flow.obj
 0001:00000a70       ?onZoomAuthIdentityExpired@CAuthSDKWorkFlow@@UAEXXZ 00401a70 f i init_auth_sdk_workflow.obj
 0001:00000a70       ?OnSelectedVideoDeviceIsChanged@CSDKCustomUIWorkFlow@@UAEXXZ 00401a70 f i custom_ui_mgr_flow.obj
 0001:00000a70       ?onZoomIdentityExpired@CSDKLoginCBHandler@@UAEXXZ 00401a70 f i LOGIN_sdk_login_UI.obj
 0001:00000a70       ??1_Bxty@?$_String_val@U?$_Simple_types@D@std@@@std@@QAE@XZ 00401a70 f i sdk_demo_v2.obj
 0001:00000a80       ??1CDialogBuilder@DuiLib@@QAE@XZ 00401a80 f i AnnotateBarWindow.obj
 0001:00000aa0       ??2@YAPAXIPAX@Z            00401aa0 f i AnnotateBarWindow.obj
 0001:00000ab0       ??R<lambda_03628ca18370b1f44a99b655e704819b>@@QBEXQA_WIQB_W@Z 00401ab0 f i AnnotateBarWindow.obj
 0001:00000af0       ??_GAnnotateClearWindow@@QAEPAXI@Z 00401af0 f i AnnotateBarWindow.obj
 0001:00000b30       ??_GAnnotateDrawWindow@@QAEPAXI@Z 00401b30 f i AnnotateBarWindow.obj
 0001:00000b70       ??_GAnnotateFormatWindow@@QAEPAXI@Z 00401b70 f i AnnotateBarWindow.obj
 0001:00000bb0       ??_GAnnotateSpolightWindow@@QAEPAXI@Z 00401bb0 f i AnnotateBarWindow.obj
 0001:00000bf0       ??_GAnnotateStampWindow@@QAEPAXI@Z 00401bf0 f i AnnotateBarWindow.obj
 0001:00000c30       ?GetClassStyle@ShareToolbarWindow@@UBEIXZ 00401c30 f i ShareToolbarWindow.obj
 0001:00000c30       ?GetClassStyle@CameraControlWindow@@UBEIXZ 00401c30 f i CameraControlWindow.obj
 0001:00000c30       ?GetClassStyle@ViewOptionsWindow@@UBEIXZ 00401c30 f i ViewOptionsWindow.obj
 0001:00000c30       ?GetClassStyle@CSDKSheduleMeetingUIMgr@@UBEIXZ 00401c30 f i schedule_meeting_ui.obj
 0001:00000c30       ?GetClassStyle@CDialInCountryUIMgr@@UBEIXZ 00401c30 f i dial_in_country_ui.obj
 0001:00000c30       ?GetClassStyle@CSDKSettingsUIMgr@@UBEIXZ 00401c30 f i settings_ui.obj
 0001:00000c30       ?GetClassStyle@CInvitationUIMgr@@UBEIXZ 00401c30 f i invitation_ui.obj
 0001:00000c30       ?GetClassStyle@CSDKLoginUIMgr@@UBEIXZ 00401c30 f i LOGIN_sdk_login_UI.obj
 0001:00000c30       ?GetClassStyle@AnnotateDrawWindow@@UBEIXZ 00401c30 f i AnnotateDrawWindow.obj
 0001:00000c30       ?GetClassStyle@AnnotateSpolightWindow@@UBEIXZ 00401c30 f i AnnotateSpolightWindow.obj
 0001:00000c30       ?GetClassStyle@CSDKLoggedInUIMgr@@UBEIXZ 00401c30 f i LoggedIn_sdk_controller_ui.obj
 0001:00000c30       ?GetClassStyle@CCloseCaptionUIMgr@@UBEIXZ 00401c30 f i close_caption_ui.obj
 0001:00000c30       ?GetClassStyle@AnnotateFormatWindow@@UBEIXZ 00401c30 f i AnnotateFormatWindow.obj
 0001:00000c30       ?GetClassStyle@AnnotateClearWindow@@UBEIXZ 00401c30 f i AnnotateClearWindow.obj
 0001:00000c30       ?GetClassStyle@AnnotateStampWindow@@UBEIXZ 00401c30 f i AnnotateStampWindow.obj
 0001:00000c30       ?GetClassStyle@CSDKJoinMeetingForLoginUserUIMgr@@UBEIXZ 00401c30 f i Join_meeting_for_login_user_ui.obj
 0001:00000c30       ?GetClassStyle@AnnotateBarWindow@@UBEIXZ 00401c30 f i AnnotateBarWindow.obj
 0001:00000c30       ?GetClassStyle@CSDKMeetingChatUIMgr@@UBEIXZ 00401c30 f i chat_controller_ui.obj
 0001:00000c30       ?GetClassStyle@CSDKInitAuthUIMgr@@UBEIXZ 00401c30 f i sdk_init_auth_ui.obj
 0001:00000c40       ?GetSkinRes@AnnotateBarWindow@@UAEIXZ 00401c40 f i AnnotateBarWindow.obj
 0001:00000c50       ?GetWindowClassName@CSDKSheduleMeetingUIMgr@@UBEPB_WXZ 00401c50 f i schedule_meeting_ui.obj
 0001:00000c50       ?GetWindowClassName@CSDKSettingsUIMgr@@UBEPB_WXZ 00401c50 f i settings_ui.obj
 0001:00000c50       ?GetWindowClassName@ViewOptionsWindow@@UBEPB_WXZ 00401c50 f i ViewOptionsWindow.obj
 0001:00000c50       ?GetWindowClassName@CCustomizeUIShareSelectUI@@UBEPB_WXZ 00401c50 f i custom_ui_share_mgr.obj
 0001:00000c50       ?GetWindowClassName@CArrowWindow@@UBEPB_WXZ 00401c50 f i arrow_window.obj
 0001:00000c50       ?GetWindowClassName@CSDKMeetingChatUIMgr@@UBEPB_WXZ 00401c50 f i chat_controller_ui.obj
 0001:00000c50       ?GetWindowClassName@CMoreMenuUIMgr@@UBEPB_WXZ 00401c50 f i more_menu_ui.obj
 0001:00000c50       ?GetWindowClassName@CToolbarBottom@@UBEPB_WXZ 00401c50 f i toolbar_bottom_ui.obj
 0001:00000c50       ?GetWindowClassName@AnnotateSpolightWindow@@UBEPB_WXZ 00401c50 f i AnnotateSpolightWindow.obj
 0001:00000c50       ?GetWindowClassName@ShareToolbarWindow@@UBEPB_WXZ 00401c50 f i ShareToolbarWindow.obj
 0001:00000c50       ?GetWindowClassName@CCloseCaptionUIMgr@@UBEPB_WXZ 00401c50 f i close_caption_ui.obj
 0001:00000c50       ?GetWindowClassName@CSDKLoggedInUIMgr@@UBEPB_WXZ 00401c50 f i LoggedIn_sdk_controller_ui.obj
 0001:00000c50       ?GetWindowClassName@CMoreFeaturesUIMgr@@UBEPB_WXZ 00401c50 f i more_features_ui.obj
 0001:00000c50       ?GetWindowClassName@CSDKLoginUIMgr@@UBEPB_WXZ 00401c50 f i LOGIN_sdk_login_UI.obj
 0001:00000c50       ?GetWindowClassName@AnnotateClearWindow@@UBEPB_WXZ 00401c50 f i AnnotateClearWindow.obj
 0001:00000c50       ?GetWindowClassName@CParticipantUIMgr@@UBEPB_WXZ 00401c50 f i participant_ui.obj
 0001:00000c50       ?GetWindowClassName@CSDKJoinMeetingForLoginUserUIMgr@@UBEPB_WXZ 00401c50 f i Join_meeting_for_login_user_ui.obj
 0001:00000c50       ?GetWindowClassName@CameraControlWindow@@UBEPB_WXZ 00401c50 f i CameraControlWindow.obj
 0001:00000c50       ?GetWindowClassName@CSDKInitAuthUIMgr@@UBEPB_WXZ 00401c50 f i sdk_init_auth_ui.obj
 0001:00000c50       ?GetWindowClassName@CUtilWnd@@UBEPB_WXZ 00401c50 f i util_window.obj
 0001:00000c50       ?GetWindowClassName@AnnotateStampWindow@@UBEPB_WXZ 00401c50 f i AnnotateStampWindow.obj
 0001:00000c50       ?GetWindowClassName@AnnotateDrawWindow@@UBEPB_WXZ 00401c50 f i AnnotateDrawWindow.obj
 0001:00000c50       ?GetWindowClassName@AnnotateBarWindow@@UBEPB_WXZ 00401c50 f i AnnotateBarWindow.obj
 0001:00000c50       ?GetWindowClassName@AnnotateFormatWindow@@UBEPB_WXZ 00401c50 f i AnnotateFormatWindow.obj
 0001:00000c50       ?GetWindowClassName@CDialInCountryUIMgr@@UBEPB_WXZ 00401c50 f i dial_in_country_ui.obj
 0001:00000c60       ?HandleMessage@AnnotateBarWindow@@UAEJIIJ@Z 00401c60 f   AnnotateBarWindow.obj
 0001:00000e70       ?HideBrotherWindows@AnnotateBarWindow@@AAEXPA_W@Z 00401e70 f   AnnotateBarWindow.obj
 0001:00000ff0       ?HideOwnedWindows@AnnotateBarWindow@@QAEXXZ 00401ff0 f   AnnotateBarWindow.obj
 0001:000010a0       ?Init@CComCriticalSection@ATL@@QAEJXZ 004020a0 f i AnnotateBarWindow.obj
 0001:000010e0       ?InitWindow@AnnotateBarWindow@@UAEXXZ 004020e0 f   AnnotateBarWindow.obj
 0001:000012c0       ?MoveWindowPosTo@AnnotateBarWindow@@QAEXPAUHWND__@@@Z 004022c0 f   AnnotateBarWindow.obj
 0001:00001340       ?Notify@AnnotateBarWindow@@UAEXAAUtagTNotifyUI@DuiLib@@@Z 00402340 f   AnnotateBarWindow.obj
 0001:00001710       ?OnClose@AnnotateBarWindow@@QAEJIIJAAH@Z 00402710 f   AnnotateBarWindow.obj
 0001:00001740       ?OnDestroy@CameraControlWindow@@QAEJIIJAAH@Z 00402740 f   CameraControlWindow.obj
 0001:00001740       ?OnDestroy@AnnotateStampWindow@@QAEJIIJAAH@Z 00402740 f   AnnotateStampWindow.obj
 0001:00001740       ?OnClose@ShareToolbarWindow@@QAEJIIJAAH@Z 00402740 f   ShareToolbarWindow.obj
 0001:00001740       ?OnClose@ViewOptionsWindow@@QAEJIIJAAH@Z 00402740 f   ViewOptionsWindow.obj
 0001:00001740       ?OnClose@AnnotateClearWindow@@QAEJIIJAAH@Z 00402740 f   AnnotateClearWindow.obj
 0001:00001740       ?OnClose@AnnotateStampWindow@@QAEJIIJAAH@Z 00402740 f   AnnotateStampWindow.obj
 0001:00001740       ?OnDestroy@ViewOptionsWindow@@QAEJIIJAAH@Z 00402740 f   ViewOptionsWindow.obj
 0001:00001740       ?OnClose@AnnotateSpolightWindow@@QAEJIIJAAH@Z 00402740 f   AnnotateSpolightWindow.obj
 0001:00001740       ?OnDestroy@AnnotateDrawWindow@@QAEJIIJAAH@Z 00402740 f   AnnotateDrawWindow.obj
 0001:00001740       ?OnClose@AnnotateFormatWindow@@QAEJIIJAAH@Z 00402740 f   AnnotateFormatWindow.obj
 0001:00001740       ?OnDestroy@AnnotateClearWindow@@QAEJIIJAAH@Z 00402740 f   AnnotateClearWindow.obj
 0001:00001740       ?OnClose@AnnotateDrawWindow@@QAEJIIJAAH@Z 00402740 f   AnnotateDrawWindow.obj
 0001:00001740       ?OnClose@CameraControlWindow@@QAEJIIJAAH@Z 00402740 f   CameraControlWindow.obj
 0001:00001740       ?OnDestroy@ShareToolbarWindow@@QAEJIIJAAH@Z 00402740 f   ShareToolbarWindow.obj
 0001:00001740       ?OnDestroy@AnnotateBarWindow@@QAEJIIJAAH@Z 00402740 f   AnnotateBarWindow.obj
 0001:00001740       ?OnDestroy@AnnotateFormatWindow@@QAEJIIJAAH@Z 00402740 f   AnnotateFormatWindow.obj
 0001:00001740       ?OnDestroy@AnnotateSpolightWindow@@QAEJIIJAAH@Z 00402740 f   AnnotateSpolightWindow.obj
 0001:00001740       ?OnClose@CSDKJoinMeetingForLoginUserUIMgr@@QAEJIIJAAH@Z 00402740 f   Join_meeting_for_login_user_ui.obj
 0001:00001760       ?_Alloc_proxy@_Container_base0@std@@QAEXABU_Fake_allocator@2@@Z 00402760 f i chat_controller_ui.obj
 0001:00001760       ?OnFinalMessage@CCustomizeUIShareSelectUI@@UAEXPAUHWND__@@@Z 00402760 f i custom_ui_share_mgr.obj
 0001:00001760       ?onRecordingStatus@CSDKCustomUIWorkFlow@@UAEXW4RecordingStatus@ZOOMSDK@@@Z 00402760 f i custom_ui_mgr_flow.obj
 0001:00001760       ?onShareContentNotification@CSDKCustomUIWorkFlow@@UAEXAAUtagShareInfo@ZOOMSDK@@@Z 00402760 f i custom_ui_mgr_flow.obj
 0001:00001760       ?onMeetingParameterNotification@CSDKJoinMeetingForLoginUserFlow@@UAEXPBUtagMeetingParameter@ZOOMSDK@@@Z 00402760 f i Join_meeting_for_login_user_workflow.obj
 0001:00001760       ?_Destroy_if_node@?$_Tree@V?$_Tset_traits@PAVIAuthServiceEvent@ZOOMSDK@@U?$less@PAVIAuthServiceEvent@ZOOMSDK@@@std@@V?$allocator@PAVIAuthServiceEvent@ZOOMSDK@@@4@$0A@@std@@@std@@IAEXU_Not_a_node_tag@2@@Z 00402760 f i sdk_util.obj
 0001:00001760       ?OnFinalMessage@CSDKMeetingChatUIMgr@@UAEXPAUHWND__@@@Z 00402760 f i chat_controller_ui.obj
 0001:00001760       ?onMeetingStatisticsWarningNotification@CSDKLoggedInUIMgr@@UAEXW4StatisticsWarningType@ZOOMSDK@@@Z 00402760 f i LoggedIn_sdk_controller_ui.obj
 0001:00001760       ?onUserActiveAudioChange@CSDKCustomUIWorkFlow@@UAEXPAV?$IList@I@ZOOMSDK@@@Z 00402760 f i custom_ui_mgr_flow.obj
 0001:00001760       ?onRecording2MP4Processing@CSDKCustomUIWorkFlow@@UAEXH@Z 00402760 f i custom_ui_mgr_flow.obj
 0001:00001760       ?OnFinalMessage@CToolbarBottom@@UAEXPAUHWND__@@@Z 00402760 f i toolbar_bottom_ui.obj
 0001:00001760       ?_Destroy_if_node@?$_Tree@V?$_Tset_traits@PAVIMeetingVideoCtrlEvent@ZOOMSDK@@U?$less@PAVIMeetingVideoCtrlEvent@ZOOMSDK@@@std@@V?$allocator@PAVIMeetingVideoCtrlEvent@ZOOMSDK@@@4@$0A@@std@@@std@@IAEXU_Not_a_node_tag@2@@Z 00402760 f i sdk_util.obj
 0001:00001760       ?HandleVideoContainerDestroyed@CCustomizeUIVideoMgr@@QAEXPAVICustomizedVideoContainer@ZOOMSDK@@@Z 00402760 f i custom_ui_video_mgr.obj
 0001:00001760       ?OnFinalMessage@CSDKInitAuthUIMgr@@UAEXPAUHWND__@@@Z 00402760 f i sdk_init_auth_ui.obj
 0001:00001760       ?_Destroy_if_node@?$_Tree@V?$_Tset_traits@PAVIClosedCaptionControllerEvent@ZOOMSDK@@U?$less@PAVIClosedCaptionControllerEvent@ZOOMSDK@@@std@@V?$allocator@PAVIClosedCaptionControllerEvent@ZOOMSDK@@@4@$0A@@std@@@std@@IAEXU_Not_a_node_tag@2@@Z 00402760 f i sdk_util.obj
 0001:00001760       ?OnFinalMessage@CameraControlWindow@@UAEXPAUHWND__@@@Z 00402760 f i CameraControlWindow.obj
 0001:00001760       ?onAssignedToSendCC@CSDKCustomUIWorkFlow@@UAEX_N@Z 00402760 f i custom_ui_mgr_flow.obj
 0001:00001760       ?onHostChangeNotification@CSDKCustomUIWorkFlow@@UAEXI@Z 00402760 f i custom_ui_mgr_flow.obj
 0001:00001760       ?OnFinalMessage@CArrowWindow@@UAEXPAUHWND__@@@Z 00402760 f i arrow_window.obj
 0001:00001760       ?onCustomizedLocalRecordingSourceNotification@CCustomizeInMeetingUIMgr@@UAEXPAVICustomizedLocalRecordingLayoutHelper@ZOOMSDK@@@Z 00402760 f i custom_ui_mgr.obj
 0001:00001760       ?_Orphan_ptr@?$_Tree_val@U?$_Tree_simple_types@PAVIMeetingServiceEvent@ZOOMSDK@@@std@@@std@@QAEXQAU?$_Tree_node@PAVIMeetingServiceEvent@ZOOMSDK@@PAX@2@@Z 00402760 f i sdk_util.obj
 0001:00001760       ?onMeetingStatisticsWarningNotification@CSDKJoinMeetingForLoginUserUIGroup@@UAEXW4StatisticsWarningType@ZOOMSDK@@@Z 00402760 f i Join_meeting_for_login_user_ui.obj
 0001:00001760       ?onActiveVideoUserChanged@CSDKCustomUIWorkFlow@@UAEXI@Z 00402760 f i custom_ui_mgr_flow.obj
 0001:00001760       ?onMeetingParameterNotification@CSDKJoinMeetingForLoginUserUIGroup@@UAEXPBUtagMeetingParameter@ZOOMSDK@@@Z 00402760 f i Join_meeting_for_login_user_ui.obj
 0001:00001760       ?OnFinalMessage@CCloseCaptionUIMgr@@UAEXPAUHWND__@@@Z 00402760 f i close_caption_ui.obj
 0001:00001760       ?OnFinalMessage@CSDKJoinMeetingForLoginUserUIMgr@@UAEXPAUHWND__@@@Z 00402760 f i Join_meeting_for_login_user_ui.obj
 0001:00001760       ?OnFinalMessage@CParticipantUIMgr@@UAEXPAUHWND__@@@Z 00402760 f i participant_ui.obj
 0001:00001760       ?_Destroy_if_node@?$_Tree@V?$_Tset_traits@PAVIPreMeetingServiceEvent@ZOOMSDK@@U?$less@PAVIPreMeetingServiceEvent@ZOOMSDK@@@std@@V?$allocator@PAVIPreMeetingServiceEvent@ZOOMSDK@@@4@$0A@@std@@@std@@IAEXU_Not_a_node_tag@2@@Z 00402760 f i sdk_util.obj
 0001:00001760       ?onMeetingStatisticsWarningNotification@CSDKWithoutLoginStartJoinMeetingFlow@@UAEXW4StatisticsWarningType@ZOOMSDK@@@Z 00402760 f i LOGIN_join_meeting_only_workflow.obj
 0001:00001760       ?Notify@ClosedCaptionDisplayUI@@UAEXAAUtagTNotifyUI@DuiLib@@@Z 00402760 f i display_cc_ui.obj
 0001:00001760       ?onActiveVideoUserChanged@CUtilWnd@@UAEXI@Z 00402760 f i util_window.obj
 0001:00001760       ?OnFinalMessage@CMoreFeaturesUIMgr@@UAEXPAUHWND__@@@Z 00402760 f i more_features_ui.obj
 0001:00001760       ?onMultiShareSwitchToSingleShareNeedConfirm@CSDKCustomUIWorkFlow@@UAEXPAVIShareSwitchMultiToSingleConfirmHandler@ZOOMSDK@@@Z 00402760 f i custom_ui_mgr_flow.obj
 0001:00001760       ?onInviteBtnClicked@CSDKCustomUIWorkFlow@@UAEXAA_N@Z 00402760 f i custom_ui_mgr_flow.obj
 0001:00001760       ?_Destroy_if_node@?$_Tree@V?$_Tset_traits@PAVIMeetingServiceEvent@ZOOMSDK@@U?$less@PAVIMeetingServiceEvent@ZOOMSDK@@@std@@V?$allocator@PAVIMeetingServiceEvent@ZOOMSDK@@@4@$0A@@std@@@std@@IAEXU_Not_a_node_tag@2@@Z 00402760 f i sdk_util.obj
 0001:00001760       ?OnFinalMessage@AnnotateStampWindow@@UAEXPAUHWND__@@@Z 00402760 f i AnnotateStampWindow.obj
 0001:00001760       ?OnFinalMessage@AnnotateSpolightWindow@@UAEXPAUHWND__@@@Z 00402760 f i AnnotateSpolightWindow.obj
 0001:00001760       ?_Orphan_ptr@?$_Tree_val@U?$_Tree_simple_types@PAVIAuthServiceEvent@ZOOMSDK@@@std@@@std@@QAEXQAU?$_Tree_node@PAVIAuthServiceEvent@ZOOMSDK@@PAX@2@@Z 00402760 f i sdk_util.obj
 0001:00001760       ?onSSLCertVerifyNotification@CInitSDKWorkFlow@@UAEXPAVISSLCertVerificationHandler@ZOOMSDK@@@Z 00402760 f i init_auth_sdk_workflow.obj
 0001:00001760       ?OnFinalMessage@ViewOptionsWindow@@UAEXPAUHWND__@@@Z 00402760 f i ViewOptionsWindow.obj
 0001:00001760       ?onActiveSpeakerVideoUserChanged@CSDKCustomUIWorkFlow@@UAEXI@Z 00402760 f i custom_ui_mgr_flow.obj
 0001:00001760       ?onMeetingParameterNotification@CSDKWithoutLoginStartJoinMeetingFlow@@UAEXPBUtagMeetingParameter@ZOOMSDK@@@Z 00402760 f i LOGIN_join_meeting_only_workflow.obj
 0001:00001760       ?onMeetingParameterNotification@CSDKWithoutLoginStartJoinMeetingUIGroup@@UAEXPBUtagMeetingParameter@ZOOMSDK@@@Z 00402760 f i LOGIN_sdk_login_UI.obj
 0001:00001760       ?OnFinalMessage@CSDKSettingsUIMgr@@UAEXPAUHWND__@@@Z 00402760 f i settings_ui.obj
 0001:00001760       ?OnFinalMessage@AnnotateFormatWindow@@UAEXPAUHWND__@@@Z 00402760 f i AnnotateFormatWindow.obj
 0001:00001760       ?OnFinalMessage@CSDKLoginUIMgr@@UAEXPAUHWND__@@@Z 00402760 f i LOGIN_sdk_login_UI.obj
 0001:00001760       ?_Orphan_ptr@?$_Tree_val@U?$_Tree_simple_types@U?$pair@$$CBIPAVIUserInfo@ZOOMSDK@@@std@@@std@@@std@@QAEXQAU?$_Tree_node@U?$pair@$$CBIPAVIUserInfo@ZOOMSDK@@@std@@PAX@2@@Z 00402760 f i user_manager.obj
 0001:00001760       ?OnFinalMessage@AnnotateClearWindow@@UAEXPAUHWND__@@@Z 00402760 f i AnnotateClearWindow.obj
 0001:00001760       ?OnFinalMessage@AnnotateBarWindow@@UAEXPAUHWND__@@@Z 00402760 f i AnnotateBarWindow.obj
 0001:00001760       ?onLockShareStatus@CSDKCustomUIWorkFlow@@UAEX_N@Z 00402760 f i custom_ui_mgr_flow.obj
 0001:00001760       ?OnFinalMessage@CInvitationUIMgr@@UAEXPAUHWND__@@@Z 00402760 f i invitation_ui.obj
 0001:00001760       ?OnFinalMessage@AnnotateDrawWindow@@UAEXPAUHWND__@@@Z 00402760 f i AnnotateDrawWindow.obj
 0001:00001760       ?onHostRequestStartAudio@CSDKCustomUIWorkFlow@@UAEXPAVIRequestStartAudioHandler@ZOOMSDK@@@Z 00402760 f i custom_ui_mgr_flow.obj
 0001:00001760       ?onAuthenticationReturn@CSDKLoginCBHandler@@UAEXW4AuthResult@ZOOMSDK@@@Z 00402760 f i LOGIN_sdk_login_UI.obj
 0001:00001760       ?onCloudRecordingStatus@CSDKCustomUIWorkFlow@@UAEXW4RecordingStatus@ZOOMSDK@@@Z 00402760 f i custom_ui_mgr_flow.obj
 0001:00001760       ?OnNoAudioDeviceIsUseful@CSDKCustomUIWorkFlow@@UAEX_N@Z 00402760 f i custom_ui_mgr_flow.obj
 0001:00001760       ?_Orphan_ptr@?$_Tree_val@U?$_Tree_simple_types@PAVIPreMeetingServiceEvent@ZOOMSDK@@@std@@@std@@QAEXQAU?$_Tree_node@PAVIPreMeetingServiceEvent@ZOOMSDK@@PAX@2@@Z 00402760 f i sdk_util.obj
 0001:00001760       ?OnFinalMessage@CSDKLoggedInUIMgr@@UAEXPAUHWND__@@@Z 00402760 f i LoggedIn_sdk_controller_ui.obj
 0001:00001760       ?OnFinalMessage@CDialInCountryUIMgr@@UAEXPAUHWND__@@@Z 00402760 f i dial_in_country_ui.obj
 0001:00001760       ?_Orphan_ptr@?$_Tree_val@U?$_Tree_simple_types@PAVIMeetingChatCtrlEvent@ZOOMSDK@@@std@@@std@@QAEXQAU?$_Tree_node@PAVIMeetingChatCtrlEvent@ZOOMSDK@@PAX@2@@Z 00402760 f i sdk_util.obj
 0001:00001760       ?_Orphan_ptr@?$_Tree_val@U?$_Tree_simple_types@PAVIMeetingVideoCtrlEvent@ZOOMSDK@@@std@@@std@@QAEXQAU?$_Tree_node@PAVIMeetingVideoCtrlEvent@ZOOMSDK@@PAX@2@@Z 00402760 f i sdk_util.obj
 0001:00001760       ?onMeetingStatisticsWarningNotification@CSDKCustomUIWorkFlow@@UAEXW4StatisticsWarningType@ZOOMSDK@@@Z 00402760 f i custom_ui_mgr_flow.obj
 0001:00001760       ?_Compat@?$_Vector_const_iterator@V?$_Vector_val@U?$_Simple_types@PAVIUserInfo@ZOOMSDK@@@std@@@std@@@std@@QBEXABV12@@Z 00402760 f i user_manager.obj
 0001:00001760       ?onChatStautsChangedNotification@CSDKMeetingChatUIMgr@@UAEXPAUtagChatStatus@ZOOMSDK@@@Z 00402760 f i chat_controller_ui.obj
 0001:00001760       ?onProxySettingNotification@CInitSDKWorkFlow@@UAEXPAVIProxySettingHandler@ZOOMSDK@@@Z 00402760 f i init_auth_sdk_workflow.obj
 0001:00001760       ?onMeetingStatisticsWarningNotification@CSDKRestAPIUserUIGroup@@UAEXW4StatisticsWarningType@ZOOMSDK@@@Z 00402760 f i LOGIN_sdk_login_UI.obj
 0001:00001760       ?onHostRequestStartVideo@CSDKCustomUIWorkFlow@@UAEXPAVIRequestStartVideoHandler@ZOOMSDK@@@Z 00402760 f i custom_ui_mgr_flow.obj
 0001:00001760       ?onRecordPriviligeChanged@CSDKCustomUIWorkFlow@@UAEX_N@Z 00402760 f i custom_ui_mgr_flow.obj
 0001:00001760       ?onMeetingParameterNotification@CSDKRestAPIUserUIGroup@@UAEXPBUtagMeetingParameter@ZOOMSDK@@@Z 00402760 f i LOGIN_sdk_login_UI.obj
 0001:00001760       ?onMeetingParameterNotification@CSDKLoggedInUIMgr@@UAEXPBUtagMeetingParameter@ZOOMSDK@@@Z 00402760 f i LoggedIn_sdk_controller_ui.obj
 0001:00001760       ?_Adopt@_Iterator_base0@std@@QAEXPBX@Z 00402760 f i participant_ui.obj
 0001:00001760       ?onCustomizedAnnotationObjDestroyed@CCustomizeInMeetingUIMgr@@UAEXPAVICustomizedAnnotationObj@ZOOMSDK@@@Z 00402760 f i custom_ui_mgr.obj
 0001:00001760       ?OnFinalMessage@CUtilWnd@@UAEXPAUHWND__@@@Z 00402760 f i util_window.obj
 0001:00001760       ?onSharingSourceUserIDNotification@CCustomizeInMeetingUIMgr@@UAEXI@Z 00402760 f i custom_ui_mgr.obj
 0001:00001760       ?_Orphan_ptr@?$_Tree_val@U?$_Tree_simple_types@PAVISDKInMeetingServiceMgrEvent@@@std@@@std@@QAEXQAU?$_Tree_node@PAVISDKInMeetingServiceMgrEvent@@PAX@2@@Z 00402760 f i sdk_util.obj
 0001:00001760       ?_Orphan_ptr@?$_Tree_val@U?$_Tree_simple_types@PAVIClosedCaptionControllerEvent@ZOOMSDK@@@std@@@std@@QAEXQAU?$_Tree_node@PAVIClosedCaptionControllerEvent@ZOOMSDK@@PAX@2@@Z 00402760 f i sdk_util.obj
 0001:00001760       ?onMeetingStatisticsWarningNotification@CSDKJoinMeetingForLoginUserFlow@@UAEXW4StatisticsWarningType@ZOOMSDK@@@Z 00402760 f i Join_meeting_for_login_user_workflow.obj
 0001:00001760       ?OnFinalMessage@CMoreMenuUIMgr@@UAEXPAUHWND__@@@Z 00402760 f i more_menu_ui.obj
 0001:00001760       ?OnFinalMessage@ShareToolbarWindow@@UAEXPAUHWND__@@@Z 00402760 f i ShareToolbarWindow.obj
 0001:00001760       ?_Destroy_if_node@?$_Tree@V?$_Tset_traits@PAVISDKInMeetingServiceMgrEvent@@U?$less@PAVISDKInMeetingServiceMgrEvent@@@std@@V?$allocator@PAVISDKInMeetingServiceMgrEvent@@@3@$0A@@std@@@std@@IAEXU_Not_a_node_tag@2@@Z 00402760 f i sdk_util.obj
 0001:00001760       ?onAuthenticationReturn@CSDKWithoutLoginStartJoinMeetingFlow@@UAEXW4AuthResult@ZOOMSDK@@@Z 00402760 f i LOGIN_join_meeting_only_workflow.obj
 0001:00001760       ?_Destroy_if_node@?$_Tree@V?$_Tset_traits@PAVIMeetingParticipantsCtrlEvent@ZOOMSDK@@U?$less@PAVIMeetingParticipantsCtrlEvent@ZOOMSDK@@@std@@V?$allocator@PAVIMeetingParticipantsCtrlEvent@ZOOMSDK@@@4@$0A@@std@@@std@@IAEXU_Not_a_node_tag@2@@Z 00402760 f i sdk_util.obj
 0001:00001760       ?onActiveSpeakerVideoUserChanged@CUtilWnd@@UAEXI@Z 00402760 f i util_window.obj
 0001:00001760       ?onMeetingStatisticsWarningNotification@CSDKWithoutLoginStartJoinMeetingUIGroup@@UAEXW4StatisticsWarningType@ZOOMSDK@@@Z 00402760 f i LOGIN_sdk_login_UI.obj
 0001:00001760       ?_Orphan_ptr@?$_Tree_val@U?$_Tree_simple_types@PAVIMeetingParticipantsCtrlEvent@ZOOMSDK@@@std@@@std@@QAEXQAU?$_Tree_node@PAVIMeetingParticipantsCtrlEvent@ZOOMSDK@@PAX@2@@Z 00402760 f i sdk_util.obj
 0001:00001760       ?onMeetingParameterNotification@CSDKCustomUIWorkFlow@@UAEXPBUtagMeetingParameter@ZOOMSDK@@@Z 00402760 f i custom_ui_mgr_flow.obj
 0001:00001760       ?onChatStautsChangedNotification@CSDKCustomUIWorkFlow@@UAEXPAUtagChatStatus@ZOOMSDK@@@Z 00402760 f i custom_ui_mgr_flow.obj
 0001:00001760       ?OnFinalMessage@CSDKSheduleMeetingUIMgr@@UAEXPAUHWND__@@@Z 00402760 f i schedule_meeting_ui.obj
 0001:00001760       ?_Destroy_if_node@?$_Tree@V?$_Tset_traits@PAVIMeetingChatCtrlEvent@ZOOMSDK@@U?$less@PAVIMeetingChatCtrlEvent@ZOOMSDK@@@std@@V?$allocator@PAVIMeetingChatCtrlEvent@ZOOMSDK@@@4@$0A@@std@@@std@@IAEXU_Not_a_node_tag@2@@Z 00402760 f i sdk_util.obj
 0001:00001770       ?Term@CComCriticalSection@ATL@@QAEJXZ 00402770 f i AnnotateBarWindow.obj
 0001:00001790       ?_Adjust_manually_vector_aligned@std@@YAXAAPAXAAI@Z 00402790 f i AnnotateBarWindow.obj
 0001:00001800       ?_Allocate@_Default_allocate_traits@std@@SAPAXI@Z 00402800 f i AnnotateBarWindow.obj
 0001:00001820       ?_AtlInitializeCriticalSectionEx@ATL@@YAHPAU_RTL_CRITICAL_SECTION@@KK@Z 00402820 f i AnnotateBarWindow.obj
 0001:00001840       ?_Calculate_growth@?$basic_string@_WU?$char_traits@_W@std@@V?$allocator@_W@2@@std@@ABEII@Z 00402840 f i AnnotateBarWindow.obj
 0001:000018c0       ?_Equal@?$basic_string@_WU?$char_traits@_W@std@@V?$allocator@_W@2@@std@@QBE_NQB_W@Z 004028c0 f i AnnotateBarWindow.obj
 0001:00001930       ?_Getal@?$list@HV?$allocator@H@std@@@std@@AAEAAV?$allocator@U?$_List_node@HPAX@std@@@2@XZ 00402930 f i participant_ui.obj
 0001:00001930       ?_Getcomp@?$_Tree@V?$_Tset_traits@PAVIMeetingServiceEvent@ZOOMSDK@@U?$less@PAVIMeetingServiceEvent@ZOOMSDK@@@std@@V?$allocator@PAVIMeetingServiceEvent@ZOOMSDK@@@4@$0A@@std@@@std@@IBEABU?$less@PAVIMeetingServiceEvent@ZOOMSDK@@@2@XZ 00402930 f i sdk_util.obj
 0001:00001930       ?_Getcomp@?$_Tree@V?$_Tset_traits@PAVISDKInMeetingServiceMgrEvent@@U?$less@PAVISDKInMeetingServiceMgrEvent@@@std@@V?$allocator@PAVISDKInMeetingServiceMgrEvent@@@3@$0A@@std@@@std@@IAEAAU?$less@PAVISDKInMeetingServiceMgrEvent@@@2@XZ 00402930 f i sdk_util.obj
 0001:00001930       ?_Get_data@?$basic_string@DU?$char_traits@D@std@@V?$allocator@D@2@@std@@AAEAAV?$_String_val@U?$_Simple_types@D@std@@@2@XZ 00402930 f i sdk_demo_v2.obj
 0001:00001930       ?_Getcomp@?$_Tree@V?$_Tset_traits@PAVIAuthServiceEvent@ZOOMSDK@@U?$less@PAVIAuthServiceEvent@ZOOMSDK@@@std@@V?$allocator@PAVIAuthServiceEvent@ZOOMSDK@@@4@$0A@@std@@@std@@IAEAAU?$less@PAVIAuthServiceEvent@ZOOMSDK@@@2@XZ 00402930 f i sdk_util.obj
 0001:00001930       ?_Getcomp@?$_Tree@V?$_Tset_traits@PAVIClosedCaptionControllerEvent@ZOOMSDK@@U?$less@PAVIClosedCaptionControllerEvent@ZOOMSDK@@@std@@V?$allocator@PAVIClosedCaptionControllerEvent@ZOOMSDK@@@4@$0A@@std@@@std@@IAEAAU?$less@PAVIClosedCaptionControllerEvent@ZOOMSDK@@@2@XZ 00402930 f i sdk_util.obj
 0001:00001930       ?_Getal@?$vector@V?$basic_string@_WU?$char_traits@_W@std@@V?$allocator@_W@2@@std@@V?$allocator@V?$basic_string@_WU?$char_traits@_W@std@@V?$allocator@_W@2@@std@@@2@@std@@AAEAAV?$allocator@V?$basic_string@_WU?$char_traits@_W@std@@V?$allocator@_W@2@@std@@@2@XZ 00402930 f i custom_ui_share_flow.obj
 0001:00001930       ?_Getcomp@?$_Tree@V?$_Tset_traits@PAVIClosedCaptionControllerEvent@ZOOMSDK@@U?$less@PAVIClosedCaptionControllerEvent@ZOOMSDK@@@std@@V?$allocator@PAVIClosedCaptionControllerEvent@ZOOMSDK@@@4@$0A@@std@@@std@@IBEABU?$less@PAVIClosedCaptionControllerEvent@ZOOMSDK@@@2@XZ 00402930 f i sdk_util.obj
 0001:00001930       ?_Get_data@?$vector@UtagMONITORINFO@@V?$allocator@UtagMONITORINFO@@@std@@@std@@AAEAAV?$_Vector_val@U?$_Simple_types@UtagMONITORINFO@@@std@@@2@XZ 00402930 f i sdk_demo_v2.obj
 0001:00001930       ?_Getcomp@?$_Tree@V?$_Tset_traits@PAVIPreMeetingServiceEvent@ZOOMSDK@@U?$less@PAVIPreMeetingServiceEvent@ZOOMSDK@@@std@@V?$allocator@PAVIPreMeetingServiceEvent@ZOOMSDK@@@4@$0A@@std@@@std@@IBEABU?$less@PAVIPreMeetingServiceEvent@ZOOMSDK@@@2@XZ 00402930 f i sdk_util.obj
 0001:00001930       ?_Getcomp@?$_Tree@V?$_Tset_traits@PAVISDKInMeetingServiceMgrEvent@@U?$less@PAVISDKInMeetingServiceMgrEvent@@@std@@V?$allocator@PAVISDKInMeetingServiceMgrEvent@@@3@$0A@@std@@@std@@IBEABU?$less@PAVISDKInMeetingServiceMgrEvent@@@2@XZ 00402930 f i sdk_util.obj
 0001:00001930       ?_Getal@?$vector@PAVIUserInfo@ZOOMSDK@@V?$allocator@PAVIUserInfo@ZOOMSDK@@@std@@@std@@AAEAAV?$allocator@PAVIUserInfo@ZOOMSDK@@@2@XZ 00402930 f i user_manager.obj
 0001:00001930       ?_Getcomp@?$_Tree@V?$_Tset_traits@PAVIMeetingChatCtrlEvent@ZOOMSDK@@U?$less@PAVIMeetingChatCtrlEvent@ZOOMSDK@@@std@@V?$allocator@PAVIMeetingChatCtrlEvent@ZOOMSDK@@@4@$0A@@std@@@std@@IAEAAU?$less@PAVIMeetingChatCtrlEvent@ZOOMSDK@@@2@XZ 00402930 f i sdk_util.obj
 0001:00001930       ?_Get_data@?$basic_string@_WU?$char_traits@_W@std@@V?$allocator@_W@2@@std@@ABEABV?$_String_val@U?$_Simple_types@_W@std@@@2@XZ 00402930 f i AnnotateBarWindow.obj
 0001:00001930       ?_Getal@?$basic_string@DU?$char_traits@D@std@@V?$allocator@D@2@@std@@ABEABV?$allocator@D@2@XZ 00402930 f i sdk_demo_v2.obj
 0001:00001930       ?_Getcomp@?$_Tree@V?$_Tset_traits@PAVIMeetingChatCtrlEvent@ZOOMSDK@@U?$less@PAVIMeetingChatCtrlEvent@ZOOMSDK@@@std@@V?$allocator@PAVIMeetingChatCtrlEvent@ZOOMSDK@@@4@$0A@@std@@@std@@IBEABU?$less@PAVIMeetingChatCtrlEvent@ZOOMSDK@@@2@XZ 00402930 f i sdk_util.obj
 0001:00001930       ?_Getal@?$vector@UtagMONITORINFO@@V?$allocator@UtagMONITORINFO@@@std@@@std@@ABEABV?$allocator@UtagMONITORINFO@@@2@XZ 00402930 f i sdk_demo_v2.obj
 0001:00001930       ?_Getal@?$vector@PAVIVirtualBGImageInfo@ZOOMSDK@@V?$allocator@PAVIVirtualBGImageInfo@ZOOMSDK@@@std@@@std@@AAEAAV?$allocator@PAVIVirtualBGImageInfo@ZOOMSDK@@@2@XZ 00402930 f i settings_ui.obj
 0001:00001930       ?_Get_data@?$vector@PAVIVirtualBGImageInfo@ZOOMSDK@@V?$allocator@PAVIVirtualBGImageInfo@ZOOMSDK@@@std@@@std@@AAEAAV?$_Vector_val@U?$_Simple_types@PAVIVirtualBGImageInfo@ZOOMSDK@@@std@@@2@XZ 00402930 f i settings_ui.obj
 0001:00001930       ?_Getcomp@?$_Tree@V?$_Tset_traits@PAVIMeetingParticipantsCtrlEvent@ZOOMSDK@@U?$less@PAVIMeetingParticipantsCtrlEvent@ZOOMSDK@@@std@@V?$allocator@PAVIMeetingParticipantsCtrlEvent@ZOOMSDK@@@4@$0A@@std@@@std@@IBEABU?$less@PAVIMeetingParticipantsCtrlEvent@ZOOMSDK@@@2@XZ 00402930 f i sdk_util.obj
 0001:00001930       ?_Get_data@?$vector@UtagMONITORINFO@@V?$allocator@UtagMONITORINFO@@@std@@@std@@ABEABV?$_Vector_val@U?$_Simple_types@UtagMONITORINFO@@@std@@@2@XZ 00402930 f i sdk_demo_v2.obj
 0001:00001930       ?_Getcomp@?$_Tree@V?$_Tset_traits@PAVIMeetingParticipantsCtrlEvent@ZOOMSDK@@U?$less@PAVIMeetingParticipantsCtrlEvent@ZOOMSDK@@@std@@V?$allocator@PAVIMeetingParticipantsCtrlEvent@ZOOMSDK@@@4@$0A@@std@@@std@@IAEAAU?$less@PAVIMeetingParticipantsCtrlEvent@ZOOMSDK@@@2@XZ 00402930 f i sdk_util.obj
 0001:00001930       ?_Getcomp@?$_Tree@V?$_Tset_traits@PAVIMeetingVideoCtrlEvent@ZOOMSDK@@U?$less@PAVIMeetingVideoCtrlEvent@ZOOMSDK@@@std@@V?$allocator@PAVIMeetingVideoCtrlEvent@ZOOMSDK@@@4@$0A@@std@@@std@@IAEAAU?$less@PAVIMeetingVideoCtrlEvent@ZOOMSDK@@@2@XZ 00402930 f i sdk_util.obj
 0001:00001930       ?_Getal@?$basic_string@DU?$char_traits@D@std@@V?$allocator@D@2@@std@@AAEAAV?$allocator@D@2@XZ 00402930 f i sdk_demo_v2.obj
 0001:00001930       ?_Getcomp@?$_Tree@V?$_Tset_traits@PAVIPreMeetingServiceEvent@ZOOMSDK@@U?$less@PAVIPreMeetingServiceEvent@ZOOMSDK@@@std@@V?$allocator@PAVIPreMeetingServiceEvent@ZOOMSDK@@@4@$0A@@std@@@std@@IAEAAU?$less@PAVIPreMeetingServiceEvent@ZOOMSDK@@@2@XZ 00402930 f i sdk_util.obj
 0001:00001930       ?_Get_data@?$basic_string@_WU?$char_traits@_W@std@@V?$allocator@_W@2@@std@@AAEAAV?$_String_val@U?$_Simple_types@_W@std@@@2@XZ 00402930 f i AnnotateBarWindow.obj
 0001:00001930       ?_Get_data@?$list@HV?$allocator@H@std@@@std@@ABEABV?$_List_val@U?$_List_simple_types@H@std@@@2@XZ 00402930 f i participant_ui.obj
 0001:00001930       ?_Get_data@?$vector@PAVIUserInfo@ZOOMSDK@@V?$allocator@PAVIUserInfo@ZOOMSDK@@@std@@@std@@ABEABV?$_Vector_val@U?$_Simple_types@PAVIUserInfo@ZOOMSDK@@@std@@@2@XZ 00402930 f i user_manager.obj
 0001:00001930       ?_Getal@?$vector@PAVIUserInfo@ZOOMSDK@@V?$allocator@PAVIUserInfo@ZOOMSDK@@@std@@@std@@ABEABV?$allocator@PAVIUserInfo@ZOOMSDK@@@2@XZ 00402930 f i user_manager.obj
 0001:00001930       ?_Getcomp@?$_Tree@V?$_Tset_traits@PAVIAuthServiceEvent@ZOOMSDK@@U?$less@PAVIAuthServiceEvent@ZOOMSDK@@@std@@V?$allocator@PAVIAuthServiceEvent@ZOOMSDK@@@4@$0A@@std@@@std@@IBEABU?$less@PAVIAuthServiceEvent@ZOOMSDK@@@2@XZ 00402930 f i sdk_util.obj
 0001:00001930       ?_Get_data@?$vector@V?$basic_string@_WU?$char_traits@_W@std@@V?$allocator@_W@2@@std@@V?$allocator@V?$basic_string@_WU?$char_traits@_W@std@@V?$allocator@_W@2@@std@@@2@@std@@ABEABV?$_Vector_val@U?$_Simple_types@V?$basic_string@_WU?$char_traits@_W@std@@V?$allocator@_W@2@@std@@@std@@@2@XZ 00402930 f i custom_ui_share_flow.obj
 0001:00001930       ?_Get_data@?$vector@V?$basic_string@_WU?$char_traits@_W@std@@V?$allocator@_W@2@@std@@V?$allocator@V?$basic_string@_WU?$char_traits@_W@std@@V?$allocator@_W@2@@std@@@2@@std@@AAEAAV?$_Vector_val@U?$_Simple_types@V?$basic_string@_WU?$char_traits@_W@std@@V?$allocator@_W@2@@std@@@std@@@2@XZ 00402930 f i custom_ui_share_flow.obj
 0001:00001930       ?_Getal@?$basic_string@_WU?$char_traits@_W@std@@V?$allocator@_W@2@@std@@ABEABV?$allocator@_W@2@XZ 00402930 f i AnnotateBarWindow.obj
 0001:00001930       ?_Getal@?$basic_string@_WU?$char_traits@_W@std@@V?$allocator@_W@2@@std@@AAEAAV?$allocator@_W@2@XZ 00402930 f i AnnotateBarWindow.obj
 0001:00001930       ?_Get_data@?$list@HV?$allocator@H@std@@@std@@AAEAAV?$_List_val@U?$_List_simple_types@H@std@@@2@XZ 00402930 f i participant_ui.obj
 0001:00001930       ?_Get_data@?$vector@PAVIVirtualBGImageInfo@ZOOMSDK@@V?$allocator@PAVIVirtualBGImageInfo@ZOOMSDK@@@std@@@std@@ABEABV?$_Vector_val@U?$_Simple_types@PAVIVirtualBGImageInfo@ZOOMSDK@@@std@@@2@XZ 00402930 f i settings_ui.obj
 0001:00001930       ?_Getcomp@?$_Tree@V?$_Tmap_traits@IPAVIUserInfo@ZOOMSDK@@U?$less@I@std@@V?$allocator@U?$pair@$$CBIPAVIUserInfo@ZOOMSDK@@@std@@@4@$0A@@std@@@std@@IAEAAU?$less@I@2@XZ 00402930 f i user_manager.obj
 0001:00001930       ?_Getcomp@?$_Tree@V?$_Tmap_traits@IPAVIUserInfo@ZOOMSDK@@U?$less@I@std@@V?$allocator@U?$pair@$$CBIPAVIUserInfo@ZOOMSDK@@@std@@@4@$0A@@std@@@std@@IBEABU?$less@I@2@XZ 00402930 f i user_manager.obj
 0001:00001930       ?_Getcomp@?$_Tree@V?$_Tset_traits@PAVIMeetingServiceEvent@ZOOMSDK@@U?$less@PAVIMeetingServiceEvent@ZOOMSDK@@@std@@V?$allocator@PAVIMeetingServiceEvent@ZOOMSDK@@@4@$0A@@std@@@std@@IAEAAU?$less@PAVIMeetingServiceEvent@ZOOMSDK@@@2@XZ 00402930 f i sdk_util.obj
 0001:00001930       ?_Get_data@?$vector@PAVIUserInfo@ZOOMSDK@@V?$allocator@PAVIUserInfo@ZOOMSDK@@@std@@@std@@AAEAAV?$_Vector_val@U?$_Simple_types@PAVIUserInfo@ZOOMSDK@@@std@@@2@XZ 00402930 f i user_manager.obj
 0001:00001930       ?_Getal@?$vector@PAVIVirtualBGImageInfo@ZOOMSDK@@V?$allocator@PAVIVirtualBGImageInfo@ZOOMSDK@@@std@@@std@@ABEABV?$allocator@PAVIVirtualBGImageInfo@ZOOMSDK@@@2@XZ 00402930 f i settings_ui.obj
 0001:00001930       ?_Getal@?$vector@V?$basic_string@_WU?$char_traits@_W@std@@V?$allocator@_W@2@@std@@V?$allocator@V?$basic_string@_WU?$char_traits@_W@std@@V?$allocator@_W@2@@std@@@2@@std@@ABEABV?$allocator@V?$basic_string@_WU?$char_traits@_W@std@@V?$allocator@_W@2@@std@@@2@XZ 00402930 f i custom_ui_share_flow.obj
 0001:00001930       ?_Getal@?$list@HV?$allocator@H@std@@@std@@ABEABV?$allocator@U?$_List_node@HPAX@std@@@2@XZ 00402930 f i participant_ui.obj
 0001:00001930       ?_Get_data@?$basic_string@DU?$char_traits@D@std@@V?$allocator@D@2@@std@@ABEABV?$_String_val@U?$_Simple_types@D@std@@@2@XZ 00402930 f i sdk_demo_v2.obj
 0001:00001930       ?_Getal@?$vector@UtagMONITORINFO@@V?$allocator@UtagMONITORINFO@@@std@@@std@@AAEAAV?$allocator@UtagMONITORINFO@@@2@XZ 00402930 f i sdk_demo_v2.obj
 0001:00001950       ?_Large_string_engaged@?$_String_val@U?$_Simple_types@_W@std@@@std@@QBE_NXZ 00402950 f i AnnotateBarWindow.obj
 0001:00001980       ?_Myptr@?$_String_val@U?$_Simple_types@_W@std@@@std@@QAEPA_WXZ 00402980 f i AnnotateBarWindow.obj
 0001:00001980       ?_Myptr@?$_String_val@U?$_Simple_types@_W@std@@@std@@QBEPB_WXZ 00402980 f i AnnotateBarWindow.obj
 0001:000019c0       ?_Orphan_all@?$basic_string@DU?$char_traits@D@std@@V?$allocator@D@2@@std@@QAEXXZ 004029c0 f i sdk_demo_v2.obj
 0001:000019c0       ?_Orphan_all@?$vector@PAVIUserInfo@ZOOMSDK@@V?$allocator@PAVIUserInfo@ZOOMSDK@@@std@@@std@@AAEXXZ 004029c0 f i user_manager.obj
 0001:000019c0       ?_Orphan_all@?$vector@UtagMONITORINFO@@V?$allocator@UtagMONITORINFO@@@std@@@std@@AAEXXZ 004029c0 f i sdk_demo_v2.obj
 0001:000019c0       ?_Orphan_all@?$vector@V?$basic_string@_WU?$char_traits@_W@std@@V?$allocator@_W@2@@std@@V?$allocator@V?$basic_string@_WU?$char_traits@_W@std@@V?$allocator@_W@2@@std@@@2@@std@@AAEXXZ 004029c0 f i custom_ui_share_flow.obj
 0001:000019c0       ?_Orphan_all@?$basic_string@_WU?$char_traits@_W@std@@V?$allocator@_W@2@@std@@QAEXXZ 004029c0 f i AnnotateBarWindow.obj
 0001:000019c0       ?_Orphan_all@?$vector@PAVIVirtualBGImageInfo@ZOOMSDK@@V?$allocator@PAVIVirtualBGImageInfo@ZOOMSDK@@@std@@@std@@AAEXXZ 004029c0 f i settings_ui.obj
 0001:000019e0       ?_Tidy_deallocate@?$basic_string@_WU?$char_traits@_W@std@@V?$allocator@_W@2@@std@@AAEXXZ 004029e0 f i AnnotateBarWindow.obj
 0001:00001ab0       ?_Tidy_init@?$basic_string@_WU?$char_traits@_W@std@@V?$allocator@_W@2@@std@@AAEXXZ 00402ab0 f i AnnotateBarWindow.obj
 0001:00001b00       ?_Xlen@?$basic_string@DU?$char_traits@D@std@@V?$allocator@D@2@@std@@CAXXZ 00402b00 f i sdk_demo_v2.obj
 0001:00001b00       ?_Xlen@?$basic_string@_WU?$char_traits@_W@std@@V?$allocator@_W@2@@std@@CAXXZ 00402b00 f i AnnotateBarWindow.obj
 0001:00001b10       ?allocate@?$allocator@_W@std@@QAEPA_WI@Z 00402b10 f i AnnotateBarWindow.obj
 0001:00001b40       ?assign@?$_WChar_traits@_W@std@@SAXAA_WAB_W@Z 00402b40 f i AnnotateBarWindow.obj
 0001:00001b60       ?assign@?$basic_string@_WU?$char_traits@_W@std@@V?$allocator@_W@2@@std@@QAEAAV12@QB_W@Z 00402b60 f i AnnotateBarWindow.obj
 0001:00001b90       ?assign@?$basic_string@_WU?$char_traits@_W@std@@V?$allocator@_W@2@@std@@QAEAAV12@QB_WI@Z 00402b90 f i AnnotateBarWindow.obj
 0001:00001c20       ?compare@?$_WChar_traits@_W@std@@SAHQB_W0I@Z 00402c20 f i AnnotateBarWindow.obj
 0001:00001c40       ?copy@?$_WChar_traits@_W@std@@SAPA_WQA_WQB_WI@Z 00402c40 f i AnnotateBarWindow.obj
 0001:00001c60       ?deallocate@?$allocator@_W@std@@QAEXQA_WI@Z 00402c60 f i AnnotateBarWindow.obj
 0001:00001c80       ?length@?$_WChar_traits@_W@std@@SAIPB_W@Z 00402c80 f i AnnotateBarWindow.obj
 0001:00001cc0       ?max_size@?$_Default_allocator_traits@V?$allocator@_W@std@@@std@@SAIABV?$allocator@_W@2@@Z 00402cc0 f i AnnotateBarWindow.obj
 0001:00001cc0       ?max@?$numeric_limits@H@std@@SAHXZ 00402cc0 f i AnnotateBarWindow.obj
 0001:00001cd0       ?max_size@?$basic_string@_WU?$char_traits@_W@std@@V?$allocator@_W@2@@std@@QBEIXZ 00402cd0 f i AnnotateBarWindow.obj
 0001:00001d30       ?move@?$_WChar_traits@_W@std@@SAPA_WQA_WQB_WI@Z 00402d30 f i AnnotateBarWindow.obj
 0001:00001d50       ?onClickClear@AnnotateBarWindow@@AAEXPAVICustomizedAnnotationObj@ZOOMSDK@@@Z 00402d50 f   AnnotateBarWindow.obj
 0001:00001eb0       ?onClickDraw@AnnotateBarWindow@@AAEXPAVICustomizedAnnotationObj@ZOOMSDK@@@Z 00402eb0 f   AnnotateBarWindow.obj
 0001:00001fe0       ?onClickFormat@AnnotateBarWindow@@AAEXPAVICustomizedAnnotationObj@ZOOMSDK@@@Z 00402fe0 f   AnnotateBarWindow.obj
 0001:00002110       ?onClickSpotlight@AnnotateBarWindow@@AAEXPAVICustomizedAnnotationObj@ZOOMSDK@@@Z 00403110 f   AnnotateBarWindow.obj
 0001:00002240       ?onClickStamp@AnnotateBarWindow@@AAEXPAVICustomizedAnnotationObj@ZOOMSDK@@@Z 00403240 f   AnnotateBarWindow.obj
 0001:00002370       _HRESULT_FROM_WIN32        00403370 f i AnnotateBarWindow.obj
 0001:000023b0       _wmemcmp                   004033b0 f i AnnotateBarWindow.obj
 0001:00002420       _wmemcpy                   00403420 f i AnnotateBarWindow.obj
 0001:00002440       _wmemmove                  00403440 f i AnnotateBarWindow.obj
 0001:00002460       ??0AnnotateClearWindow@@QAE@PAVICustomizedAnnotationObj@ZOOMSDK@@@Z 00403460 f   AnnotateClearWindow.obj
 0001:000024e0       ??1AnnotateClearWindow@@QAE@XZ 004034e0 f   AnnotateClearWindow.obj
 0001:00002530       ?GetSkinRes@AnnotateClearWindow@@UAEIXZ 00403530 f i AnnotateClearWindow.obj
 0001:00002540       ?HandleMessage@AnnotateClearWindow@@UAEJIIJ@Z 00403540 f   AnnotateClearWindow.obj
 0001:00002760       ?InitWindow@AnnotateClearWindow@@UAEXXZ 00403760 f   AnnotateClearWindow.obj
 0001:000027c0       ?MoveWindowPosTo@AnnotateClearWindow@@QAEXPAUHWND__@@@Z 004037c0 f   AnnotateClearWindow.obj
 0001:00002850       ?Notify@AnnotateClearWindow@@UAEXAAUtagTNotifyUI@DuiLib@@@Z 00403850 f   AnnotateClearWindow.obj
 0001:00002900       ??0AnnotateDrawWindow@@QAE@PAVICustomizedAnnotationObj@ZOOMSDK@@@Z 00403900 f   AnnotateDrawWindow.obj
 0001:000029f0       ??1AnnotateDrawWindow@@QAE@XZ 004039f0 f   AnnotateDrawWindow.obj
 0001:00002a40       ?GetSkinRes@AnnotateDrawWindow@@UAEIXZ 00403a40 f i AnnotateDrawWindow.obj
 0001:00002a50       ?HandleMessage@AnnotateDrawWindow@@UAEJIIJ@Z 00403a50 f   AnnotateDrawWindow.obj
 0001:00002c70       ?InitWindow@AnnotateDrawWindow@@UAEXXZ 00403c70 f   AnnotateDrawWindow.obj
 0001:00002db0       ?MoveWindowPosTo@AnnotateDrawWindow@@QAEXPAUHWND__@@@Z 00403db0 f   AnnotateDrawWindow.obj
 0001:00002e40       ?Notify@AnnotateDrawWindow@@UAEXAAUtagTNotifyUI@DuiLib@@@Z 00403e40 f   AnnotateDrawWindow.obj
 0001:000030d0       ??0AnnotateFormatWindow@@QAE@PAVICustomizedAnnotationObj@ZOOMSDK@@@Z 004040d0 f   AnnotateFormatWindow.obj
 0001:00003230       ??1AnnotateFormatWindow@@QAE@XZ 00404230 f   AnnotateFormatWindow.obj
 0001:00003280       ?GetSkinRes@AnnotateFormatWindow@@UAEIXZ 00404280 f i AnnotateFormatWindow.obj
 0001:00003290       ?HandleMessage@AnnotateFormatWindow@@UAEJIIJ@Z 00404290 f   AnnotateFormatWindow.obj
 0001:000034b0       ?InitWindow@AnnotateFormatWindow@@UAEXXZ 004044b0 f   AnnotateFormatWindow.obj
 0001:000036b0       ?MoveWindowPosTo@AnnotateFormatWindow@@QAEXPAUHWND__@@@Z 004046b0 f   AnnotateFormatWindow.obj
 0001:00003740       ?Notify@AnnotateFormatWindow@@UAEXAAUtagTNotifyUI@DuiLib@@@Z 00404740 f   AnnotateFormatWindow.obj
 0001:00003a90       ?onClickColor@AnnotateFormatWindow@@AAEXH@Z 00404a90 f   AnnotateFormatWindow.obj
 0001:00003bb0       ??0AnnotateSpolightWindow@@QAE@PAVICustomizedAnnotationObj@ZOOMSDK@@@Z 00404bb0 f   AnnotateSpolightWindow.obj
 0001:00003c20       ??1AnnotateSpolightWindow@@QAE@XZ 00404c20 f   AnnotateSpolightWindow.obj
 0001:00003c70       ?GetSkinRes@AnnotateSpolightWindow@@UAEIXZ 00404c70 f i AnnotateSpolightWindow.obj
 0001:00003c80       ?HandleMessage@AnnotateSpolightWindow@@UAEJIIJ@Z 00404c80 f   AnnotateSpolightWindow.obj
 0001:00003ea0       ?InitWindow@AnnotateSpolightWindow@@UAEXXZ 00404ea0 f   AnnotateSpolightWindow.obj
 0001:00003ee0       ?MoveWindowPosTo@AnnotateSpolightWindow@@QAEXPAUHWND__@@@Z 00404ee0 f   AnnotateSpolightWindow.obj
 0001:00003f70       ?Notify@AnnotateSpolightWindow@@UAEXAAUtagTNotifyUI@DuiLib@@@Z 00404f70 f   AnnotateSpolightWindow.obj
 0001:00004000       ??0AnnotateStampWindow@@QAE@PAVICustomizedAnnotationObj@ZOOMSDK@@@Z 00405000 f   AnnotateStampWindow.obj
 0001:000040a0       ??1AnnotateStampWindow@@QAE@XZ 004050a0 f   AnnotateStampWindow.obj
 0001:000040f0       ?GetSkinRes@AnnotateStampWindow@@UAEIXZ 004050f0 f i AnnotateStampWindow.obj
 0001:00004100       ?HandleMessage@AnnotateStampWindow@@UAEJIIJ@Z 00405100 f   AnnotateStampWindow.obj
 0001:00004320       ?InitWindow@AnnotateStampWindow@@UAEXXZ 00405320 f   AnnotateStampWindow.obj
 0001:000043d0       ?MoveWindowPosTo@AnnotateStampWindow@@QAEXPAUHWND__@@@Z 004053d0 f   AnnotateStampWindow.obj
 0001:00004460       ?Notify@AnnotateStampWindow@@UAEXAAUtagTNotifyUI@DuiLib@@@Z 00405460 f   AnnotateStampWindow.obj
 0001:00004570       ??0CArrowWindow@@QAE@PAVCCustomizeInMeetingUIMgr@@@Z 00405570 f   arrow_window.obj
 0001:000045f0       ??1CArrowWindow@@QAE@XZ    004055f0 f   arrow_window.obj
 0001:00004630       ?DestroyWindow@CToolbarBottom@@QAE_NXZ 00405630 f   toolbar_bottom_ui.obj
 0001:00004630       ?DestroyWindow@CParticipantUIMgr@@QAE_NXZ 00405630 f   participant_ui.obj
 0001:00004630       ?DestroyWindow@CArrowWindow@@QAE_NXZ 00405630 f   arrow_window.obj
 0001:00004670       ?DoButtonClick@CArrowWindow@@AAEXW4ArrowButtonType@@@Z 00405670 f   arrow_window.obj
 0001:000046a0       ?EnableUsingButton@CArrowWindow@@QAEXW4ArrowButtonType@@_N@Z 004056a0 f   arrow_window.obj
 0001:000047d0       ?GetClassStyle@CToolbarBottom@@UBEIXZ 004057d0 f i toolbar_bottom_ui.obj
 0001:000047d0       ?GetClassStyle@CUtilWnd@@UBEIXZ 004057d0 f i util_window.obj
 0001:000047d0       ?GetClassStyle@CMoreMenuUIMgr@@UBEIXZ 004057d0 f i more_menu_ui.obj
 0001:000047d0       ?GetClassStyle@CParticipantUIMgr@@UBEIXZ 004057d0 f i participant_ui.obj
 0001:000047d0       ?GetClassStyle@CArrowWindow@@UBEIXZ 004057d0 f i arrow_window.obj
 0001:000047d0       ?GetClassStyle@CMoreFeaturesUIMgr@@UBEIXZ 004057d0 f i more_features_ui.obj
 0001:000047d0       ?GetClassStyle@CCustomizeUIShareSelectUI@@UBEIXZ 004057d0 f i custom_ui_share_mgr.obj
 0001:000047e0       ?GetSkinRes@CArrowWindow@@UAEIXZ 004057e0 f i arrow_window.obj
 0001:000047f0       ?HandleMessage@CArrowWindow@@UAEJIIJ@Z 004057f0 f   arrow_window.obj
 0001:000049a0       ?HandleSizeChanged@CArrowWindow@@QAEXUtagRECT@@@Z 004059a0 f   arrow_window.obj
 0001:00004ac0       ?InitWindow@CArrowWindow@@UAEXXZ 00405ac0 f   arrow_window.obj
 0001:00004bd0       ?IsWindow@CArrowWindow@@QAE_NXZ 00405bd0 f   arrow_window.obj
 0001:00004bd0       ?IsWindow@CToolbarBottom@@QAE_NXZ 00405bd0 f   toolbar_bottom_ui.obj
 0001:00004bd0       ?IsWindow@CParticipantUIMgr@@QAE_NXZ 00405bd0 f   participant_ui.obj
 0001:00004c00       ?Notify@CArrowWindow@@UAEXAAUtagTNotifyUI@DuiLib@@@Z 00405c00 f   arrow_window.obj
 0001:00004c70       ??0CameraControlWindow@@QAE@PAVCCustomizeInMeetingUIMgr@@@Z 00405c70 f   CameraControlWindow.obj
 0001:00004d10       ?GetSkinRes@CameraControlWindow@@UAEIXZ 00405d10 f i CameraControlWindow.obj
 0001:00004d20       ?HandleMessage@CameraControlWindow@@UAEJIIJ@Z 00405d20 f   CameraControlWindow.obj
 0001:00004f30       ?InitWindow@CameraControlWindow@@UAEXXZ 00405f30 f   CameraControlWindow.obj
 0001:00005050       ?Notify@CameraControlWindow@@UAEXAAUtagTNotifyUI@DuiLib@@@Z 00406050 f   CameraControlWindow.obj
 0001:000052f0       ??$?0V?$allocator@_W@std@@$$V@?$_Compressed_pair@V?$allocator@_W@std@@V?$_String_val@U?$_Simple_types@_W@std@@@2@$00@std@@QAE@U_One_then_variadic_args_t@1@$$QAV?$allocator@_W@1@@Z 004062f0 f i chat_controller_ui.obj
 0001:00005320       ??$?H_WU?$char_traits@_W@std@@V?$allocator@_W@1@@std@@YA?AV?$basic_string@_WU?$char_traits@_W@std@@V?$allocator@_W@2@@0@$$QAV10@0@Z 00406320 f i chat_controller_ui.obj
 0001:000053d0       ??$?H_WU?$char_traits@_W@std@@V?$allocator@_W@1@@std@@YA?AV?$basic_string@_WU?$char_traits@_W@std@@V?$allocator@_W@2@@0@$$QAV10@ABV10@@Z 004063d0 f i chat_controller_ui.obj
 0001:00005410       ??$?H_WU?$char_traits@_W@std@@V?$allocator@_W@1@@std@@YA?AV?$basic_string@_WU?$char_traits@_W@std@@V?$allocator@_W@2@@0@$$QAV10@QB_W@Z 00406410 f i chat_controller_ui.obj
 0001:00005450       ??$_Pocma@V?$allocator@_W@std@@@std@@YAXAAV?$allocator@_W@0@0@Z 00406450 f i chat_controller_ui.obj
 0001:00005470       ??$_Reallocate_grow_by@V<lambda_09fe38f6114539daa867a3e4d6874f49>@@IPB_WI@?$basic_string@_WU?$char_traits@_W@std@@V?$allocator@_W@2@@std@@AAEAAV01@IV<lambda_09fe38f6114539daa867a3e4d6874f49>@@IPB_WI@Z 00406470 f i chat_controller_ui.obj
 0001:000055b0       ??$_Reallocate_grow_by@V<lambda_2fb699096920f2dc628cb0826b07831d>@@PB_WI@?$basic_string@_WU?$char_traits@_W@std@@V?$allocator@_W@2@@std@@AAEAAV01@IV<lambda_2fb699096920f2dc628cb0826b07831d>@@PB_WI@Z 004065b0 f i chat_controller_ui.obj
 0001:000056e0       ??0?$basic_string@_WU?$char_traits@_W@std@@V?$allocator@_W@2@@std@@QAE@$$QAV01@@Z 004066e0 f i chat_controller_ui.obj
 0001:00005770       ??0?$basic_string@_WU?$char_traits@_W@std@@V?$allocator@_W@2@@std@@QAE@XZ 00406770 f i chat_controller_ui.obj
 0001:000057e0       ??0CSDKMeetingChatUIMgr@@QAE@PAVCCustomizeInMeetingUIMgr@@@Z 004067e0 f   chat_controller_ui.obj
 0001:000058c0       ??0IMeetingChatCtrlEventWrap@@QAE@XZ 004068c0 f i chat_controller_ui.obj
 0001:000058e0       ??1CSDKMeetingChatUIMgr@@UAE@XZ 004068e0 f   chat_controller_ui.obj
 0001:00005970       ??4?$basic_string@_WU?$char_traits@_W@std@@V?$allocator@_W@2@@std@@QAEAAV01@$$QAV01@@Z 00406970 f i chat_controller_ui.obj
 0001:000059b0       ??R<lambda_09fe38f6114539daa867a3e4d6874f49>@@QBEXQA_WQB_WII1I@Z 004069b0 f i chat_controller_ui.obj
 0001:00005a20       ??R<lambda_2fb699096920f2dc628cb0826b07831d>@@QBEXQA_WQB_WI1I@Z 00406a20 f i chat_controller_ui.obj
 0001:00005a80       ??_ECSDKMeetingChatUIMgr@@UAEPAXI@Z 00406a80 f i chat_controller_ui.obj
 0001:00005a80       ??_GCSDKMeetingChatUIMgr@@UAEPAXI@Z 00406a80 f i chat_controller_ui.obj
 0001:00005ac0       ?DestroyWindow@CSDKMeetingChatUIMgr@@QAE_NXZ 00406ac0 f   chat_controller_ui.obj
 0001:00005ac0       ?DestroyWindow@CCustomizeUIShareSelectUI@@QAE_NXZ 00406ac0 f   custom_ui_share_mgr.obj
 0001:00005b00       ?DoPressEnterKey@CSDKMeetingChatUIMgr@@AAEXXZ 00406b00 f   chat_controller_ui.obj
 0001:00006020       ?GetSkinRes@CSDKMeetingChatUIMgr@@UAEIXZ 00407020 f i chat_controller_ui.obj
 0001:00006030       ?GetUserList@CSDKMeetingChatUIMgr@@AAEXXZ 00407030 f   chat_controller_ui.obj
 0001:00006070       ?HandleMessage@CSDKMeetingChatUIMgr@@UAEJIIJ@Z 00407070 f   chat_controller_ui.obj
 0001:00006280       ?HandleUserChanged@CSDKMeetingChatUIMgr@@QAEXXZ 00407280 f   chat_controller_ui.obj
 0001:000062a0       ?InitWindow@CSDKMeetingChatUIMgr@@UAEXXZ 004072a0 f   chat_controller_ui.obj
 0001:00006440       ?Notify@CSDKMeetingChatUIMgr@@UAEXAAUtagTNotifyUI@DuiLib@@@Z 00407440 f   chat_controller_ui.obj
 0001:00006580       ?OnClose@CSDKMeetingChatUIMgr@@QAEJIIJAAH@Z 00407580 f   chat_controller_ui.obj
 0001:000065b0       ?OnDestroy@CSDKMeetingChatUIMgr@@QAEJIIJAAH@Z 004075b0 f   chat_controller_ui.obj
 0001:000065d0       ?SendChatMsg@CSDKMeetingChatUIMgr@@AAE_NIPA_W@Z 004075d0 f   chat_controller_ui.obj
 0001:00006610       ?UpdateUserListCombox@CSDKMeetingChatUIMgr@@AAEXXZ 00407610 f   chat_controller_ui.obj
 0001:00006850       ?_Check_offset@?$_String_val@U?$_Simple_types@_W@std@@@std@@QBEXI@Z 00407850 f i chat_controller_ui.obj
 0001:00006870       ?_Move_assign@?$basic_string@_WU?$char_traits@_W@std@@V?$allocator@_W@2@@std@@AAEXAAV12@U_Equal_allocators@2@@Z 00407870 f i chat_controller_ui.obj
 0001:000068c0       ?_Take_contents@?$basic_string@_WU?$char_traits@_W@std@@V?$allocator@_W@2@@std@@QAEXAAV12@U?$integral_constant@_N$00@2@@Z 004078c0 f i chat_controller_ui.obj
 0001:00006930       ?_Xran@?$_String_val@U?$_Simple_types@_W@std@@@std@@SAXXZ 00407930 f i chat_controller_ui.obj
 0001:00006940       ?append@?$basic_string@_WU?$char_traits@_W@std@@V?$allocator@_W@2@@std@@QAEAAV12@ABV12@@Z 00407940 f i chat_controller_ui.obj
 0001:00006980       ?append@?$basic_string@_WU?$char_traits@_W@std@@V?$allocator@_W@2@@std@@QAEAAV12@QB_W@Z 00407980 f i chat_controller_ui.obj
 0001:000069b0       ?append@?$basic_string@_WU?$char_traits@_W@std@@V?$allocator@_W@2@@std@@QAEAAV12@QB_WI@Z 004079b0 f i chat_controller_ui.obj
 0001:00006a60       ?c_str@?$basic_string@_WU?$char_traits@_W@std@@V?$allocator@_W@2@@std@@QBEPB_WXZ 00407a60 f i chat_controller_ui.obj
 0001:00006ab0       ?capacity@?$basic_string@_WU?$char_traits@_W@std@@V?$allocator@_W@2@@std@@QBEIXZ 00407ab0 f i chat_controller_ui.obj
 0001:00006ad0       ?insert@?$basic_string@_WU?$char_traits@_W@std@@V?$allocator@_W@2@@std@@QAEAAV12@IABV12@@Z 00407ad0 f i chat_controller_ui.obj
 0001:00006b10       ?insert@?$basic_string@_WU?$char_traits@_W@std@@V?$allocator@_W@2@@std@@QAEAAV12@IQB_WI@Z 00407b10 f i chat_controller_ui.obj
 0001:00006c40       ?onChatMsgNotifcation@CSDKMeetingChatUIMgr@@UAEXPAVIChatMsgInfo@ZOOMSDK@@PB_W@Z 00407c40 f   chat_controller_ui.obj
 0001:00007420       ?size@?$basic_string@_WU?$char_traits@_W@std@@V?$allocator@_W@2@@std@@QBEIXZ 00408420 f i chat_controller_ui.obj
 0001:00007420       ?length@?$basic_string@_WU?$char_traits@_W@std@@V?$allocator@_W@2@@std@@QBEIXZ 00408420 f i custom_ui_share_mgr.obj
 0001:00007440       ??0CSDKChatControllerWorkFlow@@QAE@XZ 00408440 f   chat_controller_workflow.obj
 0001:00007490       ??0IMeetingChatCtrlEvent@ZOOMSDK@@QAE@XZ 00408490 f i chat_controller_workflow.obj
 0001:000074b0       ??1CSDKChatControllerWorkFlow@@UAE@XZ 004084b0 f   chat_controller_workflow.obj
 0001:00007520       ??_GCSDKChatControllerWorkFlow@@UAEPAXI@Z 00408520 f i chat_controller_workflow.obj
 0001:00007520       ??_ECSDKChatControllerWorkFlow@@UAEPAXI@Z 00408520 f i chat_controller_workflow.obj
 0001:00007550       ?InitController@CSDKChatControllerWorkFlow@@QAE_NXZ 00408550 f   chat_controller_workflow.obj
 0001:000075d0       ?SendChatMsg@CSDKChatControllerWorkFlow@@QAE?AW4SDKError@ZOOMSDK@@IPA_W@Z 004085d0 f   chat_controller_workflow.obj
 0001:00007610       ?SetUserEmail@CZoomHttpRequestHelper@@QAEXPA_W@Z 00408610 f   HttpRequestHelper.obj
 0001:00007610       ?SetEvent@CSDKChatControllerWorkFlow@@QAEXPAVIMeetingChatCtrlEventWrap@@@Z 00408610 f   chat_controller_workflow.obj
 0001:00007630       ?UnInit@CSDKChatControllerWorkFlow@@QAEXXZ 00408630 f   chat_controller_workflow.obj
 0001:00007680       ?onMeetingStatusChanged@CSDKJoinMeetingForLoginUserFlow@@UAEXW4MeetingStatus@ZOOMSDK@@H@Z 00408680 f   Join_meeting_for_login_user_workflow.obj
 0001:00007680       ?onChatMsgNotifcation@CSDKChatControllerWorkFlow@@UAEXPAVIChatMsgInfo@ZOOMSDK@@PB_W@Z 00408680 f   chat_controller_workflow.obj
 0001:00007680       ?onMeetingStatusChanged@CSDKRestAPIUserWorkFlow@@UAEXW4MeetingStatus@ZOOMSDK@@H@Z 00408680 f   LOGIN_restapi_without_login_workflow.obj
 0001:00007680       ?onMeetingStatusChanged@CSDKWithoutLoginStartJoinMeetingFlow@@UAEXW4MeetingStatus@ZOOMSDK@@H@Z 00408680 f   LOGIN_join_meeting_only_workflow.obj
 0001:000076b0       ?onChatStautsChangedNotification@CSDKChatControllerWorkFlow@@UAEXPAUtagChatStatus@ZOOMSDK@@@Z 004086b0 f   chat_controller_workflow.obj
 0001:000076b0       ?onMeetingStatisticsWarningNotification@CSDKRestAPIUserWorkFlow@@UAEXW4StatisticsWarningType@ZOOMSDK@@@Z 004086b0 f   LOGIN_restapi_without_login_workflow.obj
 0001:000076e0       ??$?8_WU?$char_traits@_W@std@@V?$allocator@_W@1@@std@@YA_NQB_WABV?$basic_string@_WU?$char_traits@_W@std@@V?$allocator@_W@2@@0@@Z 004086e0 f i close_caption_ui.obj
 0001:00007700       ??0CCloseCaptionUIMgr@@QAE@PAVCCustomizeInMeetingUIMgr@@@Z 00408700 f   close_caption_ui.obj
 0001:000077e0       ??0IClosedCaptionWorkflowEvent@@QAE@XZ 004087e0 f i close_caption_ui.obj
 0001:00007800       ??1CCloseCaptionUIMgr@@UAE@XZ 00408800 f   close_caption_ui.obj
 0001:000078d0       ??_GCCloseCaptionUIMgr@@UAEPAXI@Z 004088d0 f i close_caption_ui.obj
 0001:000078d0       ??_ECCloseCaptionUIMgr@@UAEPAXI@Z 004088d0 f i close_caption_ui.obj
 0001:00007910       ?DoClickAssignedBtn@CCloseCaptionUIMgr@@AAEXXZ 00408910 f   close_caption_ui.obj
 0001:00007dc0       ?DoClickCopyBtn@CCloseCaptionUIMgr@@AAEXXZ 00408dc0 f   close_caption_ui.obj
 0001:00007e20       ?DoClickEnterBtn@CCloseCaptionUIMgr@@AAEXXZ 00408e20 f   close_caption_ui.obj
 0001:00008010       ?DoClickSaveBtn@CCloseCaptionUIMgr@@AAEXXZ 00409010 f   close_caption_ui.obj
 0001:00008080       ?GetAssignedStatus@CCloseCaptionUIMgr@@QAE_NXZ 00409080 f   close_caption_ui.obj
 0001:000080a0       ?GetSkinRes@CCloseCaptionUIMgr@@UAEIXZ 004090a0 f i close_caption_ui.obj
 0001:000080b0       ?HandleMessage@CCloseCaptionUIMgr@@UAEJIIJ@Z 004090b0 f   close_caption_ui.obj
 0001:000082c0       ?HideAssignLayout@CCloseCaptionUIMgr@@QAEXXZ 004092c0 f   close_caption_ui.obj
 0001:00008300       ?Init@CCloseCaptionUIMgr@@AAEXXZ 00409300 f   close_caption_ui.obj
 0001:000083d0       ?InitWindow@CCloseCaptionUIMgr@@UAEXXZ 004093d0 f   close_caption_ui.obj
 0001:000086c0       ?IsHost@CCloseCaptionUIMgr@@QAE_NXZ 004096c0 f   close_caption_ui.obj
 0001:000086e0       ?Notify@CCloseCaptionUIMgr@@UAEXAAUtagTNotifyUI@DuiLib@@@Z 004096e0 f   close_caption_ui.obj
 0001:000087a0       ?ShowErrorsMsg@CCloseCaptionUIMgr@@AAEXPB_W@Z 004097a0 f   close_caption_ui.obj
 0001:000087c0       ?UpdateListCombox@CCloseCaptionUIMgr@@QAEXXZ 004097c0 f   close_caption_ui.obj
 0001:00008a00       ?onAssignedToSendCC@CCloseCaptionUIMgr@@UAEX_N@Z 00409a00 f   close_caption_ui.obj
 0001:00008a60       ?onClosedCaptionMsgReceived@CCloseCaptionUIMgr@@UAEXPB_W_J@Z 00409a60 f   close_caption_ui.obj
 0001:00008ce0       ??0CCloseCaptionWorkflow@@QAE@XZ 00409ce0 f   close_caption_workflow.obj
 0001:00008d20       ??0IClosedCaptionControllerEvent@ZOOMSDK@@QAE@XZ 00409d20 f i close_caption_workflow.obj
 0001:00008d40       ??1CCloseCaptionWorkflow@@UAE@XZ 00409d40 f   close_caption_workflow.obj
 0001:00008db0       ??_GCCloseCaptionWorkflow@@UAEPAXI@Z 00409db0 f i close_caption_workflow.obj
 0001:00008db0       ??_ECCloseCaptionWorkflow@@UAEPAXI@Z 00409db0 f i close_caption_workflow.obj
 0001:00008de0       ?AssignCCPriviledge@CCloseCaptionWorkflow@@QAE?AW4SDKError@ZOOMSDK@@I_N@Z 00409de0 f   close_caption_workflow.obj
 0001:00008e30       ?CanBeAssignedToSendCC@CCloseCaptionWorkflow@@QAE_NI@Z 00409e30 f   close_caption_workflow.obj
 0001:00008e70       ?CanIAssignOthersToSendCC@CCloseCaptionWorkflow@@QAE_NXZ 00409e70 f   close_caption_workflow.obj
 0001:00008eb0       ?CanSendClosedCaption@CCloseCaptionWorkflow@@QAE_NXZ 00409eb0 f   close_caption_workflow.obj
 0001:00008ef0       ?GetClosedCaptionSavePath@CCloseCaptionWorkflow@@QAEPB_WXZ 00409ef0 f   close_caption_workflow.obj
 0001:00008f30       ?GetClosedCaptionUrlFor3rdParty@CCloseCaptionWorkflow@@QAEPB_WXZ 00409f30 f   close_caption_workflow.obj
 0001:00008f70       ?Init@CCloseCaptionWorkflow@@QAEXXZ 00409f70 f   close_caption_workflow.obj
 0001:00008fd0       ?SaveCCHistory@CCloseCaptionWorkflow@@QAE?AW4SDKError@ZOOMSDK@@XZ 00409fd0 f   close_caption_workflow.obj
 0001:00009030       ?SendClosedCaption@CCloseCaptionWorkflow@@QAE?AW4SDKError@ZOOMSDK@@PB_W@Z 0040a030 f   close_caption_workflow.obj
 0001:00009070       ?SetUIEvent@CSDKWithoutLoginStartJoinMeetingFlow@@QAEXPAVCSDKJoinMeetingOnlyFlowUIEvent@@@Z 0040a070 f   LOGIN_join_meeting_only_workflow.obj
 0001:00009070       ?SetUIEvent@CSDKAudioSettingsWorkFlow@@QAEXPAVCSDKAudioSettingsUIEvent@@@Z 0040a070 f   SETTINGS_audio_workflow.obj
 0001:00009070       ?SetEvent@CCloseCaptionWorkflow@@QAEXPAVIClosedCaptionWorkflowEvent@@@Z 0040a070 f   close_caption_workflow.obj
 0001:00009070       ?SetUIEvent@CSDKLoggedInUIWorkFlow@@QAEXPAVCSDKLoggedInFlowUIEvent@@@Z 0040a070 f   LoggedIn_sdk_controller_workflow.obj
 0001:00009070       ?SetUIEvent@CSDKVideoSettingsWorkFlow@@QAEXPAVCSDKVideoSettingsUIEvent@@@Z 0040a070 f   SETTINGS_video_workflow.obj
 0001:00009090       ?onAssignedToSendCC@CCloseCaptionWorkflow@@UAEX_N@Z 0040a090 f   close_caption_workflow.obj
 0001:000090c0       ?onClosedCaptionMsgReceived@CCloseCaptionWorkflow@@UAEXPB_W_J@Z 0040a0c0 f   close_caption_workflow.obj
 0001:00009100       ??0CustomizedUIRecordMgr@@AAE@XZ 0040a100 f   CustomizedUIRecordMgr.obj
 0001:00009130       ??0IMeetingRecordingCtrlEvent@ZOOMSDK@@QAE@XZ 0040a130 f i CustomizedUIRecordMgr.obj
 0001:00009150       ??4?$basic_string@_WU?$char_traits@_W@std@@V?$allocator@_W@2@@std@@QAEAAV01@QB_W@Z 0040a150 f i CustomizedUIRecordMgr.obj
 0001:00009170       ?AllowLocalRecording@CustomizedUIRecordMgr@@QAE_NI@Z 0040a170 f   CustomizedUIRecordMgr.obj
 0001:000091c0       ?CanIChangeOthersRecordingPermission@CustomizedUIRecordMgr@@QAE_NXZ 0040a1c0 f   CustomizedUIRecordMgr.obj
 0001:00009210       ?CanIStartCloudRecording@CustomizedUIRecordMgr@@QAE_NXZ 0040a210 f   CustomizedUIRecordMgr.obj
 0001:00009230       ?CanIStartLocalRecording@CustomizedUIRecordMgr@@QAE_NXZ 0040a230 f   CustomizedUIRecordMgr.obj
 0001:00009250       ?CanTheUserStartCloudRecording@CustomizedUIRecordMgr@@QAE_NI@Z 0040a250 f   CustomizedUIRecordMgr.obj
 0001:000092a0       ?CanTheUserStartLocalRecording@CustomizedUIRecordMgr@@QAE_NI@Z 0040a2a0 f   CustomizedUIRecordMgr.obj
 0001:000092f0       ?DisAllowLocalRecording@CustomizedUIRecordMgr@@QAE_NI@Z 0040a2f0 f   CustomizedUIRecordMgr.obj
 0001:00009340       ?GetInstance@CustomizedUIRecordMgr@@SAPAV1@XZ 0040a340 f   CustomizedUIRecordMgr.obj
 0001:000093d0       ?GetRecordController@CustomizedUIRecordMgr@@AAEXXZ 0040a3d0 f   CustomizedUIRecordMgr.obj
 0001:00009440       ?StartCloudRecording@CustomizedUIRecordMgr@@QAE_NXZ 0040a440 f   CustomizedUIRecordMgr.obj
 0001:00009490       ?StartRecording@CustomizedUIRecordMgr@@QAE_NAA_J@Z 0040a490 f   CustomizedUIRecordMgr.obj
 0001:00009530       ?StopRecording@CustomizedUIRecordMgr@@QAE_NAA_J@Z 0040a530 f   CustomizedUIRecordMgr.obj
 0001:00009580       ?onCloudRecordingStatus@CustomizedUIRecordMgr@@UAEXW4RecordingStatus@ZOOMSDK@@@Z 0040a580 f   CustomizedUIRecordMgr.obj
 0001:00009670       ?onCustomizedLocalRecordingSourceNotification@CustomizedUIRecordMgr@@UAEXPAVICustomizedLocalRecordingLayoutHelper@ZOOMSDK@@@Z 0040a670 f   CustomizedUIRecordMgr.obj
 0001:000099a0       ?onRecordPriviligeChanged@CustomizedUIRecordMgr@@UAEX_N@Z 0040a9a0 f   CustomizedUIRecordMgr.obj
 0001:000099e0       ?onRecording2MP4Done@CustomizedUIRecordMgr@@UAEX_NHPB_W@Z 0040a9e0 f   CustomizedUIRecordMgr.obj
 0001:00009aa0       ?onRecording2MP4Processing@CustomizedUIRecordMgr@@UAEXH@Z 0040aaa0 f   CustomizedUIRecordMgr.obj
 0001:00009b00       ?onRecordingStatus@CustomizedUIRecordMgr@@UAEXW4RecordingStatus@ZOOMSDK@@@Z 0040ab00 f   CustomizedUIRecordMgr.obj
 0001:00009ba0       ??0CCustomizeInMeetingUIMgr@@QAE@XZ 0040aba0 f   custom_ui_mgr.obj
 0001:00009cb0       ??0ICustomizedShareRenderEvent@ZOOMSDK@@QAE@XZ 0040acb0 f i custom_ui_mgr.obj
 0001:00009cd0       ??0ICustomizedUIMgrEvent@ZOOMSDK@@QAE@XZ 0040acd0 f i custom_ui_mgr.obj
 0001:00009cf0       ??0ICustomizedVideoContainerEvent@ZOOMSDK@@QAE@XZ 0040acf0 f i custom_ui_mgr.obj
 0001:00009d10       ??0ICutomizedUIOwnWndInterface@@IAE@XZ 0040ad10 f i custom_ui_mgr.obj
 0001:00009d40       ??0ISDKInMeetingServiceCustomUIEvent@@QAE@XZ 0040ad40 f i custom_ui_mgr.obj
 0001:00009d60       ??_GCArrowWindow@@QAEPAXI@Z 0040ad60 f i custom_ui_mgr.obj
 0001:00009da0       ??_GCMoreMenuUIMgr@@QAEPAXI@Z 0040ada0 f i custom_ui_mgr.obj
 0001:00009de0       ??_GCParticipantUIMgr@@QAEPAXI@Z 0040ade0 f i custom_ui_mgr.obj
 0001:00009e20       ?ActivateUI@CCustomizeInMeetingUIMgr@@QAEXXZ 0040ae20 f   custom_ui_mgr.obj
 0001:00009e80       ?CreateArrowWindow@CCustomizeInMeetingUIMgr@@AAEXXZ 0040ae80 f   custom_ui_mgr.obj
 0001:0000a050       ?CreateCameraControlWindow@CCustomizeInMeetingUIMgr@@AAEXXZ 0040b050 f   custom_ui_mgr.obj
 0001:0000a140       ?CreateChatWindow@CCustomizeInMeetingUIMgr@@AAEXXZ 0040b140 f   custom_ui_mgr.obj
 0001:0000a250       ?CreateDisplayCCWnd@CCustomizeInMeetingUIMgr@@QAEPAVClosedCaptionDisplayUI@@XZ 0040b250 f   custom_ui_mgr.obj
 0001:0000a380       ?CreateParticipantWindow@CCustomizeInMeetingUIMgr@@AAEXXZ 0040b380 f   custom_ui_mgr.obj
 0001:0000a480       ?DestroyAllSubWindow@CCustomizeInMeetingUIMgr@@AAEXXZ 0040b480 f   custom_ui_mgr.obj
 0001:0000a4d0       ?DestroyArrowWindow@CCustomizeInMeetingUIMgr@@AAEXXZ 0040b4d0 f   custom_ui_mgr.obj
 0001:0000a5c0       ?DestroyChatWindow@CCustomizeInMeetingUIMgr@@AAEXXZ 0040b5c0 f   custom_ui_mgr.obj
 0001:0000a640       ?DestroyDisplayCCWnd@CCustomizeInMeetingUIMgr@@QAEXXZ 0040b640 f   custom_ui_mgr.obj
 0001:0000a6a0       ?DestroyMoreMenuWindow@CCustomizeInMeetingUIMgr@@AAEXXZ 0040b6a0 f   custom_ui_mgr.obj
 0001:0000a710       ?DestroyParticipantWindow@CCustomizeInMeetingUIMgr@@AAEXXZ 0040b710 f   custom_ui_mgr.obj
 0001:0000a790       ?DoLayout@CCustomizeInMeetingUIMgr@@AAEXXZ 0040b790 f   custom_ui_mgr.obj
 0001:0000a7d0       ?DoLayoutActiveVideo@CCustomizeInMeetingUIMgr@@AAEXXZ 0040b7d0 f   custom_ui_mgr.obj
 0001:0000a800       ?DoLayoutArrowWindow@CCustomizeInMeetingUIMgr@@AAEXXZ 0040b800 f   custom_ui_mgr.obj
 0001:0000aa30       ?DoLayoutNormalVideo@CCustomizeInMeetingUIMgr@@AAEXXZ 0040ba30 f   custom_ui_mgr.obj
 0001:0000aa80       ?DoLayoutParticipantsWindow@CCustomizeInMeetingUIMgr@@AAEXXZ 0040ba80 f   custom_ui_mgr.obj
 0001:0000aba0       ?GetCustomizedMgr@CCustomizeInMeetingUIMgr@@QAEPAVICustomizedUIMgr@ZOOMSDK@@XZ 0040bba0 f   custom_ui_mgr.obj
 0001:0000abc0       ?GetHWND@CCustomizeInMeetingUIMgr@@QAEPAUHWND__@@XZ 0040bbc0 f   custom_ui_mgr.obj
 0001:0000abc0       ?GetWindowHandle@CCustomizeUIShareRenderUI@@QAEPAUHWND__@@XZ 0040bbc0 f   custom_ui_share_mgr.obj
 0001:0000abe0       ?GetUserList@CCustomizeInMeetingUIMgr@@QAEPAVCSDKUserList@@XZ 0040bbe0 f   custom_ui_mgr.obj
 0001:0000ac00       ?HandleChatWindowBeClosed@CCustomizeInMeetingUIMgr@@QAEXXZ 0040bc00 f   custom_ui_mgr.obj
 0001:0000ac20       ?HandleInMeeting@CCustomizeInMeetingUIMgr@@AAEXXZ 0040bc20 f   custom_ui_mgr.obj
 0001:0000acb0       ?HandleMoveToWaitingRoom@CCustomizeInMeetingUIMgr@@AAEXXZ 0040bcb0 f   custom_ui_mgr.obj
 0001:0000ad20       ?HideMenuWhenMenuVisible@CCustomizeInMeetingUIMgr@@QAE_NXZ 0040bd20 f   custom_ui_mgr.obj
 0001:0000ad70       ?Init@CCustomizeInMeetingUIMgr@@QAEXXZ 0040bd70 f   custom_ui_mgr.obj
 0001:0000adc0       ?InitCustomShareRender@CCustomizeInMeetingUIMgr@@AAE_NXZ 0040bdc0 f   custom_ui_mgr.obj
 0001:0000aed0       ?InitCustomizeUIVideoMgr@CCustomizeInMeetingUIMgr@@AAE_NXZ 0040bed0 f   custom_ui_mgr.obj
 0001:0000b010       ?InitUserList@CCustomizeInMeetingUIMgr@@AAEXXZ 0040c010 f   custom_ui_mgr.obj
 0001:0000b0b0       ?PageButtonClick@CCustomizeInMeetingUIMgr@@QAEXW4ArrowButtonType@@@Z 0040c0b0 f   custom_ui_mgr.obj
 0001:0000b0f0       ?Reset@CCustomizeInMeetingUIMgr@@AAEXXZ 0040c0f0 f   custom_ui_mgr.obj
 0001:0000b1e0       ?SetEvent@CCustomizeInMeetingUIMgr@@QAEXPAVCSDKDemoAppEvent@@@Z 0040c1e0 f   custom_ui_mgr.obj
 0001:0000b200       ?SetSDKMeetingService@CCustomizeInMeetingUIMgr@@UAEXPAVIMeetingService@ZOOMSDK@@@Z 0040c200 f   custom_ui_mgr.obj
 0001:0000b200       ?SetEvent@CToolbarMgr@@QAEXPAVCSDKDemoAppEvent@@@Z 0040c200 f   toolbar_manager.obj
 0001:0000b200       ?SetFeatureCustomCurrentPage@CSDKFeatureCustomSettingsUIGroup@@QAEXPAVCVerticalLayoutUI@DuiLib@@@Z 0040c200 f   settings_ui.obj
 0001:0000b200       ?SetUIEvent@CSDKJoinMeetingForLoginUserFlow@@QAEXPAVCSDKJoinMeetingForLoginUserFlowUIEvent@@@Z 0040c200 f   Join_meeting_for_login_user_workflow.obj
 0001:0000b200       ?SetUIEvent@CSDKRestAPIUserWorkFlow@@QAEXPAVCSDKRestAPIUserUIEvent@@@Z 0040c200 f   LOGIN_restapi_without_login_workflow.obj
 0001:0000b200       ?SetUIEvent@CInitSDKWorkFlow@@QAEXPAVCInitSDKWorkFlowUIEvent@@@Z 0040c200 f   init_auth_sdk_workflow.obj
 0001:0000b200       ?SetUIEvent@CToolbarBottomWorkFlow@@QAEXPAVCToolbarBottomWorkFlowUIEvent@@@Z 0040c200 f   toolbar_bottom_workflow.obj
 0001:0000b200       ?SetUICustomCurrentPage@CSDKUICustomSettingsUIGroup@@QAEXPAVCVerticalLayoutUI@DuiLib@@@Z 0040c200 f   settings_ui.obj
 0001:0000b200       ?SetUIEvent@CAuthSDKWorkFlow@@QAEXPAVCAuthSDKWorkFlowUIEvent@@@Z 0040c200 f   init_auth_sdk_workflow.obj
 0001:0000b220       ?ShowHideCameraControlWindow@CCustomizeInMeetingUIMgr@@QAEXXZ 0040c220 f   custom_ui_mgr.obj
 0001:0000b2d0       ?ShowHideChatWindow@CCustomizeInMeetingUIMgr@@QAEXXZ 0040c2d0 f   custom_ui_mgr.obj
 0001:0000b3a0       ?ShowHideGalleryViewWindow@CCustomizeInMeetingUIMgr@@QAEXXZ 0040c3a0 f   custom_ui_mgr.obj
 0001:0000b4f0       ?ShowHideMoreMenuWindow@CCustomizeInMeetingUIMgr@@QAEXHH@Z 0040c4f0 f   custom_ui_mgr.obj
 0001:0000b610       ?ShowHideParticipantWindow@CCustomizeInMeetingUIMgr@@QAEXXZ 0040c610 f   custom_ui_mgr.obj
 0001:0000b6b0       ?ShowPreview@CCustomizeInMeetingUIMgr@@AAEXXZ 0040c6b0 f   custom_ui_mgr.obj
 0001:0000b720       ?ShowShareWindow@CCustomizeInMeetingUIMgr@@QAEXXZ 0040c720 f   custom_ui_mgr.obj
 0001:0000b750       ?ShowToolbar@CCustomizeInMeetingUIMgr@@AAEXXZ 0040c750 f   custom_ui_mgr.obj
 0001:0000b810       ?Start@CCustomizeInMeetingUIMgr@@AAEXXZ 0040c810 f   custom_ui_mgr.obj
 0001:0000b940       ?Stop@CCustomizeInMeetingUIMgr@@AAEXXZ 0040c940 f   custom_ui_mgr.obj
 0001:0000ba00       ?UninitUserList@CCustomizeInMeetingUIMgr@@AAEXXZ 0040ca00 f   custom_ui_mgr.obj
 0001:0000ba70       ?UpdateMeetingTitle@CCustomizeInMeetingUIMgr@@AAEX_N@Z 0040ca70 f   custom_ui_mgr.obj
 0001:0000bba0       ?UpdateParticipantsWindow@CCustomizeInMeetingUIMgr@@QAEXXZ 0040cba0 f   custom_ui_mgr.obj
 0001:0000bbd0       ?UpdateShareButtonStatus@CCustomizeInMeetingUIMgr@@QAEXXZ 0040cbd0 f   custom_ui_mgr.obj
 0001:0000bc30       ?UpdateToolbarButtons@CCustomizeInMeetingUIMgr@@QAEXXZ 0040cc30 f   custom_ui_mgr.obj
 0001:0000bd00       ?UpdateUserList@CCustomizeInMeetingUIMgr@@AAEXXZ 0040cd00 f   custom_ui_mgr.obj
 0001:0000bdd0       ?adjust_wnd_pos@ICutomizedUIOwnWndInterface@@IAEXHHPAUHWND__@@@Z 0040cdd0 f i custom_ui_mgr.obj
 0001:0000bea0       ?create_owner_hwnd@ICutomizedUIOwnWndInterface@@IAEPAUHWND__@@PAV1@HH@Z 0040cea0 f i custom_ui_mgr.obj
 0001:0000bfa0       ?destroy_owner_wnd@ICutomizedUIOwnWndInterface@@IAEXXZ 0040cfa0 f i custom_ui_mgr.obj
 0001:0000bfe0       ?my_wnd_proc@ICutomizedUIOwnWndInterface@@KGJPAUHWND__@@IIJ@Z 0040cfe0 f i custom_ui_mgr.obj
 0001:0000c0f0       ?onDestroyed@CCustomizeInMeetingUIMgr@@UAEXXZ 0040d0f0 f   custom_ui_mgr.obj
 0001:0000c170       ?onLayoutNotification@CCustomizeInMeetingUIMgr@@UAEXUtagRECT@@@Z 0040d170 f   custom_ui_mgr.obj
 0001:0000c190       ?onMeetingStatusChanged@CCustomizeInMeetingUIMgr@@UAEXW4MeetingStatus@ZOOMSDK@@H@Z 0040d190 f   custom_ui_mgr.obj
 0001:0000c240       ?onMove@CCustomizeInMeetingUIMgr@@UAEXXZ 0040d240 f   custom_ui_mgr.obj
 0001:0000c290       ?onRemoteControlStatus@CCustomizeInMeetingUIMgr@@UAEXW4RemoteControlStatus@ZOOMSDK@@I@Z 0040d290 f   custom_ui_mgr.obj
 0001:0000c2c0       ?_Orphan_range@?$vector@PAVIVirtualBGImageInfo@ZOOMSDK@@V?$allocator@PAVIVirtualBGImageInfo@ZOOMSDK@@@std@@@std@@ABEXPAPAVIVirtualBGImageInfo@ZOOMSDK@@0@Z 0040d2c0 f   settings_ui.obj
 0001:0000c2c0       ?onLowOrRaiseHandStatusChanged@CSDKCustomUIWorkFlow@@UAEX_NI@Z 0040d2c0 f   custom_ui_mgr_flow.obj
 0001:0000c2c0       ?onSpotlightVideoChangeNotification@CUtilWnd@@UAEX_NI@Z 0040d2c0 f   util_window.obj
 0001:0000c2c0       ?_Orphan_range@?$vector@PAVIUserInfo@ZOOMSDK@@V?$allocator@PAVIUserInfo@ZOOMSDK@@@std@@@std@@ABEXPAPAVIUserInfo@ZOOMSDK@@0@Z 0040d2c0 f   user_manager.obj
 0001:0000c2c0       ?onLoginRet@CAuthSDKWorkFlow@@UAEXW4LOGINSTATUS@ZOOMSDK@@PAVIAccountInfo@3@@Z 0040d2c0 f   init_auth_sdk_workflow.obj
 0001:0000c2c0       ?onChatMsgNotifcation@CSDKCustomUIWorkFlow@@UAEXPAVIChatMsgInfo@ZOOMSDK@@PB_W@Z 0040d2c0 f   custom_ui_mgr_flow.obj
 0001:0000c2c0       ?OnMicSpkVolumnChanged@CSDKCustomUIWorkFlow@@UAEXII@Z 0040d2c0 f   custom_ui_mgr_flow.obj
 0001:0000c2c0       ?onCoHostChangeNotification@CSDKCustomUIWorkFlow@@UAEXI_N@Z 0040d2c0 f   custom_ui_mgr_flow.obj
 0001:0000c2c0       ?onDefaultSpeakerDeviceChanged@CSDKAudioSettingsWorkFlow@@UAEXPB_W0@Z 0040d2c0 f   SETTINGS_audio_workflow.obj
 0001:0000c2c0       ?onUserLeft@CMoreFeaturesUIMgr@@UAEXPAV?$IList@I@ZOOMSDK@@PB_W@Z 0040d2c0 f   more_features_ui.obj
 0001:0000c2c0       ?OnTestMicStatusChanged@CSDKCustomUIWorkFlow@@UAEXW4SDK_TESTMIC_STATUS@ZOOMSDK@@AA_N@Z 0040d2c0 f   custom_ui_mgr_flow.obj
 0001:0000c2c0       ?onRenderDataTypeChanged@CCustomizeInMeetingUIMgr@@UAEXPAVIVideoRenderElement@ZOOMSDK@@W4VideoRenderDataType@3@@Z 0040d2c0 f   custom_ui_mgr.obj
 0001:0000c2c0       ?onRenderUserChanged@CCustomizeInMeetingUIMgr@@UAEXPAVIVideoRenderElement@ZOOMSDK@@I@Z 0040d2c0 f   custom_ui_mgr.obj
 0001:0000c2c0       ?onDefaultMicDeviceChanged@CSDKAudioSettingsWorkFlow@@UAEXPB_W0@Z 0040d2c0 f   SETTINGS_audio_workflow.obj
 0001:0000c2c0       ?onDefaultMicDeviceChanged@CSDKAudioSettingsUIGroup@@UAEXPB_W0@Z 0040d2c0 f   settings_ui.obj
 0001:0000c2c0       ?OnDirectShareStatusUpdate@CSDKLoggedInUIMgr@@UAEXW4DirectShareStatusStatus_Enum@ZOOMSDK@@PAVIDirectShareViaMeetingIDOrPairingCodeHandler@3@@Z 0040d2c0 f   LoggedIn_sdk_controller_ui.obj
 0001:0000c2c0       ?onLoginRet@CSDKWithoutLoginStartJoinMeetingFlow@@UAEXW4LOGINSTATUS@ZOOMSDK@@PAVIAccountInfo@3@@Z 0040d2c0 f   LOGIN_join_meeting_only_workflow.obj
 0001:0000c2c0       ?onDefaultSpeakerDeviceChanged@CSDKAudioSettingsUIGroup@@UAEXPB_W0@Z 0040d2c0 f   settings_ui.obj
 0001:0000c2c0       ?onSpotlightVideoChangeNotification@CSDKCustomUIWorkFlow@@UAEX_NI@Z 0040d2c0 f   custom_ui_mgr_flow.obj
 0001:0000c2c0       ?_Orphan_range@?$vector@V?$basic_string@_WU?$char_traits@_W@std@@V?$allocator@_W@2@@std@@V?$allocator@V?$basic_string@_WU?$char_traits@_W@std@@V?$allocator@_W@2@@std@@@2@@std@@ABEXPAV?$basic_string@_WU?$char_traits@_W@std@@V?$allocator@_W@2@@2@0@Z 0040d2c0 f   custom_ui_share_flow.obj
 0001:0000c2c0       ?_Orphan_range@?$vector@UtagMONITORINFO@@V?$allocator@UtagMONITORINFO@@@std@@@std@@ABEXPAUtagMONITORINFO@@0@Z 0040d2c0 f   sdk_demo_v2.obj
 0001:0000c2c0       ?onAudioBtnClicked@CSDKCustomUIWorkFlow@@UAEXUtagAudioBtnClickedCallbackInfo@ZOOMSDK@@@Z 0040d2c0 f   custom_ui_mgr_flow.obj
 0001:0000c2c0       ?onUserJoin@CMoreFeaturesUIMgr@@UAEXPAV?$IList@I@ZOOMSDK@@PB_W@Z 0040d2c0 f   more_features_ui.obj
 0001:0000c2c0       ?onDefaultCamDeviceChanged@CSDKVideoSettingsUIGroup@@UAEXPB_W0@Z 0040d2c0 f   settings_ui.obj
 0001:0000c2c0       ?onDefaultCamDeviceChanged@CSDKVideoSettingsWorkFlow@@UAEXPB_W0@Z 0040d2c0 f   SETTINGS_video_workflow.obj
 0001:0000c2d0       ?onShareRenderDestroyed@CCustomizeInMeetingUIMgr@@UAEXPAVICustomizedShareRender@ZOOMSDK@@@Z 0040d2d0 f   custom_ui_mgr.obj
 0001:0000c310       ?onShareRenderWindowMsgNotification@CCustomizeInMeetingUIMgr@@UAEXIIJ@Z 0040d310 f   custom_ui_mgr.obj
 0001:0000c310       ?onVideoContainerWindowMsgNotification@CCustomizeInMeetingUIMgr@@UAEXIIJ@Z 0040d310 f   custom_ui_mgr.obj
 0001:0000c350       ?onSharingShareAnnotationStatusChanged@CCustomizeInMeetingUIMgr@@UAEXPAVICustomizedShareRender@ZOOMSDK@@W4CustomizedShareAnnotationStatus@3@@Z 0040d350 f   custom_ui_mgr.obj
 0001:0000c380       ?onSharingStatus@CCustomizeInMeetingUIMgr@@UAEXW4SharingStatus@ZOOMSDK@@I@Z 0040d380 f   custom_ui_mgr.obj
 0001:0000c3b0       ?onSize@CCustomizeInMeetingUIMgr@@UAEXAAUtagRECT@@@Z 0040d3b0 f   custom_ui_mgr.obj
 0001:0000c550       ?onUserAudioStatusChange@CCustomizeInMeetingUIMgr@@UAEXPAV?$IList@PAVIUserAudioStatus@ZOOMSDK@@@ZOOMSDK@@PB_W@Z 0040d550 f   custom_ui_mgr.obj
 0001:0000c5e0       ?onUserJoin@CCustomizeInMeetingUIMgr@@UAEXPAV?$IList@I@ZOOMSDK@@PB_W@Z 0040d5e0 f   custom_ui_mgr.obj
 0001:0000c730       ?onUserLeft@CCustomizeInMeetingUIMgr@@UAEXPAV?$IList@I@ZOOMSDK@@PB_W@Z 0040d730 f   custom_ui_mgr.obj
 0001:0000c830       ?onUserNameChanged@CCustomizeInMeetingUIMgr@@UAEXIPB_W@Z 0040d830 f   custom_ui_mgr.obj
 0001:0000c850       ?onUserVideoStatusChange@CCustomizeInMeetingUIMgr@@UAEXIW4VideoStatus@ZOOMSDK@@@Z 0040d850 f   custom_ui_mgr.obj
 0001:0000c8e0       ?onVideoContainerDestroyed@CCustomizeInMeetingUIMgr@@UAEXPAVICustomizedVideoContainer@ZOOMSDK@@@Z 0040d8e0 f   custom_ui_mgr.obj
 0001:0000c920       ?onVideoRenderElementDestroyed@CCustomizeInMeetingUIMgr@@UAEXPAVIVideoRenderElement@ZOOMSDK@@@Z 0040d920 f   custom_ui_mgr.obj
 0001:0000c950       ?onWindowMsgNotification@CCustomizeInMeetingUIMgr@@UAEXIIJ@Z 0040d950 f i custom_ui_mgr.obj
 0001:0000c97a       ?onWindowMsgNotification@CCustomizeInMeetingUIMgr@@W3AEXIIJ@Z 0040d97a f i custom_ui_mgr.obj
 0001:0000c990       ?register_window_class@ICutomizedUIOwnWndInterface@@IAEHPAUHINSTANCE__@@@Z 0040d990 f i custom_ui_mgr.obj
 0001:0000ca40       ??0CSDKCustomUIWorkFlow@@QAE@XZ 0040da40 f   custom_ui_mgr_flow.obj
 0001:0000cb50       ??0ICustomizedAnnotationControllerEvent@ZOOMSDK@@QAE@XZ 0040db50 f i custom_ui_mgr_flow.obj
 0001:0000cb70       ??0IMeetingAudioCtrlEvent@ZOOMSDK@@QAE@XZ 0040db70 f i custom_ui_mgr_flow.obj
 0001:0000cb90       ??0IMeetingParticipantsCtrlEvent@ZOOMSDK@@QAE@XZ 0040db90 f i custom_ui_mgr_flow.obj
 0001:0000cbb0       ??0IMeetingRemoteCtrlEvent@ZOOMSDK@@QAE@XZ 0040dbb0 f i custom_ui_mgr_flow.obj
 0001:0000cbd0       ??0IMeetingServiceEvent@ZOOMSDK@@QAE@XZ 0040dbd0 f i custom_ui_mgr_flow.obj
 0001:0000cbf0       ??0IMeetingShareCtrlEvent@ZOOMSDK@@QAE@XZ 0040dbf0 f i custom_ui_mgr_flow.obj
 0001:0000cc10       ??0IMeetingUIControllerEvent@ZOOMSDK@@QAE@XZ 0040dc10 f i custom_ui_mgr_flow.obj
 0001:0000cc30       ??0IMeetingVideoCtrlEvent@ZOOMSDK@@QAE@XZ 0040dc30 f i custom_ui_mgr_flow.obj
 0001:0000cc50       ??0ISDKInMeetingServiceMgrEvent@@QAE@XZ 0040dc50 f i custom_ui_mgr_flow.obj
 0001:0000cd70       ??0ITestAudioDeviceHelperEvent@ZOOMSDK@@QAE@XZ 0040dd70 f i custom_ui_mgr_flow.obj
 0001:0000cd90       ??0ITestVideoDeviceHelperEvent@ZOOMSDK@@QAE@XZ 0040dd90 f i custom_ui_mgr_flow.obj
 0001:0000cdb0       ??1CSDKCustomUIWorkFlow@@UAE@XZ 0040ddb0 f   custom_ui_mgr_flow.obj
 0001:0000ce80       ??_GCSDKCustomUIWorkFlow@@UAEPAXI@Z 0040de80 f i custom_ui_mgr_flow.obj
 0001:0000ce80       ??_ECSDKCustomUIWorkFlow@@UAEPAXI@Z 0040de80 f i custom_ui_mgr_flow.obj
 0001:0000cec0       ?GetMeetingID@CSDKCustomUIWorkFlow@@QAE_KXZ 0040dec0 f   custom_ui_mgr_flow.obj
 0001:0000cf10       ?GetServiceControls@CSDKCustomUIWorkFlow@@QAEXXZ 0040df10 f   custom_ui_mgr_flow.obj
 0001:0000d030       ?Init@CSDKCustomUIWorkFlow@@QAEXPAVISDKInMeetingServiceCustomUIEvent@@@Z 0040e030 f   custom_ui_mgr_flow.obj
 0001:0000d060       ?InitMeetingService@CSDKCustomUIWorkFlow@@QAEXXZ 0040e060 f   custom_ui_mgr_flow.obj
 0001:0000d1c0       ?IsAudioOn@CSDKCustomUIWorkFlow@@QAE_NXZ 0040e1c0 f   custom_ui_mgr_flow.obj
 0001:0000d230       ?IsInMeeting@@YA_NW4MeetingStatus@ZOOMSDK@@@Z 0040e230 f i custom_ui_mgr_flow.obj
 0001:0000d260       ?IsMeetingServiceReady@CSDKCustomUIWorkFlow@@QAE_NXZ 0040e260 f   custom_ui_mgr_flow.obj
 0001:0000d2a0       ?IsVideoOn@CSDKCustomUIWorkFlow@@QAE_NXZ 0040e2a0 f   custom_ui_mgr_flow.obj
 0001:0000d300       ?Uninit@CSDKCustomUIWorkFlow@@QAEXXZ 0040e300 f   custom_ui_mgr_flow.obj
 0001:0000d3b0       ?onMeetingSecureKeyNotification@CSDKJoinMeetingForLoginUserFlow@@UAEXPBDHPAVIMeetingExternalSecureKeyHandler@ZOOMSDK@@@Z 0040e3b0 f i Join_meeting_for_login_user_workflow.obj
 0001:0000d3b0       ?onMeetingSecureKeyNotification@CSDKJoinMeetingForLoginUserUIGroup@@UAEXPBDHPAVIMeetingExternalSecureKeyHandler@ZOOMSDK@@@Z 0040e3b0 f i Join_meeting_for_login_user_ui.obj
 0001:0000d3b0       ?onMeetingSecureKeyNotification@CSDKCustomUIWorkFlow@@UAEXPBDHPAVIMeetingExternalSecureKeyHandler@ZOOMSDK@@@Z 0040e3b0 f i custom_ui_mgr_flow.obj
 0001:0000d3b0       ?onMeetingSecureKeyNotification@CSDKWithoutLoginStartJoinMeetingFlow@@UAEXPBDHPAVIMeetingExternalSecureKeyHandler@ZOOMSDK@@@Z 0040e3b0 f i LOGIN_join_meeting_only_workflow.obj
 0001:0000d3b0       ?onMeetingSecureKeyNotification@CSDKRestAPIUserUIGroup@@UAEXPBDHPAVIMeetingExternalSecureKeyHandler@ZOOMSDK@@@Z 0040e3b0 f i LOGIN_sdk_login_UI.obj
 0001:0000d3b0       ?onMeetingSecureKeyNotification@CSDKLoggedInUIMgr@@UAEXPBDHPAVIMeetingExternalSecureKeyHandler@ZOOMSDK@@@Z 0040e3b0 f i LoggedIn_sdk_controller_ui.obj
 0001:0000d3b0       ?onMeetingSecureKeyNotification@CSDKWithoutLoginStartJoinMeetingUIGroup@@UAEXPBDHPAVIMeetingExternalSecureKeyHandler@ZOOMSDK@@@Z 0040e3b0 f i LOGIN_sdk_login_UI.obj
 0001:0000d3b0       ?onRecording2MP4Done@CSDKCustomUIWorkFlow@@UAEX_NHPB_W@Z 0040e3b0 f i custom_ui_mgr_flow.obj
 0001:0000d3b0       ?onClosedCaptionMsgReceived@CSDKCustomUIWorkFlow@@UAEXPB_W_J@Z 0040e3b0 f i custom_ui_mgr_flow.obj
 0001:0000d3c0       ?onCustomizedAnnotationObjDestroyed@CSDKCustomUIWorkFlow@@UAEXPAVICustomizedAnnotationObj@ZOOMSDK@@@Z 0040e3c0 f   custom_ui_mgr_flow.obj
 0001:0000d3f0       ?onCustomizedLocalRecordingSourceNotification@CSDKCustomUIWorkFlow@@UAEXPAVICustomizedLocalRecordingLayoutHelper@ZOOMSDK@@@Z 0040e3f0 f   custom_ui_mgr_flow.obj
 0001:0000d420       ?onMeetingStatusChanged@CSDKCustomUIWorkFlow@@UAEXW4MeetingStatus@ZOOMSDK@@H@Z 0040e420 f   custom_ui_mgr_flow.obj
 0001:0000d460       ?onRemoteControlStatus@CSDKCustomUIWorkFlow@@UAEXW4RemoteControlStatus@ZOOMSDK@@I@Z 0040e460 f   custom_ui_mgr_flow.obj
 0001:0000d4a0       ?onSharingShareAnnotationStatusChanged@CSDKCustomUIWorkFlow@@UAEXPAVICustomizedShareRender@ZOOMSDK@@W4CustomizedShareAnnotationStatus@3@@Z 0040e4a0 f   custom_ui_mgr_flow.obj
 0001:0000d4e0       ?onSharingStatus@CSDKCustomUIWorkFlow@@UAEXW4SharingStatus@ZOOMSDK@@I@Z 0040e4e0 f   custom_ui_mgr_flow.obj
 0001:0000d520       ?onUserAudioStatusChange@CSDKCustomUIWorkFlow@@UAEXPAV?$IList@PAVIUserAudioStatus@ZOOMSDK@@@ZOOMSDK@@PB_W@Z 0040e520 f   custom_ui_mgr_flow.obj
 0001:0000d560       ?onUserJoin@CSDKCustomUIWorkFlow@@UAEXPAV?$IList@I@ZOOMSDK@@PB_W@Z 0040e560 f   custom_ui_mgr_flow.obj
 0001:0000d5a0       ?onUserLeft@CSDKCustomUIWorkFlow@@UAEXPAV?$IList@I@ZOOMSDK@@PB_W@Z 0040e5a0 f   custom_ui_mgr_flow.obj
 0001:0000d5e0       ?onUserNameChanged@CSDKCustomUIWorkFlow@@UAEXIPB_W@Z 0040e5e0 f   custom_ui_mgr_flow.obj
 0001:0000d620       ?onUserVideoStatusChange@CSDKCustomUIWorkFlow@@UAEXIW4VideoStatus@ZOOMSDK@@@Z 0040e620 f   custom_ui_mgr_flow.obj
 0001:0000d660       ??$?0$$V@?$_Compressed_pair@V?$allocator@PAVIUserInfo@ZOOMSDK@@@std@@V?$_Vector_val@U?$_Simple_types@PAVIUserInfo@ZOOMSDK@@@std@@@2@$00@std@@QAE@U_Zero_then_variadic_args_t@1@@Z 0040e660 f i user_manager.obj
 0001:0000d660       ??$?0$$V@?$_Compressed_pair@V?$allocator@UtagMONITORINFO@@@std@@V?$_Vector_val@U?$_Simple_types@UtagMONITORINFO@@@std@@@2@$00@std@@QAE@U_Zero_then_variadic_args_t@1@@Z 0040e660 f i sdk_demo_v2.obj
 0001:0000d660       ??$?0$$V@?$_Compressed_pair@V?$allocator@PAVIVirtualBGImageInfo@ZOOMSDK@@@std@@V?$_Vector_val@U?$_Simple_types@PAVIVirtualBGImageInfo@ZOOMSDK@@@std@@@2@$00@std@@QAE@U_Zero_then_variadic_args_t@1@@Z 0040e660 f i settings_ui.obj
 0001:0000d660       ??$?0$$V@?$_Compressed_pair@V?$allocator@V?$basic_string@_WU?$char_traits@_W@std@@V?$allocator@_W@2@@std@@@std@@V?$_Vector_val@U?$_Simple_types@V?$basic_string@_WU?$char_traits@_W@std@@V?$allocator@_W@2@@std@@@std@@@2@$00@std@@QAE@U_Zero_then_variadic_args_t@1@@Z 0040e660 f i custom_ui_share_flow.obj
 0001:0000d680       ??$_Destroy_range@V?$allocator@V?$basic_string@_WU?$char_traits@_W@std@@V?$allocator@_W@2@@std@@@std@@@std@@YAXPAV?$basic_string@_WU?$char_traits@_W@std@@V?$allocator@_W@2@@0@0AAV?$allocator@V?$basic_string@_WU?$char_traits@_W@std@@V?$allocator@_W@2@@std@@@0@@Z 0040e680 f i custom_ui_share_flow.obj
 0001:0000d6e0       ??$_Emplace_back@V?$basic_string@_WU?$char_traits@_W@std@@V?$allocator@_W@2@@std@@@?$_Uninitialized_backout_al@PAV?$basic_string@_WU?$char_traits@_W@std@@V?$allocator@_W@2@@std@@V?$allocator@V?$basic_string@_WU?$char_traits@_W@std@@V?$allocator@_W@2@@std@@@2@@std@@QAEX$$QAV?$basic_string@_WU?$char_traits@_W@std@@V?$allocator@_W@2@@1@@Z 0040e6e0 f i custom_ui_share_flow.obj
 0001:0000d730       ??$_Emplace_back_with_unused_capacity@V?$basic_string@_WU?$char_traits@_W@std@@V?$allocator@_W@2@@std@@@?$vector@V?$basic_string@_WU?$char_traits@_W@std@@V?$allocator@_W@2@@std@@V?$allocator@V?$basic_string@_WU?$char_traits@_W@std@@V?$allocator@_W@2@@std@@@2@@std@@AAEX$$QAV?$basic_string@_WU?$char_traits@_W@std@@V?$allocator@_W@2@@1@@Z 0040e730 f i custom_ui_share_flow.obj
 0001:0000d7c0       ??$_Emplace_reallocate@V?$basic_string@_WU?$char_traits@_W@std@@V?$allocator@_W@2@@std@@@?$vector@V?$basic_string@_WU?$char_traits@_W@std@@V?$allocator@_W@2@@std@@V?$allocator@V?$basic_string@_WU?$char_traits@_W@std@@V?$allocator@_W@2@@std@@@2@@std@@QAEPAV?$basic_string@_WU?$char_traits@_W@std@@V?$allocator@_W@2@@1@QAV21@$$QAV21@@Z 0040e7c0 f i custom_ui_share_flow.obj
 0001:0000d9a0       ??$_Get_size_of_n@$0BI@@std@@YAII@Z 0040e9a0 f i custom_ui_share_flow.obj
 0001:0000d9d0       ??$_Idl_distance@PAV?$basic_string@_WU?$char_traits@_W@std@@V?$allocator@_W@2@@std@@PAV12@@std@@YAHABQAV?$basic_string@_WU?$char_traits@_W@std@@V?$allocator@_W@2@@0@0@Z 0040e9d0 f i custom_ui_share_flow.obj
 0001:0000d9f0       ??$_Seek_wrapped@UtagMONITORINFO@@@std@@YAXAAPAUtagMONITORINFO@@QAU1@@Z 0040e9f0 f i sdk_demo_v2.obj
 0001:0000d9f0       ??$_Seek_wrapped@PAVIVirtualBGImageInfo@ZOOMSDK@@@std@@YAXAAPAPAVIVirtualBGImageInfo@ZOOMSDK@@QAPAV12@@Z 0040e9f0 f i settings_ui.obj
 0001:0000d9f0       ??$_Seek_wrapped@V?$basic_string@_WU?$char_traits@_W@std@@V?$allocator@_W@2@@std@@@std@@YAXAAPAV?$basic_string@_WU?$char_traits@_W@std@@V?$allocator@_W@2@@0@QAV10@@Z 0040e9f0 f i custom_ui_share_flow.obj
 0001:0000d9f0       ??$_Seek_wrapped@PAVIUserInfo@ZOOMSDK@@@std@@YAXAAPAPAVIUserInfo@ZOOMSDK@@QAPAV12@@Z 0040e9f0 f i user_manager.obj
 0001:0000da00       ??$_Uninitialized_move@PAV?$basic_string@_WU?$char_traits@_W@std@@V?$allocator@_W@2@@std@@PAV12@V?$allocator@V?$basic_string@_WU?$char_traits@_W@std@@V?$allocator@_W@2@@std@@@2@@std@@YAPAV?$basic_string@_WU?$char_traits@_W@std@@V?$allocator@_W@2@@0@QAV10@0PAV10@AAV?$allocator@V?$basic_string@_WU?$char_traits@_W@std@@V?$allocator@_W@2@@std@@@0@@Z 0040ea00 f i custom_ui_share_flow.obj
 0001:0000dae0       ??$construct@V?$basic_string@_WU?$char_traits@_W@std@@V?$allocator@_W@2@@std@@V12@@?$_Default_allocator_traits@V?$allocator@V?$basic_string@_WU?$char_traits@_W@std@@V?$allocator@_W@2@@std@@@std@@@std@@SAXAAV?$allocator@V?$basic_string@_WU?$char_traits@_W@std@@V?$allocator@_W@2@@std@@@1@QAV?$basic_string@_WU?$char_traits@_W@std@@V?$allocator@_W@2@@1@$$QAV31@@Z 0040eae0 f i custom_ui_share_flow.obj
 0001:0000db10       ??$destroy@V?$basic_string@_WU?$char_traits@_W@std@@V?$allocator@_W@2@@std@@@?$_Default_allocator_traits@V?$allocator@V?$basic_string@_WU?$char_traits@_W@std@@V?$allocator@_W@2@@std@@@std@@@std@@SAXAAV?$allocator@V?$basic_string@_WU?$char_traits@_W@std@@V?$allocator@_W@2@@std@@@1@QAV?$basic_string@_WU?$char_traits@_W@std@@V?$allocator@_W@2@@1@@Z 0040eb10 f i custom_ui_share_flow.obj
 0001:0000db20       ??$emplace_back@V?$basic_string@_WU?$char_traits@_W@std@@V?$allocator@_W@2@@std@@@?$vector@V?$basic_string@_WU?$char_traits@_W@std@@V?$allocator@_W@2@@std@@V?$allocator@V?$basic_string@_WU?$char_traits@_W@std@@V?$allocator@_W@2@@std@@@2@@std@@QAEX$$QAV?$basic_string@_WU?$char_traits@_W@std@@V?$allocator@_W@2@@1@@Z 0040eb20 f i custom_ui_share_flow.obj
 0001:0000db80       ??0?$_Uninitialized_backout_al@PAV?$basic_string@_WU?$char_traits@_W@std@@V?$allocator@_W@2@@std@@V?$allocator@V?$basic_string@_WU?$char_traits@_W@std@@V?$allocator@_W@2@@std@@@2@@std@@QAE@PAV?$basic_string@_WU?$char_traits@_W@std@@V?$allocator@_W@2@@1@AAV?$allocator@V?$basic_string@_WU?$char_traits@_W@std@@V?$allocator@_W@2@@std@@@1@@Z 0040eb80 f i custom_ui_share_flow.obj
 0001:0000dbb0       ??0?$_Vector_val@U?$_Simple_types@PAVIUserInfo@ZOOMSDK@@@std@@@std@@QAE@XZ 0040ebb0 f i user_manager.obj
 0001:0000dbb0       ??0?$_Vector_val@U?$_Simple_types@V?$basic_string@_WU?$char_traits@_W@std@@V?$allocator@_W@2@@std@@@std@@@std@@QAE@XZ 0040ebb0 f i custom_ui_share_flow.obj
 0001:0000dbb0       ??0?$_Vector_val@U?$_Simple_types@PAVIVirtualBGImageInfo@ZOOMSDK@@@std@@@std@@QAE@XZ 0040ebb0 f i settings_ui.obj
 0001:0000dbb0       ??0?$_Vector_val@U?$_Simple_types@UtagMONITORINFO@@@std@@@std@@QAE@XZ 0040ebb0 f i sdk_demo_v2.obj
 0001:0000dbb0       ??0tagCustomizedLanguageInfo@ZOOMSDK@@QAE@XZ 0040ebb0 f i sdk_init_auth_ui.obj
 0001:0000dbe0       ??0?$vector@PAVIUserInfo@ZOOMSDK@@V?$allocator@PAVIUserInfo@ZOOMSDK@@@std@@@std@@QAE@XZ 0040ebe0 f i user_manager.obj
 0001:0000dbe0       ??0?$vector@PAVIVirtualBGImageInfo@ZOOMSDK@@V?$allocator@PAVIVirtualBGImageInfo@ZOOMSDK@@@std@@@std@@QAE@XZ 0040ebe0 f i settings_ui.obj
 0001:0000dbe0       ??0?$vector@V?$basic_string@_WU?$char_traits@_W@std@@V?$allocator@_W@2@@std@@V?$allocator@V?$basic_string@_WU?$char_traits@_W@std@@V?$allocator@_W@2@@std@@@2@@std@@QAE@XZ 0040ebe0 f i custom_ui_share_flow.obj
 0001:0000dbe0       ??0?$vector@UtagMONITORINFO@@V?$allocator@UtagMONITORINFO@@@std@@@std@@QAE@XZ 0040ebe0 f i sdk_demo_v2.obj
 0001:0000dc40       ??0?$_Tree_val@U?$_Tree_simple_types@PAVISDKInMeetingServiceMgrEvent@@@std@@@std@@QAE@XZ 0040ec40 f   sdk_util.obj
 0001:0000dc40       ??0?$_Tree_val@U?$_Tree_simple_types@PAVIMeetingVideoCtrlEvent@ZOOMSDK@@@std@@@std@@QAE@XZ 0040ec40 f   sdk_util.obj
 0001:0000dc40       ??0?$_Tree_val@U?$_Tree_simple_types@PAVIClosedCaptionControllerEvent@ZOOMSDK@@@std@@@std@@QAE@XZ 0040ec40 f   sdk_util.obj
 0001:0000dc40       ??0?$_Tree_val@U?$_Tree_simple_types@PAVIAuthServiceEvent@ZOOMSDK@@@std@@@std@@QAE@XZ 0040ec40 f   sdk_util.obj
 0001:0000dc40       ??0?$_Tree_val@U?$_Tree_simple_types@U?$pair@$$CBIPAVIUserInfo@ZOOMSDK@@@std@@@std@@@std@@QAE@XZ 0040ec40 f   user_manager.obj
 0001:0000dc40       ??0CCustomizeUIShareFlow@@QAE@XZ 0040ec40 f   custom_ui_share_flow.obj
 0001:0000dc40       ??0tagAuthParam@ZOOMSDK@@QAE@XZ 0040ec40 f   sdk_init_auth_ui.obj
 0001:0000dc40       ??0?$_Tree_val@U?$_Tree_simple_types@PAVIMeetingChatCtrlEvent@ZOOMSDK@@@std@@@std@@QAE@XZ 0040ec40 f   sdk_util.obj
 0001:0000dc40       ??0?$_Tree_val@U?$_Tree_simple_types@PAVIMeetingParticipantsCtrlEvent@ZOOMSDK@@@std@@@std@@QAE@XZ 0040ec40 f   sdk_util.obj
 0001:0000dc40       ??0?$_List_val@U?$_List_simple_types@H@std@@@std@@QAE@XZ 0040ec40 f   participant_ui.obj
 0001:0000dc40       ??0?$_Tree_val@U?$_Tree_simple_types@PAVIMeetingServiceEvent@ZOOMSDK@@@std@@@std@@QAE@XZ 0040ec40 f   sdk_util.obj
 0001:0000dc40       ??0?$_Tree_val@U?$_Tree_simple_types@PAVIPreMeetingServiceEvent@ZOOMSDK@@@std@@@std@@QAE@XZ 0040ec40 f   sdk_util.obj
 0001:0000dc70       ??1?$_Uninitialized_backout_al@PAV?$basic_string@_WU?$char_traits@_W@std@@V?$allocator@_W@2@@std@@V?$allocator@V?$basic_string@_WU?$char_traits@_W@std@@V?$allocator@_W@2@@std@@@2@@std@@QAE@XZ 0040ec70 f i custom_ui_share_flow.obj
 0001:0000dca0       ??1?$vector@V?$basic_string@_WU?$char_traits@_W@std@@V?$allocator@_W@2@@std@@V?$allocator@V?$basic_string@_WU?$char_traits@_W@std@@V?$allocator@_W@2@@std@@@2@@std@@QAE@XZ 0040eca0 f i custom_ui_share_flow.obj
 0001:0000dcc0       ??4?$basic_string@_WU?$char_traits@_W@std@@V?$allocator@_W@2@@std@@QAEAAV01@ABV01@@Z 0040ecc0 f i custom_ui_share_flow.obj
 0001:0000dd00       ??A?$vector@V?$basic_string@_WU?$char_traits@_W@std@@V?$allocator@_W@2@@std@@V?$allocator@V?$basic_string@_WU?$char_traits@_W@std@@V?$allocator@_W@2@@std@@@2@@std@@QAEAAV?$basic_string@_WU?$char_traits@_W@std@@V?$allocator@_W@2@@1@I@Z 0040ed00 f i custom_ui_share_flow.obj
 0001:0000dd20       ??_G?$basic_string@_WU?$char_traits@_W@std@@V?$allocator@_W@2@@std@@QAEPAXI@Z 0040ed20 f i custom_ui_share_flow.obj
 0001:0000dd50       ?GetMeetingShareController@CCustomizeUIShareFlow@@QAEPAVIMeetingShareController@ZOOMSDK@@XZ 0040ed50 f   custom_ui_share_flow.obj
 0001:0000dd90       ?HandleWindowsMoveMsg@CCustomizeUIShareFlow@@QAE?AW4SDKError@ZOOMSDK@@XZ 0040ed90 f   custom_ui_share_flow.obj
 0001:0000ddc0       ?Hide@CCustomizeUIShareFlow@@QAE?AW4SDKError@ZOOMSDK@@XZ 0040edc0 f   custom_ui_share_flow.obj
 0001:0000ddf0       ?IsMeetingServiceReady@CCustomizeUIShareFlow@@AAE_NXZ 0040edf0 f   custom_ui_share_flow.obj
 0001:0000de30       ?MyInfoEnumProc@@YGHPAUHMONITOR__@@PAUHDC__@@PAUtagRECT@@J@Z 0040ee30 f   custom_ui_share_flow.obj
 0001:0000dee0       ?Resize@CCustomizeUIShareFlow@@QAE?AW4SDKError@ZOOMSDK@@UtagRECT@@@Z 0040eee0 f   custom_ui_share_flow.obj
 0001:0000df30       ?SetEvent@CCustomizeUIShareFlow@@QAE?AW4SDKError@ZOOMSDK@@PAVICustomizedShareRenderEvent@3@@Z 0040ef30 f   custom_ui_share_flow.obj
 0001:0000df60       ?SetShareRender@CCustomizeUIShareFlow@@QAEXPAVICustomizedShareRender@ZOOMSDK@@@Z 0040ef60 f   custom_ui_share_flow.obj
 0001:0000df60       ?SetVideoContainer@CCustomizeUIVideoFlow@@QAEXPAVICustomizedVideoContainer@ZOOMSDK@@@Z 0040ef60 f   custom_ui_video_flow.obj
 0001:0000df80       ?SetUserID@CCustomizeUIShareFlow@@QAE?AW4SDKError@ZOOMSDK@@I@Z 0040ef80 f   custom_ui_share_flow.obj
 0001:0000dfc0       ?Show@CCustomizeUIShareFlow@@QAE?AW4SDKError@ZOOMSDK@@XZ 0040efc0 f   custom_ui_share_flow.obj
 0001:0000dff0       ?StartShare@CCustomizeUIShareFlow@@QAE?AW4SDKError@ZOOMSDK@@W4SDKShareType@@PAUHWND__@@@Z 0040eff0 f   custom_ui_share_flow.obj
 0001:0000e210       ?StopShare@CCustomizeUIShareFlow@@QAE?AW4SDKError@ZOOMSDK@@XZ 0040f210 f   custom_ui_share_flow.obj
 0001:0000e2b0       ?_Calculate_growth@?$vector@V?$basic_string@_WU?$char_traits@_W@std@@V?$allocator@_W@2@@std@@V?$allocator@V?$basic_string@_WU?$char_traits@_W@std@@V?$allocator@_W@2@@std@@@2@@std@@ABEII@Z 0040f2b0 f i custom_ui_share_flow.obj
 0001:0000e300       ?_Change_array@?$vector@V?$basic_string@_WU?$char_traits@_W@std@@V?$allocator@_W@2@@std@@V?$allocator@V?$basic_string@_WU?$char_traits@_W@std@@V?$allocator@_W@2@@std@@@2@@std@@AAEXQAV?$basic_string@_WU?$char_traits@_W@std@@V?$allocator@_W@2@@2@II@Z 0040f300 f i custom_ui_share_flow.obj
 0001:0000e3a0       ?_Copy_assign@?$basic_string@_WU?$char_traits@_W@std@@V?$allocator@_W@2@@std@@AAEXABV12@U?$integral_constant@_N$0A@@2@@Z 0040f3a0 f i custom_ui_share_flow.obj
 0001:0000e3f0       ?_Destroy@?$vector@V?$basic_string@_WU?$char_traits@_W@std@@V?$allocator@_W@2@@std@@V?$allocator@V?$basic_string@_WU?$char_traits@_W@std@@V?$allocator@_W@2@@std@@@2@@std@@AAEXPAV?$basic_string@_WU?$char_traits@_W@std@@V?$allocator@_W@2@@2@0@Z 0040f3f0 f i custom_ui_share_flow.obj
 0001:0000e420       ?_Has_unused_capacity@?$vector@PAVIUserInfo@ZOOMSDK@@V?$allocator@PAVIUserInfo@ZOOMSDK@@@std@@@std@@ABE_NXZ 0040f420 f i user_manager.obj
 0001:0000e420       ?_Has_unused_capacity@?$vector@PAVIVirtualBGImageInfo@ZOOMSDK@@V?$allocator@PAVIVirtualBGImageInfo@ZOOMSDK@@@std@@@std@@ABE_NXZ 0040f420 f i settings_ui.obj
 0001:0000e420       ?_Has_unused_capacity@?$vector@UtagMONITORINFO@@V?$allocator@UtagMONITORINFO@@@std@@@std@@ABE_NXZ 0040f420 f i sdk_demo_v2.obj
 0001:0000e420       ?_Has_unused_capacity@?$vector@V?$basic_string@_WU?$char_traits@_W@std@@V?$allocator@_W@2@@std@@V?$allocator@V?$basic_string@_WU?$char_traits@_W@std@@V?$allocator@_W@2@@std@@@2@@std@@ABE_NXZ 0040f420 f i custom_ui_share_flow.obj
 0001:0000e460       ?_Myend@?$vector@PAVIUserInfo@ZOOMSDK@@V?$allocator@PAVIUserInfo@ZOOMSDK@@@std@@@std@@ABEABQAPAVIUserInfo@ZOOMSDK@@XZ 0040f460 f i user_manager.obj
 0001:0000e460       ?_Myend@?$vector@UtagMONITORINFO@@V?$allocator@UtagMONITORINFO@@@std@@@std@@ABEABQAUtagMONITORINFO@@XZ 0040f460 f i sdk_demo_v2.obj
 0001:0000e460       ?_Myend@?$vector@PAVIVirtualBGImageInfo@ZOOMSDK@@V?$allocator@PAVIVirtualBGImageInfo@ZOOMSDK@@@std@@@std@@ABEABQAPAVIVirtualBGImageInfo@ZOOMSDK@@XZ 0040f460 f i settings_ui.obj
 0001:0000e460       ?_Myend@?$vector@PAVIVirtualBGImageInfo@ZOOMSDK@@V?$allocator@PAVIVirtualBGImageInfo@ZOOMSDK@@@std@@@std@@AAEAAPAPAVIVirtualBGImageInfo@ZOOMSDK@@XZ 0040f460 f i settings_ui.obj
 0001:0000e460       ?_Myend@?$vector@UtagMONITORINFO@@V?$allocator@UtagMONITORINFO@@@std@@@std@@AAEAAPAUtagMONITORINFO@@XZ 0040f460 f i sdk_demo_v2.obj
 0001:0000e460       ?_Myend@?$vector@PAVIUserInfo@ZOOMSDK@@V?$allocator@PAVIUserInfo@ZOOMSDK@@@std@@@std@@AAEAAPAPAVIUserInfo@ZOOMSDK@@XZ 0040f460 f i user_manager.obj
 0001:0000e460       ?_Myend@?$vector@V?$basic_string@_WU?$char_traits@_W@std@@V?$allocator@_W@2@@std@@V?$allocator@V?$basic_string@_WU?$char_traits@_W@std@@V?$allocator@_W@2@@std@@@2@@std@@ABEABQAV?$basic_string@_WU?$char_traits@_W@std@@V?$allocator@_W@2@@2@XZ 0040f460 f i custom_ui_share_flow.obj
 0001:0000e460       ?_Myend@?$vector@V?$basic_string@_WU?$char_traits@_W@std@@V?$allocator@_W@2@@std@@V?$allocator@V?$basic_string@_WU?$char_traits@_W@std@@V?$allocator@_W@2@@std@@@2@@std@@AAEAAPAV?$basic_string@_WU?$char_traits@_W@std@@V?$allocator@_W@2@@2@XZ 0040f460 f i custom_ui_share_flow.obj
 0001:0000e480       ?_Myfirst@?$vector@PAVIVirtualBGImageInfo@ZOOMSDK@@V?$allocator@PAVIVirtualBGImageInfo@ZOOMSDK@@@std@@@std@@ABEABQAPAVIVirtualBGImageInfo@ZOOMSDK@@XZ 0040f480 f i settings_ui.obj
 0001:0000e480       ?_Myfirst@?$vector@V?$basic_string@_WU?$char_traits@_W@std@@V?$allocator@_W@2@@std@@V?$allocator@V?$basic_string@_WU?$char_traits@_W@std@@V?$allocator@_W@2@@std@@@2@@std@@ABEABQAV?$basic_string@_WU?$char_traits@_W@std@@V?$allocator@_W@2@@2@XZ 0040f480 f i custom_ui_share_flow.obj
 0001:0000e480       ?_Myhead@?$list@HV?$allocator@H@std@@@std@@AAEAAPAU?$_List_node@HPAX@2@XZ 0040f480 f i participant_ui.obj
 0001:0000e480       ?_Myfirst@?$vector@UtagMONITORINFO@@V?$allocator@UtagMONITORINFO@@@std@@@std@@ABEABQAUtagMONITORINFO@@XZ 0040f480 f i sdk_demo_v2.obj
 0001:0000e480       ?_Myfirst@?$vector@UtagMONITORINFO@@V?$allocator@UtagMONITORINFO@@@std@@@std@@AAEAAPAUtagMONITORINFO@@XZ 0040f480 f i sdk_demo_v2.obj
 0001:0000e480       ?_Myfirst@?$vector@V?$basic_string@_WU?$char_traits@_W@std@@V?$allocator@_W@2@@std@@V?$allocator@V?$basic_string@_WU?$char_traits@_W@std@@V?$allocator@_W@2@@std@@@2@@std@@AAEAAPAV?$basic_string@_WU?$char_traits@_W@std@@V?$allocator@_W@2@@2@XZ 0040f480 f i custom_ui_share_flow.obj
 0001:0000e480       ?_Myfirst@?$vector@PAVIVirtualBGImageInfo@ZOOMSDK@@V?$allocator@PAVIVirtualBGImageInfo@ZOOMSDK@@@std@@@std@@AAEAAPAPAVIVirtualBGImageInfo@ZOOMSDK@@XZ 0040f480 f i settings_ui.obj
 0001:0000e480       ?_Myfirst@?$vector@PAVIUserInfo@ZOOMSDK@@V?$allocator@PAVIUserInfo@ZOOMSDK@@@std@@@std@@AAEAAPAPAVIUserInfo@ZOOMSDK@@XZ 0040f480 f i user_manager.obj
 0001:0000e480       ?_Myfirst@?$vector@PAVIUserInfo@ZOOMSDK@@V?$allocator@PAVIUserInfo@ZOOMSDK@@@std@@@std@@ABEABQAPAVIUserInfo@ZOOMSDK@@XZ 0040f480 f i user_manager.obj
 0001:0000e4a0       ?_Mylast@?$vector@PAVIVirtualBGImageInfo@ZOOMSDK@@V?$allocator@PAVIVirtualBGImageInfo@ZOOMSDK@@@std@@@std@@AAEAAPAPAVIVirtualBGImageInfo@ZOOMSDK@@XZ 0040f4a0 f i settings_ui.obj
 0001:0000e4a0       ?_Mysize@?$list@HV?$allocator@H@std@@@std@@ABEABIXZ 0040f4a0 f i participant_ui.obj
 0001:0000e4a0       ?_Mylast@?$vector@V?$basic_string@_WU?$char_traits@_W@std@@V?$allocator@_W@2@@std@@V?$allocator@V?$basic_string@_WU?$char_traits@_W@std@@V?$allocator@_W@2@@std@@@2@@std@@ABEABQAV?$basic_string@_WU?$char_traits@_W@std@@V?$allocator@_W@2@@2@XZ 0040f4a0 f i custom_ui_share_flow.obj
 0001:0000e4a0       ?_Mylast@?$vector@PAVIUserInfo@ZOOMSDK@@V?$allocator@PAVIUserInfo@ZOOMSDK@@@std@@@std@@AAEAAPAPAVIUserInfo@ZOOMSDK@@XZ 0040f4a0 f i user_manager.obj
 0001:0000e4a0       ?_Mylast@?$vector@UtagMONITORINFO@@V?$allocator@UtagMONITORINFO@@@std@@@std@@AAEAAPAUtagMONITORINFO@@XZ 0040f4a0 f i sdk_demo_v2.obj
 0001:0000e4a0       ?_Mylast@?$vector@V?$basic_string@_WU?$char_traits@_W@std@@V?$allocator@_W@2@@std@@V?$allocator@V?$basic_string@_WU?$char_traits@_W@std@@V?$allocator@_W@2@@std@@@2@@std@@AAEAAPAV?$basic_string@_WU?$char_traits@_W@std@@V?$allocator@_W@2@@2@XZ 0040f4a0 f i custom_ui_share_flow.obj
 0001:0000e4a0       ?_Mylast@?$vector@PAVIUserInfo@ZOOMSDK@@V?$allocator@PAVIUserInfo@ZOOMSDK@@@std@@@std@@ABEABQAPAVIUserInfo@ZOOMSDK@@XZ 0040f4a0 f i user_manager.obj
 0001:0000e4a0       ?_Mylast@?$vector@PAVIVirtualBGImageInfo@ZOOMSDK@@V?$allocator@PAVIVirtualBGImageInfo@ZOOMSDK@@@std@@@std@@ABEABQAPAVIVirtualBGImageInfo@ZOOMSDK@@XZ 0040f4a0 f i settings_ui.obj
 0001:0000e4a0       ?_Mysize@?$list@HV?$allocator@H@std@@@std@@AAEAAIXZ 0040f4a0 f i participant_ui.obj
 0001:0000e4a0       ?_Mylast@?$vector@UtagMONITORINFO@@V?$allocator@UtagMONITORINFO@@@std@@@std@@ABEABQAUtagMONITORINFO@@XZ 0040f4a0 f i sdk_demo_v2.obj
 0001:0000e4c0       ?_Release@?$_Uninitialized_backout_al@PAV?$basic_string@_WU?$char_traits@_W@std@@V?$allocator@_W@2@@std@@V?$allocator@V?$basic_string@_WU?$char_traits@_W@std@@V?$allocator@_W@2@@std@@@2@@std@@QAEPAV?$basic_string@_WU?$char_traits@_W@std@@V?$allocator@_W@2@@2@XZ 0040f4c0 f i custom_ui_share_flow.obj
 0001:0000e4e0       ?_Tidy@?$vector@V?$basic_string@_WU?$char_traits@_W@std@@V?$allocator@_W@2@@std@@V?$allocator@V?$basic_string@_WU?$char_traits@_W@std@@V?$allocator@_W@2@@std@@@2@@std@@AAEXXZ 0040f4e0 f i custom_ui_share_flow.obj
 0001:0000e590       ?_Umove@?$vector@V?$basic_string@_WU?$char_traits@_W@std@@V?$allocator@_W@2@@std@@V?$allocator@V?$basic_string@_WU?$char_traits@_W@std@@V?$allocator@_W@2@@std@@@2@@std@@AAEPAV?$basic_string@_WU?$char_traits@_W@std@@V?$allocator@_W@2@@2@PAV32@00@Z 0040f590 f i custom_ui_share_flow.obj
 0001:0000e5c0       ?_Umove_if_noexcept1@?$vector@V?$basic_string@_WU?$char_traits@_W@std@@V?$allocator@_W@2@@std@@V?$allocator@V?$basic_string@_WU?$char_traits@_W@std@@V?$allocator@_W@2@@std@@@2@@std@@AAEXPAV?$basic_string@_WU?$char_traits@_W@std@@V?$allocator@_W@2@@2@00U?$integral_constant@_N$00@2@@Z 0040f5c0 f i custom_ui_share_flow.obj
 0001:0000e5f0       ?_Umove_if_noexcept@?$vector@V?$basic_string@_WU?$char_traits@_W@std@@V?$allocator@_W@2@@std@@V?$allocator@V?$basic_string@_WU?$char_traits@_W@std@@V?$allocator@_W@2@@std@@@2@@std@@AAEXPAV?$basic_string@_WU?$char_traits@_W@std@@V?$allocator@_W@2@@2@00@Z 0040f5f0 f i custom_ui_share_flow.obj
 0001:0000e620       ?_Xlength@?$vector@PAVIUserInfo@ZOOMSDK@@V?$allocator@PAVIUserInfo@ZOOMSDK@@@std@@@std@@CAXXZ 0040f620 f i user_manager.obj
 0001:0000e620       ?_Xlength@?$vector@PAVIVirtualBGImageInfo@ZOOMSDK@@V?$allocator@PAVIVirtualBGImageInfo@ZOOMSDK@@@std@@@std@@CAXXZ 0040f620 f i settings_ui.obj
 0001:0000e620       ?_Xlength@?$vector@UtagMONITORINFO@@V?$allocator@UtagMONITORINFO@@@std@@@std@@CAXXZ 0040f620 f i sdk_demo_v2.obj
 0001:0000e620       ?_Xlength@?$vector@V?$basic_string@_WU?$char_traits@_W@std@@V?$allocator@_W@2@@std@@V?$allocator@V?$basic_string@_WU?$char_traits@_W@std@@V?$allocator@_W@2@@std@@@2@@std@@CAXXZ 0040f620 f i custom_ui_share_flow.obj
 0001:0000e630       ?allocate@?$allocator@V?$basic_string@_WU?$char_traits@_W@std@@V?$allocator@_W@2@@std@@@std@@QAEPAV?$basic_string@_WU?$char_traits@_W@std@@V?$allocator@_W@2@@2@I@Z 0040f630 f i custom_ui_share_flow.obj
 0001:0000e630       ?allocate@?$allocator@U?$_Tree_node@U?$pair@$$CBIPAVIUserInfo@ZOOMSDK@@@std@@PAX@std@@@std@@QAEPAU?$_Tree_node@U?$pair@$$CBIPAVIUserInfo@ZOOMSDK@@@std@@PAX@2@I@Z 0040f630 f i user_manager.obj
 0001:0000e660       ?capacity@?$vector@V?$basic_string@_WU?$char_traits@_W@std@@V?$allocator@_W@2@@std@@V?$allocator@V?$basic_string@_WU?$char_traits@_W@std@@V?$allocator@_W@2@@std@@@2@@std@@QBEIXZ 0040f660 f i custom_ui_share_flow.obj
 0001:0000e690       ?deallocate@?$allocator@V?$basic_string@_WU?$char_traits@_W@std@@V?$allocator@_W@2@@std@@@std@@QAEXQAV?$basic_string@_WU?$char_traits@_W@std@@V?$allocator@_W@2@@2@I@Z 0040f690 f i custom_ui_share_flow.obj
 0001:0000e690       ?deallocate@?$allocator@U?$_Tree_node@U?$pair@$$CBIPAVIUserInfo@ZOOMSDK@@@std@@PAX@std@@@std@@QAEXQAU?$_Tree_node@U?$pair@$$CBIPAVIUserInfo@ZOOMSDK@@@std@@PAX@2@I@Z 0040f690 f i user_manager.obj
 0001:0000e6b0       ?max_size@?$_Default_allocator_traits@V?$allocator@U?$_Tree_node@U?$pair@$$CBIPAVIUserInfo@ZOOMSDK@@@std@@PAX@std@@@std@@@std@@SAIABV?$allocator@U?$_Tree_node@U?$pair@$$CBIPAVIUserInfo@ZOOMSDK@@@std@@PAX@std@@@2@@Z 0040f6b0 f i user_manager.obj
 0001:0000e6b0       ?max_size@?$_Default_allocator_traits@V?$allocator@V?$basic_string@_WU?$char_traits@_W@std@@V?$allocator@_W@2@@std@@@std@@@std@@SAIABV?$allocator@V?$basic_string@_WU?$char_traits@_W@std@@V?$allocator@_W@2@@std@@@2@@Z 0040f6b0 f i custom_ui_share_flow.obj
 0001:0000e6c0       ?max_size@?$vector@V?$basic_string@_WU?$char_traits@_W@std@@V?$allocator@_W@2@@std@@V?$allocator@V?$basic_string@_WU?$char_traits@_W@std@@V?$allocator@_W@2@@std@@@2@@std@@QBEIXZ 0040f6c0 f i custom_ui_share_flow.obj
 0001:0000e700       ?push_back@?$vector@V?$basic_string@_WU?$char_traits@_W@std@@V?$allocator@_W@2@@std@@V?$allocator@V?$basic_string@_WU?$char_traits@_W@std@@V?$allocator@_W@2@@std@@@2@@std@@QAEX$$QAV?$basic_string@_WU?$char_traits@_W@std@@V?$allocator@_W@2@@2@@Z 0040f700 f i custom_ui_share_flow.obj
 0001:0000e730       ?size@?$vector@V?$basic_string@_WU?$char_traits@_W@std@@V?$allocator@_W@2@@std@@V?$allocator@V?$basic_string@_WU?$char_traits@_W@std@@V?$allocator@_W@2@@std@@@2@@std@@QBEIXZ 0040f730 f i custom_ui_share_flow.obj
 0001:0000e760       ??0CCustomizeUIShareMgr@@QAE@PAVCCustomizeInMeetingUIMgr@@@Z 0040f760 f   custom_ui_share_mgr.obj
 0001:0000e7a0       ??0CCustomizeUIShareRenderUI@@QAE@PAVCCustomizeUIShareMgr@@@Z 0040f7a0 f   custom_ui_share_mgr.obj
 0001:0000e7d0       ??0CCustomizeUIShareSelectUI@@QAE@PAVCCustomizeUIShareMgr@@@Z 0040f7d0 f   custom_ui_share_mgr.obj
 0001:0000e870       ??0CRect@@QAE@HHHH@Z       0040f870 f i custom_ui_share_mgr.obj
 0001:0000e8b0       ??1CCustomizeUIShareRenderUI@@QAE@XZ 0040f8b0 f   custom_ui_share_mgr.obj
 0001:0000e8d0       ??1CCustomizeUIShareSelectUI@@QAE@XZ 0040f8d0 f   custom_ui_share_mgr.obj
 0001:0000e910       ??_GCCustomizeUIShareRenderUI@@QAEPAXI@Z 0040f910 f i custom_ui_share_mgr.obj
 0001:0000e940       ??_GCCustomizeUIShareSelectUI@@QAEPAXI@Z 0040f940 f i custom_ui_share_mgr.obj
 0001:0000e980       ??_GShareToolbarWindow@@QAEPAXI@Z 0040f980 f i custom_ui_share_mgr.obj
 0001:0000e9c0       ??_GViewOptionsWindow@@QAEPAXI@Z 0040f9c0 f i custom_ui_share_mgr.obj
 0001:0000ea00       ?AddToAppList@CCustomizeUIShareSelectUI@@QAEXPAUHWND__@@@Z 0040fa00 f   custom_ui_share_mgr.obj
 0001:0000ec40       ?AdjustListUIPos@CCustomizeUIShareSelectUI@@AAEXXZ 0040fc40 f   custom_ui_share_mgr.obj
 0001:0000ed70       ?CreateCustomShareRender@CCustomizeUIShareMgr@@QAEXPAVICustomizedUIMgr@ZOOMSDK@@@Z 0040fd70 f   custom_ui_share_mgr.obj
 0001:0000ee80       ?CreateSelectShareUI@CCustomizeUIShareMgr@@AAEXXZ 0040fe80 f   custom_ui_share_mgr.obj
 0001:0000ef80       ?CreateShareRenderUI@CCustomizeUIShareMgr@@AAEXXZ 0040ff80 f   custom_ui_share_mgr.obj
 0001:0000f030       ?DestroyAllShareWindows@CCustomizeUIShareMgr@@QAEXXZ 00410030 f   custom_ui_share_mgr.obj
 0001:0000f060       ?DestroyCustomShareRender@CCustomizeUIShareMgr@@QAEXXZ 00410060 f   custom_ui_share_mgr.obj
 0001:0000f0b0       ?DestroySelectShareUI@CCustomizeUIShareMgr@@AAEXXZ 004100b0 f   custom_ui_share_mgr.obj
 0001:0000f130       ?DestroyShareRenderUI@CCustomizeUIShareMgr@@AAEXXZ 00410130 f   custom_ui_share_mgr.obj
 0001:0000f1a0       ?DestroyShareToolbarWindow@CCustomizeUIShareMgr@@QAEXXZ 004101a0 f   custom_ui_share_mgr.obj
 0001:0000f1f0       ?DestroyViewOptionsWindow@CCustomizeUIShareMgr@@QAEXXZ 004101f0 f   custom_ui_share_mgr.obj
 0001:0000f240       ?DoShareButtonClick@CCustomizeUIShareSelectUI@@AAEXW4SDKShareType@@@Z 00410240 f   custom_ui_share_mgr.obj
 0001:0000f280       ?EnumAllWindows@CCustomizeUIShareSelectUI@@QAEXXZ 00410280 f   custom_ui_share_mgr.obj
 0001:0000f2a0       ?EnumWindowsProc@@YGHPAUHWND__@@J@Z 004102a0 f   custom_ui_share_mgr.obj
 0001:0000f300       ?GetShareContentSender@CCustomizeUIShareMgr@@AAEIXZ 00410300 f   custom_ui_share_mgr.obj
 0001:0000f380       ?GetSkinRes@CCustomizeUIShareSelectUI@@UAEIXZ 00410380 f i custom_ui_share_mgr.obj
 0001:0000f390       ?HandleDestroyWindow@CCustomizeUIShareRenderUI@@QAEXXZ 00410390 f   custom_ui_share_mgr.obj
 0001:0000f3b0       ?HandleMessage@CCustomizeUIShareSelectUI@@UAEJIIJ@Z 004103b0 f   custom_ui_share_mgr.obj
 0001:0000f580       ?HandleRenderUIDestroyed@CCustomizeUIShareMgr@@QAEXXZ 00410580 f   custom_ui_share_mgr.obj
 0001:0000f5a0       ?HandleShareRenderDestroyed@CCustomizeUIShareMgr@@QAEXPAVICustomizedShareRender@ZOOMSDK@@@Z 004105a0 f   custom_ui_share_mgr.obj
 0001:0000f5c0       ?HandleShareRenderWindowMsgNotification@CCustomizeUIShareMgr@@QAEXIIJ@Z 004105c0 f   custom_ui_share_mgr.obj
 0001:0000f640       ?HandleSharingShareAnnotationStatusChanged@CCustomizeUIShareMgr@@QAEXPAVICustomizedShareRender@ZOOMSDK@@W4CustomizedShareAnnotationStatus@3@@Z 00410640 f   custom_ui_share_mgr.obj
 0001:0000f660       ?HandleSharingStatus@CCustomizeUIShareMgr@@QAEXW4SharingStatus@ZOOMSDK@@I@Z 00410660 f   custom_ui_share_mgr.obj
 0001:0000f7a0       ?HandleSizeChanged@CCustomizeUIShareMgr@@QAEXAAUtagRECT@@@Z 004107a0 f   custom_ui_share_mgr.obj
 0001:0000f7e0       ?HandleUserChanged@CCustomizeUIShareMgr@@QAEXXZ 004107e0 f   custom_ui_share_mgr.obj
 0001:0000f800       ?HandleWindowMoveMsg@CCustomizeUIShareMgr@@QAEXXZ 00410800 f   custom_ui_share_mgr.obj
 0001:0000f820       ?Height@CRect@@QBEHXZ      00410820 f i custom_ui_share_mgr.obj
 0001:0000f840       ?HideMe@CCustomizeUIShareRenderUI@@QAEXXZ 00410840 f   custom_ui_share_mgr.obj
 0001:0000f880       ?Init@CCustomizeUIShareMgr@@QAEXXZ 00410880 f   custom_ui_share_mgr.obj
 0001:0000f8e0       ?InitAppList@CCustomizeUIShareSelectUI@@QAEXXZ 004108e0 f   custom_ui_share_mgr.obj
 0001:0000f940       ?InitWindow@CCustomizeUIShareRenderUI@@QAEXXZ 00410940 f   custom_ui_share_mgr.obj
 0001:0000f990       ?InitWindow@CCustomizeUIShareSelectUI@@UAEXXZ 00410990 f   custom_ui_share_mgr.obj
 0001:0000fb30       ?IsInSendShareMode@CCustomizeUIShareMgr@@QAE_NXZ 00410b30 f   custom_ui_share_mgr.obj
 0001:0000fb50       ?Notify@CCustomizeUIShareSelectUI@@UAEXAAUtagTNotifyUI@DuiLib@@@Z 00410b50 f   custom_ui_share_mgr.obj
 0001:0000fce0       ?SetDefaultRenderPos@CCustomizeUIShareRenderUI@@QAEXXZ 00410ce0 f   custom_ui_share_mgr.obj
 0001:0000fd50       ?SetEvent@CCustomizeUIShareMgr@@QAEXPAVICustomizedShareRenderEvent@ZOOMSDK@@@Z 00410d50 f   custom_ui_share_mgr.obj
 0001:0000fd70       ?ShouldWindowBeDisplayed@@YAHPAUHWND__@@J@Z 00410d70 f   custom_ui_share_mgr.obj
 0001:0000fed0       ?ShowMe@CCustomizeUIShareRenderUI@@QAEXXZ 00410ed0 f   custom_ui_share_mgr.obj
 0001:0000ff10       ?ShowNextShareContent@CCustomizeUIShareMgr@@AAEXI@Z 00410f10 f   custom_ui_share_mgr.obj
 0001:00010010       ?ShowSelectShareUI@CCustomizeUIShareMgr@@QAEXXZ 00411010 f   custom_ui_share_mgr.obj
 0001:00010080       ?ShowShareToolbarWindow@CCustomizeUIShareMgr@@QAEX_N@Z 00411080 f   custom_ui_share_mgr.obj
 0001:00010170       ?ShowSharedContent@CCustomizeUIShareMgr@@QAEXXZ 00411170 f   custom_ui_share_mgr.obj
 0001:000101a0       ?ShowViewOptionsWindow@CCustomizeUIShareMgr@@QAEX_N@Z 004111a0 f   custom_ui_share_mgr.obj
 0001:00010290       ?StartShare@CCustomizeUIShareMgr@@QAEXW4SDKShareType@@PAUHWND__@@@Z 00411290 f   custom_ui_share_mgr.obj
 0001:000102d0       ?StopShare@CCustomizeUIShareMgr@@QAEXXZ 004112d0 f   custom_ui_share_mgr.obj
 0001:00010300       ?Width@CRect@@QBEHXZ       00411300 f i custom_ui_share_mgr.obj
 0001:00010320       ?onDestroyed@CCustomizeUIShareRenderUI@@UAEXXZ 00411320 f   custom_ui_share_mgr.obj
 0001:00010340       ?onMove@CCustomizeUIShareRenderUI@@UAEXXZ 00411340 f   custom_ui_share_mgr.obj
 0001:00010360       ?onRemoteControlStatus@CCustomizeUIShareMgr@@QAEXW4RemoteControlStatus@ZOOMSDK@@I@Z 00411360 f   custom_ui_share_mgr.obj
 0001:00010590       ?onSelectShareUIClosed@CCustomizeUIShareMgr@@QAEXXZ 00411590 f   custom_ui_share_mgr.obj
 0001:000105b0       ?onSize@CCustomizeUIShareRenderUI@@UAEXAAUtagRECT@@@Z 004115b0 f   custom_ui_share_mgr.obj
 0001:000105e0       ?uninit@CCustomizeUIShareMgr@@QAEXXZ 004115e0 f   custom_ui_share_mgr.obj
 0001:00010610       ___local_stdio_scanf_options 00411610 f i custom_ui_share_mgr.obj
 0001:00010620       __vswscanf_s_l             00411620 f i custom_ui_share_mgr.obj
 0001:00010650       _swscanf_s                 00411650 f i custom_ui_share_mgr.obj
 0001:00010690       ??0CCustomizeUIVideoFlow@@QAE@XZ 00411690 f   custom_ui_video_flow.obj
 0001:000106b0       ?CreateVideoElementFlow@CCustomizeUIVideoFlow@@QAE?AW4SDKError@ZOOMSDK@@PAPAVIVideoRenderElement@3@W4VideoRenderElementType@3@@Z 004116b0 f   custom_ui_video_flow.obj
 0001:00010700       ?DestroryVideoElementFlow@CCustomizeUIVideoFlow@@QAE?AW4SDKError@ZOOMSDK@@PAVIVideoRenderElement@3@@Z 00411700 f   custom_ui_video_flow.obj
 0001:00010750       ?HandleSizeChanged@CCustomizeUIVideoFlow@@QAE?AW4SDKError@ZOOMSDK@@UtagRECT@@@Z 00411750 f   custom_ui_video_flow.obj
 0001:000107a0       ?HidePreviewVideo@CCustomizeUIVideoFlow@@QAE?AW4SDKError@ZOOMSDK@@PAVIPreviewVideoRenderElement@3@@Z 004117a0 f   custom_ui_video_flow.obj
 0001:000107a0       ?HideActiveViewVideo@CCustomizeUIVideoFlow@@QAE?AW4SDKError@ZOOMSDK@@PAVIActiveVideoRenderElement@3@@Z 004117a0 f   custom_ui_video_flow.obj
 0001:000107e0       ?HideGalleryViewVideo@CCustomizeUIVideoFlow@@QAE?AW4SDKError@ZOOMSDK@@PAVINormalVideoRenderElement@3@@Z 004117e0 f   custom_ui_video_flow.obj
 0001:00010820       ?Reset@CCustomizeUIVideoFlow@@QAEXXZ 00411820 f   custom_ui_video_flow.obj
 0001:00010840       ?Show@CCustomizeUIVideoFlow@@QAEXXZ 00411840 f   custom_ui_video_flow.obj
 0001:00010870       ?ShowActiveViewVideo@CCustomizeUIVideoFlow@@QAE?AW4SDKError@ZOOMSDK@@PAVIActiveVideoRenderElement@3@UtagRECT@@@Z 00411870 f   custom_ui_video_flow.obj
 0001:00010870       ?ShowPreviewVideo@CCustomizeUIVideoFlow@@QAE?AW4SDKError@ZOOMSDK@@PAVIPreviewVideoRenderElement@3@UtagRECT@@@Z 00411870 f   custom_ui_video_flow.obj
 0001:000108e0       ?ShowGalleryViewVideo@CCustomizeUIVideoFlow@@QAE?AW4SDKError@ZOOMSDK@@PAVINormalVideoRenderElement@3@UtagRECT@@@Z 004118e0 f   custom_ui_video_flow.obj
 0001:00010970       ??0CCustomizeUIVideoMgr@@QAE@PAVCCustomizeInMeetingUIMgr@@@Z 00411970 f   custom_ui_video_mgr.obj
 0001:000109a0       ?CalculateCountInOnePages@CCustomizeUIVideoMgr@@AAEXXZ 004119a0 f   custom_ui_video_mgr.obj
 0001:00010a10       ?CalculateCurrentActiveViewRect@CCustomizeUIVideoMgr@@AAEXXZ 00411a10 f   custom_ui_video_mgr.obj
 0001:00010ae0       ?CalculateCurrentGalleryViewRect@CCustomizeUIVideoMgr@@AAEXXZ 00411ae0 f   custom_ui_video_mgr.obj
 0001:00010bb0       ?CalculateTotalPages@CCustomizeUIVideoMgr@@AAEXXZ 00411bb0 f   custom_ui_video_mgr.obj
 0001:00010c40       ?CalulateViewRect@CCustomizeUIVideoMgr@@QAEXXZ 00411c40 f   custom_ui_video_mgr.obj
 0001:00010c60       ?CreateCustomVideoContainer@CCustomizeUIVideoMgr@@QAEXPAVICustomizedUIMgr@ZOOMSDK@@PAUHWND__@@UtagRECT@@@Z 00411c60 f   custom_ui_video_mgr.obj
 0001:00010d60       ?CreateGalleryViewVideo@CCustomizeUIVideoMgr@@QAEXXZ 00411d60 f   custom_ui_video_mgr.obj
 0001:00010de0       ?DestroyActiveViewVideo@CCustomizeUIVideoMgr@@QAEXXZ 00411de0 f   custom_ui_video_mgr.obj
 0001:00010e30       ?DestroyCustomVideoContainer@CCustomizeUIVideoMgr@@AAEXXZ 00411e30 f   custom_ui_video_mgr.obj
 0001:00010e80       ?DestroyGalleryViewVideo@CCustomizeUIVideoMgr@@QAEXXZ 00411e80 f   custom_ui_video_mgr.obj
 0001:00010f00       ?DestroyPreviewVideo@CCustomizeUIVideoMgr@@QAEXXZ 00411f00 f   custom_ui_video_mgr.obj
 0001:00010f50       ?GetCurrentAcviteViewRect@CCustomizeUIVideoMgr@@QAE?AUtagRECT@@XZ 00411f50 f   custom_ui_video_mgr.obj
 0001:00010f80       ?GetCurrentGalleryViewRect@CCustomizeUIVideoMgr@@QAE?AUtagRECT@@XZ 00411f80 f   custom_ui_video_mgr.obj
 0001:00010fb0       ?HandleSizeChanged@CCustomizeUIVideoMgr@@QAEXUtagRECT@@@Z 00411fb0 f   custom_ui_video_mgr.obj
 0001:00010ff0       ?HandleSwitchGalleryPage@CCustomizeUIVideoMgr@@QAEXW4ArrowButtonType@@@Z 00411ff0 f   custom_ui_video_mgr.obj
 0001:00011040       ?HandleUserChanged@CCustomizeUIVideoMgr@@QAEXXZ 00412040 f   custom_ui_video_mgr.obj
 0001:00011070       ?HandleVideoRenderElementDestroyed@CCustomizeUIVideoMgr@@QAEXPAVIVideoRenderElement@ZOOMSDK@@@Z 00412070 f   custom_ui_video_mgr.obj
 0001:00011120       ?HideGalleryViewVideo@CCustomizeUIVideoMgr@@QAEXXZ 00412120 f   custom_ui_video_mgr.obj
 0001:00011180       ?HidePreviewVideo@CCustomizeUIVideoMgr@@QAEXXZ 00412180 f   custom_ui_video_mgr.obj
 0001:000111b0       ?ReSubscribeNormalUser@CCustomizeUIVideoMgr@@AAEXW4GalleryViewSubscribeType@@@Z 004121b0 f   custom_ui_video_mgr.obj
 0001:00011410       ?SetGalleryViewStatus@CCustomizeUIVideoMgr@@QAEX_N@Z 00412410 f   custom_ui_video_mgr.obj
 0001:00011430       ?SetParentHWND@CCustomizeUIVideoMgr@@AAEXPAUHWND__@@@Z 00412430 f i custom_ui_video_mgr.obj
 0001:00011450       ?Show@CCustomizeUIVideoMgr@@QAEXXZ 00412450 f   custom_ui_video_mgr.obj
 0001:00011470       ?ShowActiveViewVideo@CCustomizeUIVideoMgr@@QAEXXZ 00412470 f   custom_ui_video_mgr.obj
 0001:00011500       ?ShowGalleryViewVideo@CCustomizeUIVideoMgr@@QAEXW4GalleryViewSubscribeType@@@Z 00412500 f   custom_ui_video_mgr.obj
 0001:00011660       ?ShowPreviewVideo@CCustomizeUIVideoMgr@@QAEXUtagRECT@@@Z 00412660 f   custom_ui_video_mgr.obj
 0001:00011710       ?getVideoGalleryCurrPage@CCustomizeUIVideoMgr@@QAEHXZ 00412710 f   custom_ui_video_mgr.obj
 0001:00011730       ?getVideoGalleryPage@CCustomizeUIVideoMgr@@QAEHXZ 00412730 f   custom_ui_video_mgr.obj
 0001:00011750       ?init@CCustomizeUIVideoMgr@@QAEXXZ 00412750 f   custom_ui_video_mgr.obj
 0001:000117d0       ?uninit@CCustomizeUIVideoMgr@@QAEXXZ 004127d0 f   custom_ui_video_mgr.obj
 0001:00011800       ??0CCheckBoxUI@DuiLib@@QAE@XZ 00412800 f i dial_in_country_ui.obj
 0001:00011820       ??0CDialInCountryUIMgr@@QAE@PAVCSDKSheduleMeetingUIGroup@@PAVIScheduleMeetingItem@ZOOMSDK@@@Z 00412820 f   dial_in_country_ui.obj
 0001:00011930       ??1CCheckBoxUI@DuiLib@@UAE@XZ 00412930 f i dial_in_country_ui.obj
 0001:00011950       ??1CDialInCountryUIMgr@@QAE@XZ 00412950 f   dial_in_country_ui.obj
 0001:000119e0       ?AddElement@CDialInCountryUIMgr@@AAEXPB_W@Z 004129e0 f   dial_in_country_ui.obj
 0001:00011b70       ?DoClickSaveChangeBtn@CDialInCountryUIMgr@@AAEXXZ 00412b70 f   dial_in_country_ui.obj
 0001:00011e90       ?FindElement@CDialInCountryUIMgr@@AAEPAVCControlUI@DuiLib@@PB_W@Z 00412e90 f   dial_in_country_ui.obj
 0001:00011ec0       ?GetSelectedDialinCountryCode@CDialInCountryUIMgr@@QAEPAV?$IList@PB_W@ZOOMSDK@@XZ 00412ec0 f   dial_in_country_ui.obj
 0001:00011f00       ?GetSkinRes@CDialInCountryUIMgr@@UAEIXZ 00412f00 f i dial_in_country_ui.obj
 0001:00011f10       ?HandleMessage@CDialInCountryUIMgr@@UAEJIIJ@Z 00412f10 f   dial_in_country_ui.obj
 0001:000120f0       ?InitCountryListUI@CDialInCountryUIMgr@@AAEXXZ 004130f0 f   dial_in_country_ui.obj
 0001:00012280       ?InitWindow@CDialInCountryUIMgr@@UAEXXZ 00413280 f   dial_in_country_ui.obj
 0001:00012470       ?Notify@CDialInCountryUIMgr@@UAEXAAUtagTNotifyUI@DuiLib@@@Z 00413470 f   dial_in_country_ui.obj
 0001:000124d0       ?UpdateShowList@CDialInCountryUIMgr@@AAEXXZ 004134d0 f   dial_in_country_ui.obj
 0001:00012710       ??0ClosedCaptionDisplayUI@@QAE@HH@Z 00413710 f   display_cc_ui.obj
 0001:00012780       ??1ClosedCaptionDisplayUI@@UAE@XZ 00413780 f   display_cc_ui.obj
 0001:000127c0       ??_GClosedCaptionDisplayUI@@UAEPAXI@Z 004137c0 f i display_cc_ui.obj
 0001:000127c0       ??_EClosedCaptionDisplayUI@@UAEPAXI@Z 004137c0 f i display_cc_ui.obj
 0001:00012800       ?GetWindowClassName@CInvitationUIMgr@@UBEPB_WXZ 00413800 f i invitation_ui.obj
 0001:00012800       ?GetWindowClassName@ClosedCaptionDisplayUI@@UBEPB_WXZ 00413800 f i display_cc_ui.obj
 0001:00012810       ?HandleMessage@ClosedCaptionDisplayUI@@UAEJIIJ@Z 00413810 f   display_cc_ui.obj
 0001:00012950       ?HandleSizeChanged@ClosedCaptionDisplayUI@@QAEXPAUHWND__@@@Z 00413950 f   display_cc_ui.obj
 0001:000129e0       ?HideWnd@@YGXPAUHWND__@@IIK@Z 004139e0 f   display_cc_ui.obj
 0001:00012a00       ?Init@ClosedCaptionDisplayUI@@AAEXXZ 00413a00 f   display_cc_ui.obj
 0001:00012b60       ?SetDisplayContent@ClosedCaptionDisplayUI@@QAEXPB_W@Z 00413b60 f   display_cc_ui.obj
 0001:00012bf0       ??0CZoomHttpRequestHelper@@QAE@XZ 00413bf0 f   HttpRequestHelper.obj
 0001:00012c70       ?CharToWchar@zoomHmacSHA256@@QAE_NPBDPA_W@Z 00413c70 f   zoomHmacSHA256.obj
 0001:00012c70       ?CharToWchar@CZoomHttpRequestHelper@@AAE_NPBDPA_W@Z 00413c70 f   HttpRequestHelper.obj
 0001:00012d30       ?DeleteTempFile@CZoomHttpRequestHelper@@AAEXPA_W@Z 00413d30 f   HttpRequestHelper.obj
 0001:00012da0       ?GetTokenFromFile@CZoomHttpRequestHelper@@AAE_NW4infoType@@@Z 00413da0 f   HttpRequestHelper.obj
 0001:00013060       ?GetUserBasicInfoFromFile@CZoomHttpRequestHelper@@AAE_NXZ 00414060 f   HttpRequestHelper.obj
 0001:00013490       ?MakeAPIUrlTokens@CZoomHttpRequestHelper@@QAE_NXZ 00414490 f   HttpRequestHelper.obj
 0001:00013510       ?SetRestAPIAccessToken@CZoomHttpRequestHelper@@QAEXPA_W@Z 00414510 f   HttpRequestHelper.obj
 0001:00013530       ?SetRestAPIDomain@CZoomHttpRequestHelper@@QAEXPA_W@Z 00414530 f   HttpRequestHelper.obj
 0001:00013550       ?WcharToChar@zoomHmacSHA256@@QAE_NPB_WPAD@Z 00414550 f   zoomHmacSHA256.obj
 0001:00013550       ?WcharToChar@CZoomHttpRequestHelper@@AAE_NPB_WPAD@Z 00414550 f   HttpRequestHelper.obj
 0001:000135a0       ?getAPIUserInfo@CZoomHttpRequestHelper@@AAE_NW4infoType@@@Z 004145a0 f   HttpRequestHelper.obj
 0001:00013b00       ?strstr@@YAPADQADQBD@Z     00414b00 f i HttpRequestHelper.obj
 0001:00013b20       ?wcsrchr@@YAPA_WPA_W_W@Z   00414b20 f i HttpRequestHelper.obj
 0001:00013b40       ??0CAuthSDKWorkFlow@@QAE@XZ 00414b40 f   init_auth_sdk_workflow.obj
 0001:00013b80       ??0CInitSDKWorkFlow@@QAE@XZ 00414b80 f   init_auth_sdk_workflow.obj
 0001:00013bb0       ??0IAuthServiceEvent@ZOOMSDK@@QAE@XZ 00414bb0 f i init_auth_sdk_workflow.obj
 0001:00013bd0       ??0INetworkConnectionHandler@ZOOMSDK@@QAE@XZ 00414bd0 f i init_auth_sdk_workflow.obj
 0001:00013bf0       ??1CAuthSDKWorkFlow@@UAE@XZ 00414bf0 f   init_auth_sdk_workflow.obj
 0001:00013c60       ??1CInitSDKWorkFlow@@UAE@XZ 00414c60 f   init_auth_sdk_workflow.obj
 0001:00013c80       ??_GCAuthSDKWorkFlow@@UAEPAXI@Z 00414c80 f i init_auth_sdk_workflow.obj
 0001:00013c80       ??_ECAuthSDKWorkFlow@@UAEPAXI@Z 00414c80 f i init_auth_sdk_workflow.obj
 0001:00013cb0       ??_GCInitSDKWorkFlow@@UAEPAXI@Z 00414cb0 f i init_auth_sdk_workflow.obj
 0001:00013cb0       ??_ECInitSDKWorkFlow@@UAEPAXI@Z 00414cb0 f i init_auth_sdk_workflow.obj
 0001:00013ce0       ?Auth@CAuthSDKWorkFlow@@QAE?AW4SDKError@ZOOMSDK@@AAUtagAuthContext@3@@Z 00414ce0 f   init_auth_sdk_workflow.obj
 0001:00013d50       ?Auth@CAuthSDKWorkFlow@@QAE?AW4SDKError@ZOOMSDK@@AAUtagAuthParam@3@@Z 00414d50 f   init_auth_sdk_workflow.obj
 0001:00013dc0       ?CleanupSDK@CInitSDKWorkFlow@@QAE?AW4SDKError@ZOOMSDK@@XZ 00414dc0 f   init_auth_sdk_workflow.obj
 0001:00013e10       ?InitSDK@CInitSDKWorkFlow@@QAE?AW4SDKError@ZOOMSDK@@AAUtagInitParam@3@_N@Z 00414e10 f   init_auth_sdk_workflow.obj
 0001:00013ec0       ?onAuthenticationReturn@CAuthSDKWorkFlow@@UAEXW4AuthResult@ZOOMSDK@@@Z 00414ec0 f   init_auth_sdk_workflow.obj
 0001:00013ef0       ?onProxyDetectComplete@CInitSDKWorkFlow@@UAEXXZ 00414ef0 f   init_auth_sdk_workflow.obj
 0001:00013f30       ??0CInvitationUIMgr@@QAE@XZ 00414f30 f   invitation_ui.obj
 0001:00013fe0       ??1CInvitationUIMgr@@QAE@XZ 00414fe0 f   invitation_ui.obj
 0001:00014040       ?DoClickCopyInviteInfoBtn@CInvitationUIMgr@@IAEXXZ 00415040 f   invitation_ui.obj
 0001:00014170       ?DoClickCopyLinkBtn@CInvitationUIMgr@@IAEXXZ 00415170 f   invitation_ui.obj
 0001:000141e0       ?GetSkinRes@CInvitationUIMgr@@UAEIXZ 004151e0 f i invitation_ui.obj
 0001:000141f0       ?HandleMessage@CInvitationUIMgr@@UAEJIIJ@Z 004151f0 f   invitation_ui.obj
 0001:00014430       ?InitWindow@CInvitationUIMgr@@IAEXXZ 00415430 f   invitation_ui.obj
 0001:000145f0       ?Notify@CInvitationUIMgr@@UAEXAAUtagTNotifyUI@DuiLib@@@Z 004155f0 f   invitation_ui.obj
 0001:00014660       ??0CInvitationWorkflow@@QAE@XZ 00415660 f   invitation_workflow.obj
 0001:00014690       ??1CInvitationWorkflow@@UAE@XZ 00415690 f   invitation_workflow.obj
 0001:000146b0       ??_ECInvitationWorkflow@@UAEPAXI@Z 004156b0 f i invitation_workflow.obj
 0001:000146b0       ??_GCInvitationWorkflow@@UAEPAXI@Z 004156b0 f i invitation_workflow.obj
 0001:000146e0       ?GetInviteEmailTeamplate@CInvitationWorkflow@@QAEPB_WXZ 004156e0 f   invitation_workflow.obj
 0001:00014710       ?GetInviteEmailTitle@CInvitationWorkflow@@QAEPB_WXZ 00415710 f   invitation_workflow.obj
 0001:00014740       ?GetJoinMeetingUrl@CInvitationWorkflow@@QAEPB_WXZ 00415740 f   invitation_workflow.obj
 0001:00014770       ?Init@CInvitationWorkflow@@QAEXXZ 00415770 f   invitation_workflow.obj
 0001:000147b0       ??0CSDKJoinMeetingForLoginUserFlowUIEvent@@QAE@XZ 004157b0 f i Join_meeting_for_login_user_ui.obj
 0001:000147d0       ??0CSDKJoinMeetingForLoginUserUIGroup@@QAE@XZ 004157d0 f   Join_meeting_for_login_user_ui.obj
 0001:00014840       ??0CSDKJoinMeetingForLoginUserUIMgr@@QAE@XZ 00415840 f   Join_meeting_for_login_user_ui.obj
 0001:000148e0       ??0tagJoinParam@ZOOMSDK@@QAE@XZ 004158e0 f i Join_meeting_for_login_user_ui.obj
 0001:00014920       ??1CSDKJoinMeetingForLoginUserUIGroup@@UAE@XZ 00415920 f   Join_meeting_for_login_user_ui.obj
 0001:00014990       ??1CSDKJoinMeetingForLoginUserUIMgr@@UAE@XZ 00415990 f   Join_meeting_for_login_user_ui.obj
 0001:000149e0       ??_ECSDKJoinMeetingForLoginUserUIGroup@@UAEPAXI@Z 004159e0 f i Join_meeting_for_login_user_ui.obj
 0001:000149e0       ??_GCSDKJoinMeetingForLoginUserUIGroup@@UAEPAXI@Z 004159e0 f i Join_meeting_for_login_user_ui.obj
 0001:00014a10       ??_ECSDKJoinMeetingForLoginUserUIMgr@@UAEPAXI@Z 00415a10 f i Join_meeting_for_login_user_ui.obj
 0001:00014a10       ??_GCSDKJoinMeetingForLoginUserUIMgr@@UAEPAXI@Z 00415a10 f i Join_meeting_for_login_user_ui.obj
 0001:00014a50       ?DoJoinMeetingBtnClick@CSDKJoinMeetingForLoginUserUIGroup@@QAEXXZ 00415a50 f   Join_meeting_for_login_user_ui.obj
 0001:00014db0       ?GetParent@CToolbarBottom@@QAEPAUHWND__@@XZ 00415db0 f   toolbar_manager.obj
 0001:00014db0       ?GetAppEvent@CSDKJoinMeetingForLoginUserUIMgr@@QAEPAVCSDKDemoAppEvent@@XZ 00415db0 f   Join_meeting_for_login_user_ui.obj
 0001:00014dd0       ?GetSkinRes@CSDKJoinMeetingForLoginUserUIMgr@@UAEIXZ 00415dd0 f i Join_meeting_for_login_user_ui.obj
 0001:00014de0       ?HandleMessage@CSDKJoinMeetingForLoginUserUIMgr@@UAEJIIJ@Z 00415de0 f   Join_meeting_for_login_user_ui.obj
 0001:00014fe0       ?InitWindow@CSDKJoinMeetingForLoginUserUIGroup@@QAEXAAVCPaintManagerUI@DuiLib@@PAVCSDKJoinMeetingForLoginUserUIMgr@@@Z 00415fe0 f   Join_meeting_for_login_user_ui.obj
 0001:00015070       ?InitWindow@CSDKJoinMeetingForLoginUserUIMgr@@UAEXXZ 00416070 f   Join_meeting_for_login_user_ui.obj
 0001:000151b0       ?IsSelectCustomizedUIMode@SDKInterfaceWrap@@QAE_NXZ 004161b0 f i Join_meeting_for_login_user_ui.obj
 0001:000151d0       ?Notify@CSDKJoinMeetingForLoginUserUIGroup@@QAEXAAUtagTNotifyUI@DuiLib@@@Z 004161d0 f   Join_meeting_for_login_user_ui.obj
 0001:00015210       ?Notify@CSDKJoinMeetingForLoginUserUIMgr@@UAEXAAUtagTNotifyUI@DuiLib@@@Z 00416210 f   Join_meeting_for_login_user_ui.obj
 0001:00015230       ?OnDestroy@CSDKJoinMeetingForLoginUserUIMgr@@QAEJIIJAAH@Z 00416230 f   Join_meeting_for_login_user_ui.obj
 0001:00015250       ?SetEvent@CSDKJoinMeetingForLoginUserUIMgr@@QAEXPAVCSDKDemoAppEvent@@@Z 00416250 f   Join_meeting_for_login_user_ui.obj
 0001:00015250       ?SetParent@CToolbarBottom@@QAEXPAUHWND__@@@Z 00416250 f   toolbar_bottom_ui.obj
 0001:00015270       ?ShowErrorMessage@CSDKJoinMeetingForLoginUserUIMgr@@QAEXPB_W@Z 00416270 f   Join_meeting_for_login_user_ui.obj
 0001:000152a0       ?UninitWindow@CSDKJoinMeetingForLoginUserUIGroup@@QAEXXZ 004162a0 f   Join_meeting_for_login_user_ui.obj
 0001:000152d0       ?onMeetingStatusChanged@CSDKJoinMeetingForLoginUserUIGroup@@UAEXW4MeetingStatus@ZOOMSDK@@H@Z 004162d0 f   Join_meeting_for_login_user_ui.obj
 0001:00015340       ??0CSDKJoinMeetingForLoginUserFlow@@QAE@XZ 00416340 f   Join_meeting_for_login_user_workflow.obj
 0001:00015380       ??1CSDKJoinMeetingForLoginUserFlow@@UAE@XZ 00416380 f   Join_meeting_for_login_user_workflow.obj
 0001:000153f0       ??_ECSDKJoinMeetingForLoginUserFlow@@UAEPAXI@Z 004163f0 f i Join_meeting_for_login_user_workflow.obj
 0001:000153f0       ??_GCSDKJoinMeetingForLoginUserFlow@@UAEPAXI@Z 004163f0 f i Join_meeting_for_login_user_workflow.obj
 0001:00015420       ?IsMeetingServiceReady@CSDKRestAPIUserWorkFlow@@QAE_NXZ 00416420 f   LOGIN_restapi_without_login_workflow.obj
 0001:00015420       ?IsMeetingServiceReady@CSDKJoinMeetingForLoginUserFlow@@QAE_NXZ 00416420 f   Join_meeting_for_login_user_workflow.obj
 0001:00015470       ?JoinMeeting@CSDKJoinMeetingForLoginUserFlow@@QAE?AW4SDKError@ZOOMSDK@@AAUtagJoinParam@3@@Z 00416470 f   Join_meeting_for_login_user_workflow.obj
 0001:00015510       ??0CSDKLoggedInFlowUIEvent@@QAE@XZ 00416510 f i LoggedIn_sdk_controller_ui.obj
 0001:00015530       ??0CSDKLoggedInUIMgr@@QAE@XZ 00416530 f   LoggedIn_sdk_controller_ui.obj
 0001:00015600       ??0tagStartParam@ZOOMSDK@@QAE@XZ 00416600 f i LoggedIn_sdk_controller_ui.obj
 0001:00015630       ??1CSDKLoggedInUIMgr@@UAE@XZ 00416630 f   LoggedIn_sdk_controller_ui.obj
 0001:00015680       ??_GCSDKLoggedInUIMgr@@UAEPAXI@Z 00416680 f i LoggedIn_sdk_controller_ui.obj
 0001:00015680       ??_ECSDKLoggedInUIMgr@@UAEPAXI@Z 00416680 f i LoggedIn_sdk_controller_ui.obj
 0001:000156c0       ?DisableMeetingButton@CSDKLoggedInUIMgr@@IAEXXZ 004166c0 f   LoggedIn_sdk_controller_ui.obj
 0001:000158c0       ?DoBackToMeetingBtnClick@CSDKLoggedInUIMgr@@IAEXXZ 004168c0 f   LoggedIn_sdk_controller_ui.obj
 0001:00015900       ?DoConfigureBtnClick@CSDKLoggedInUIMgr@@IAEXXZ 00416900 f   LoggedIn_sdk_controller_ui.obj
 0001:00015940       ?DoJoinMeetingBtnClick@CSDKLoggedInUIMgr@@IAEXXZ 00416940 f   LoggedIn_sdk_controller_ui.obj
 0001:00015970       ?DoLogoutBtnClick@CSDKLoggedInUIMgr@@IAEXXZ 00416970 f   LoggedIn_sdk_controller_ui.obj
 0001:00015990       ?DoScheduleBtnClick@CSDKLoggedInUIMgr@@IAEXXZ 00416990 f   LoggedIn_sdk_controller_ui.obj
 0001:000159c0       ?DoStartDirectShareBtnClick@CSDKLoggedInUIMgr@@IAEXXZ 004169c0 f   LoggedIn_sdk_controller_ui.obj
 0001:000159e0       ?DoStartMeetingBtnClick@CSDKLoggedInUIMgr@@IAEX_N@Z 004169e0 f   LoggedIn_sdk_controller_ui.obj
 0001:00015b80       ?GetSkinRes@CSDKLoggedInUIMgr@@UAEIXZ 00416b80 f i LoggedIn_sdk_controller_ui.obj
 0001:00015b90       ?HandleMessage@CSDKLoggedInUIMgr@@UAEJIIJ@Z 00416b90 f   LoggedIn_sdk_controller_ui.obj
 0001:00015d90       ?InitWindow@CSDKLoggedInUIMgr@@UAEXXZ 00416d90 f   LoggedIn_sdk_controller_ui.obj
 0001:00016170       ?Notify@CSDKLoggedInUIMgr@@UAEXAAUtagTNotifyUI@DuiLib@@@Z 00417170 f   LoggedIn_sdk_controller_ui.obj
 0001:00016330       ?OnClose@CSDKLoggedInUIMgr@@QAEJIIJAAH@Z 00417330 f   LoggedIn_sdk_controller_ui.obj
 0001:000163d0       ?OnDestroy@CSDKLoggedInUIMgr@@QAEJIIJAAH@Z 004173d0 f   LoggedIn_sdk_controller_ui.obj
 0001:000163f0       ?SetEvent@CSDKLoggedInUIMgr@@QAEXPAVCSDKDemoAppEvent@@@Z 004173f0 f   LoggedIn_sdk_controller_ui.obj
 0001:00016410       ?ShowBackToMeetingButton@CSDKLoggedInUIMgr@@IAEXXZ 00417410 f   LoggedIn_sdk_controller_ui.obj
 0001:00016820       ?ShowErrorMessage@CSDKLoggedInUIMgr@@QAEXPB_W@Z 00417820 f   LoggedIn_sdk_controller_ui.obj
 0001:00016850       ?ShowUI@CSDKLoggedInUIMgr@@QAEXW4LoggedIn_MeetingUI_type@@@Z 00417850 f   LoggedIn_sdk_controller_ui.obj
 0001:000169b0       ?onMeetingStatusChanged@CSDKLoggedInUIMgr@@UAEXW4MeetingStatus@ZOOMSDK@@H@Z 004179b0 f   LoggedIn_sdk_controller_ui.obj
 0001:00016ab0       ?updateUI@CSDKLoggedInUIMgr@@IAEXXZ 00417ab0 f   LoggedIn_sdk_controller_ui.obj
 0001:00016ad0       ??0CSDKLoggedInUIWorkFlow@@QAE@XZ 00417ad0 f   LoggedIn_sdk_controller_workflow.obj
 0001:00016b30       ??0IDirectShareServiceHelperEvent@ZOOMSDK@@QAE@XZ 00417b30 f i LoggedIn_sdk_controller_workflow.obj
 0001:00016b50       ??1CSDKLoggedInUIWorkFlow@@UAE@XZ 00417b50 f   LoggedIn_sdk_controller_workflow.obj
 0001:00016bd0       ??_GCSDKLoggedInUIWorkFlow@@UAEPAXI@Z 00417bd0 f i LoggedIn_sdk_controller_workflow.obj
 0001:00016bd0       ??_ECSDKLoggedInUIWorkFlow@@UAEPAXI@Z 00417bd0 f i LoggedIn_sdk_controller_workflow.obj
 0001:00016c00       ?BringMeetingToFront@CSDKLoggedInUIWorkFlow@@QAE?AW4SDKError@ZOOMSDK@@XZ 00417c00 f   LoggedIn_sdk_controller_workflow.obj
 0001:00016c60       ?DirectShare@CSDKLoggedInUIWorkFlow@@QAE?AW4SDKError@ZOOMSDK@@XZ 00417c60 f   LoggedIn_sdk_controller_workflow.obj
 0001:00016d10       ?EndMeeting@CSDKLoggedInUIWorkFlow@@QAE?AW4SDKError@ZOOMSDK@@XZ 00417d10 f   LoggedIn_sdk_controller_workflow.obj
 0001:00016d70       ?IsMeetingServiceReady@CSDKLoggedInUIWorkFlow@@QAE_NXZ 00417d70 f   LoggedIn_sdk_controller_workflow.obj
 0001:00016dc0       ?LeaveMeeting@CSDKLoggedInUIWorkFlow@@QAE?AW4SDKError@ZOOMSDK@@XZ 00417dc0 f   LoggedIn_sdk_controller_workflow.obj
 0001:00016e20       ?OnDirectShareStatusUpdate@CSDKLoggedInUIWorkFlow@@UAEXW4DirectShareStatusStatus_Enum@ZOOMSDK@@PAVIDirectShareViaMeetingIDOrPairingCodeHandler@3@@Z 00417e20 f   LoggedIn_sdk_controller_workflow.obj
 0001:00016e60       ?StartMeeting@CSDKLoggedInUIWorkFlow@@QAE?AW4SDKError@ZOOMSDK@@AAUtagStartParam@3@@Z 00417e60 f   LoggedIn_sdk_controller_workflow.obj
 0001:00016ee0       ?onMeetingParameterNotification@CSDKLoggedInUIWorkFlow@@UAEXPBUtagMeetingParameter@ZOOMSDK@@@Z 00417ee0 f   LoggedIn_sdk_controller_workflow.obj
 0001:00016f10       ?onMeetingSecureKeyNotification@CSDKLoggedInUIWorkFlow@@UAEXPBDHPAVIMeetingExternalSecureKeyHandler@ZOOMSDK@@@Z 00417f10 f   LoggedIn_sdk_controller_workflow.obj
 0001:00016f50       ?onMeetingStatisticsWarningNotification@CSDKLoggedInUIWorkFlow@@UAEXW4StatisticsWarningType@ZOOMSDK@@@Z 00417f50 f   LoggedIn_sdk_controller_workflow.obj
 0001:00016f80       ?onMeetingStatusChanged@CSDKLoggedInUIWorkFlow@@UAEXW4MeetingStatus@ZOOMSDK@@H@Z 00417f80 f   LoggedIn_sdk_controller_workflow.obj
 0001:00016f80       ?OnMicSpkVolumnChanged@CSDKAudioSettingsWorkFlow@@UAEXII@Z 00417f80 f   SETTINGS_audio_workflow.obj
 0001:00016fb0       ??0CSDKWithoutLoginStartJoinMeetingFlow@@QAE@XZ 00417fb0 f   LOGIN_join_meeting_only_workflow.obj
 0001:00017010       ??1CSDKWithoutLoginStartJoinMeetingFlow@@UAE@XZ 00418010 f   LOGIN_join_meeting_only_workflow.obj
 0001:000170a0       ??_ECSDKWithoutLoginStartJoinMeetingFlow@@UAEPAXI@Z 004180a0 f i LOGIN_join_meeting_only_workflow.obj
 0001:000170a0       ??_GCSDKWithoutLoginStartJoinMeetingFlow@@UAEPAXI@Z 004180a0 f i LOGIN_join_meeting_only_workflow.obj
 0001:000170d0       ?IsMeetingServiceReady@CSDKWithoutLoginStartJoinMeetingFlow@@QAE_NXZ 004180d0 f   LOGIN_join_meeting_only_workflow.obj
 0001:00017130       ?JoinMeeting@CSDKWithoutLoginStartJoinMeetingFlow@@QAE?AW4SDKError@ZOOMSDK@@AAUtagJoinParam@3@@Z 00418130 f   LOGIN_join_meeting_only_workflow.obj
 0001:000171e0       ??0CSDKLoginWithEmailFlow@@QAE@XZ 004181e0 f   LOGIN_login_with_email_workflow.obj
 0001:00017210       ??1CSDKLoginWithEmailFlow@@UAE@XZ 00418210 f   LOGIN_login_with_email_workflow.obj
 0001:00017230       ??_GCSDKLoginWithEmailFlow@@UAEPAXI@Z 00418230 f i LOGIN_login_with_email_workflow.obj
 0001:00017230       ??_ECSDKLoginWithEmailFlow@@UAEPAXI@Z 00418230 f i LOGIN_login_with_email_workflow.obj
 0001:00017260       ?LogOut@CSDKLoginWithEmailFlow@@QAE?AW4SDKError@ZOOMSDK@@XZ 00418260 f   LOGIN_login_with_email_workflow.obj
 0001:000172c0       ?Login@CSDKLoginWithSSOFlow@@QAE?AW4SDKError@ZOOMSDK@@AAUtagLoginParam@3@@Z 004182c0 f   LOGIN_login_with_sso_workflow.obj
 0001:000172c0       ?Login@CSDKLoginWithEmailFlow@@QAE?AW4SDKError@ZOOMSDK@@AAUtagLoginParam@3@@Z 004182c0 f   LOGIN_login_with_email_workflow.obj
 0001:00017320       ??0CSDKLoginWithSSOFlow@@QAE@XZ 00418320 f   LOGIN_login_with_sso_workflow.obj
 0001:00017350       ??1CSDKLoginWithSSOFlow@@UAE@XZ 00418350 f   LOGIN_login_with_sso_workflow.obj
 0001:00017370       ??_ECSDKLoginWithSSOFlow@@UAEPAXI@Z 00418370 f i LOGIN_login_with_sso_workflow.obj
 0001:00017370       ??_GCSDKLoginWithSSOFlow@@UAEPAXI@Z 00418370 f i LOGIN_login_with_sso_workflow.obj
 0001:000173a0       ??0CSDKRestAPIUserWorkFlow@@QAE@XZ 004183a0 f   LOGIN_restapi_without_login_workflow.obj
 0001:000173e0       ??1CSDKRestAPIUserWorkFlow@@UAE@XZ 004183e0 f   LOGIN_restapi_without_login_workflow.obj
 0001:00017450       ??_GCSDKRestAPIUserWorkFlow@@UAEPAXI@Z 00418450 f i LOGIN_restapi_without_login_workflow.obj
 0001:00017450       ??_ECSDKRestAPIUserWorkFlow@@UAEPAXI@Z 00418450 f i LOGIN_restapi_without_login_workflow.obj
 0001:00017480       ?RestAPIStartMeeting@CSDKRestAPIUserWorkFlow@@QAE?AW4SDKError@ZOOMSDK@@AAUtagStartParam@3@@Z 00418480 f   LOGIN_restapi_without_login_workflow.obj
 0001:00017530       ?onComputerCamDeviceChanged@CSDKVideoSettingsWorkFlow@@UAEXPAV?$IList@PAVICameraInfo@ZOOMSDK@@@ZOOMSDK@@@Z 00418530 f   SETTINGS_video_workflow.obj
 0001:00017530       ?onMeetingParameterNotification@CSDKRestAPIUserWorkFlow@@UAEXPBUtagMeetingParameter@ZOOMSDK@@@Z 00418530 f   LOGIN_restapi_without_login_workflow.obj
 0001:00017560       ?onMeetingSecureKeyNotification@CSDKRestAPIUserWorkFlow@@UAEXPBDHPAVIMeetingExternalSecureKeyHandler@ZOOMSDK@@@Z 00418560 f   LOGIN_restapi_without_login_workflow.obj
 0001:000175a0       ??0CSDKJoinMeetingOnlyFlowUIEvent@@QAE@XZ 004185a0 f i LOGIN_sdk_login_UI.obj
 0001:000175c0       ??0CSDKLoginCBHandler@@QAE@XZ 004185c0 f   LOGIN_sdk_login_UI.obj
 0001:000175f0       ??0CSDKLoginUIMgr@@QAE@XZ  004185f0 f   LOGIN_sdk_login_UI.obj
 0001:00017780       ??0CSDKLoginWithEmailUIGroup@@QAE@XZ 00418780 f   LOGIN_sdk_login_UI.obj
 0001:000177f0       ??0CSDKLoginWithSSOUIGroup@@QAE@XZ 004187f0 f   LOGIN_sdk_login_UI.obj
 0001:00017850       ??0CSDKRestAPIUserUIEvent@@QAE@XZ 00418850 f i LOGIN_sdk_login_UI.obj
 0001:00017870       ??0CSDKRestAPIUserUIGroup@@QAE@XZ 00418870 f   LOGIN_sdk_login_UI.obj
 0001:000178f0       ??0CSDKWithoutLoginStartJoinMeetingUIGroup@@QAE@XZ 004188f0 f   LOGIN_sdk_login_UI.obj
 0001:00017970       ??0tagLoginParam@ZOOMSDK@@QAE@XZ 00418970 f i LOGIN_sdk_login_UI.obj
 0001:000179a0       ??1CSDKLoginCBHandler@@UAE@XZ 004189a0 f   LOGIN_sdk_login_UI.obj
 0001:00017a00       ??1CSDKLoginUIMgr@@UAE@XZ  00418a00 f   LOGIN_sdk_login_UI.obj
 0001:00017b60       ??1CSDKLoginWithEmailUIGroup@@UAE@XZ 00418b60 f   LOGIN_sdk_login_UI.obj
 0001:00017bd0       ??1CSDKLoginWithSSOUIGroup@@UAE@XZ 00418bd0 f   LOGIN_sdk_login_UI.obj
 0001:00017c30       ??1CSDKRestAPIUserUIGroup@@UAE@XZ 00418c30 f   LOGIN_sdk_login_UI.obj
 0001:00017ca0       ??1CSDKWithoutLoginStartJoinMeetingUIGroup@@UAE@XZ 00418ca0 f   LOGIN_sdk_login_UI.obj
 0001:00017d10       ??_GCSDKLoginCBHandler@@UAEPAXI@Z 00418d10 f i LOGIN_sdk_login_UI.obj
 0001:00017d10       ??_ECSDKLoginCBHandler@@UAEPAXI@Z 00418d10 f i LOGIN_sdk_login_UI.obj
 0001:00017d40       ??_GCSDKLoginUIMgr@@UAEPAXI@Z 00418d40 f i LOGIN_sdk_login_UI.obj
 0001:00017d40       ??_ECSDKLoginUIMgr@@UAEPAXI@Z 00418d40 f i LOGIN_sdk_login_UI.obj
 0001:00017d80       ??_GCSDKLoginWithEmailUIGroup@@UAEPAXI@Z 00418d80 f i LOGIN_sdk_login_UI.obj
 0001:00017d80       ??_ECSDKLoginWithEmailUIGroup@@UAEPAXI@Z 00418d80 f i LOGIN_sdk_login_UI.obj
 0001:00017db0       ??_GCSDKLoginWithSSOUIGroup@@UAEPAXI@Z 00418db0 f i LOGIN_sdk_login_UI.obj
 0001:00017db0       ??_ECSDKLoginWithSSOUIGroup@@UAEPAXI@Z 00418db0 f i LOGIN_sdk_login_UI.obj
 0001:00017de0       ??_ECSDKRestAPIUserUIGroup@@UAEPAXI@Z 00418de0 f i LOGIN_sdk_login_UI.obj
 0001:00017de0       ??_GCSDKRestAPIUserUIGroup@@UAEPAXI@Z 00418de0 f i LOGIN_sdk_login_UI.obj
 0001:00017e10       ??_GCSDKWithoutLoginStartJoinMeetingUIGroup@@UAEPAXI@Z 00418e10 f i LOGIN_sdk_login_UI.obj
 0001:00017e10       ??_ECSDKWithoutLoginStartJoinMeetingUIGroup@@UAEPAXI@Z 00418e10 f i LOGIN_sdk_login_UI.obj
 0001:00017e40       ??_GCZoomHttpRequestHelper@@QAEPAXI@Z 00418e40 f i LOGIN_sdk_login_UI.obj
 0001:00017e80       ??_GzoomHmacSHA256@@QAEPAXI@Z 00418e80 f i LOGIN_sdk_login_UI.obj
 0001:00017ec0       ?ChangeUIforJoinFailed@CSDKLoginUIMgr@@QAEXXZ 00418ec0 f   LOGIN_sdk_login_UI.obj
 0001:00017f10       ?ChangeUIforLoginFailed@CSDKLoginUIMgr@@QAEXXZ 00418f10 f   LOGIN_sdk_login_UI.obj
 0001:00017f70       ?DoLoginWithEmailBtnClick@CSDKLoginWithEmailUIGroup@@QAEXXZ 00418f70 f   LOGIN_sdk_login_UI.obj
 0001:00018170       ?DoLoginWithSSOBtnClick@CSDKLoginWithSSOUIGroup@@QAEXXZ 00419170 f   LOGIN_sdk_login_UI.obj
 0001:00018300       ?DoWithoutLoginStartJoinMeetingBtnClick@CSDKWithoutLoginStartJoinMeetingUIGroup@@QAEXXZ 00419300 f   LOGIN_sdk_login_UI.obj
 0001:000186f0       ?DoWithoutLoginStartMeetingBtnClick@CSDKRestAPIUserUIGroup@@QAEXXZ 004196f0 f   LOGIN_sdk_login_UI.obj
 0001:00018e90       ?GetAppEvent@CSDKLoginUIMgr@@QAEPAVCSDKDemoAppEvent@@XZ 00419e90 f   LOGIN_sdk_login_UI.obj
 0001:00018eb0       ?GetSDKURLUserID@CZoomHttpRequestHelper@@QAEPB_WXZ 00419eb0 f i LOGIN_sdk_login_UI.obj
 0001:00018ed0       ?GetSDKURLUserToken@CZoomHttpRequestHelper@@QAEPB_WXZ 00419ed0 f i LOGIN_sdk_login_UI.obj
 0001:00018ef0       ?GetSDKURLZakToken@CZoomHttpRequestHelper@@QAEPB_WXZ 00419ef0 f i LOGIN_sdk_login_UI.obj
 0001:00018f10       ?GetSDKUserPMI@CZoomHttpRequestHelper@@QAE?B_KXZ 00419f10 f i LOGIN_sdk_login_UI.obj
 0001:00018f30       ?GetSkinRes@CSDKLoginUIMgr@@UAEIXZ 00419f30 f i LOGIN_sdk_login_UI.obj
 0001:00018f40       ?HandleMessage@CSDKLoginUIMgr@@UAEJIIJ@Z 00419f40 f   LOGIN_sdk_login_UI.obj
 0001:00019140       ?Hide@CSDKRecordingSettingsUIGroup@@QAEXXZ 0041a140 f   settings_ui.obj
 0001:00019140       ?Hide@CSDKLoginWithEmailUIGroup@@QAEXXZ 0041a140 f   LOGIN_sdk_login_UI.obj
 0001:00019140       ?Hide@CSDKGeneralSettingsUIGroup@@QAEXXZ 0041a140 f   settings_ui.obj
 0001:00019140       ?Hide@CSDKRestAPIUserUIGroup@@QAEXXZ 0041a140 f   LOGIN_sdk_login_UI.obj
 0001:00019140       ?Hide@CAuthSDKUIGroup@@QAEXXZ 0041a140 f   sdk_init_auth_ui.obj
 0001:00019140       ?Hide@CSDKLoginWithSSOUIGroup@@QAEXXZ 0041a140 f   LOGIN_sdk_login_UI.obj
 0001:00019140       ?Hide@CInitSDKUIGroup@@QAEXXZ 0041a140 f   sdk_init_auth_ui.obj
 0001:00019140       ?Hide@CSDKWithoutLoginStartJoinMeetingUIGroup@@QAEXXZ 0041a140 f   LOGIN_sdk_login_UI.obj
 0001:00019170       ?InitWindow@CSDKLoginUIMgr@@UAEXXZ 0041a170 f   LOGIN_sdk_login_UI.obj
 0001:00019460       ?InitWindow@CSDKLoginWithEmailUIGroup@@QAEXAAVCPaintManagerUI@DuiLib@@PAVCSDKLoginUIMgr@@@Z 0041a460 f   LOGIN_sdk_login_UI.obj
 0001:00019500       ?InitWindow@CSDKLoginWithSSOUIGroup@@QAEXAAVCPaintManagerUI@DuiLib@@PAVCSDKLoginUIMgr@@@Z 0041a500 f   LOGIN_sdk_login_UI.obj
 0001:00019580       ?InitWindow@CSDKRestAPIUserUIGroup@@QAEXAAVCPaintManagerUI@DuiLib@@PAVCSDKLoginUIMgr@@@Z 0041a580 f   LOGIN_sdk_login_UI.obj
 0001:00019660       ?InitWindow@CSDKWithoutLoginStartJoinMeetingUIGroup@@QAEXAAVCPaintManagerUI@DuiLib@@PAVCSDKLoginUIMgr@@@Z 0041a660 f   LOGIN_sdk_login_UI.obj
 0001:00019700       ?LogOut@CSDKLoginUIMgr@@QAE_NXZ 0041a700 f   LOGIN_sdk_login_UI.obj
 0001:00019720       ?LogOut@CSDKLoginWithEmailUIGroup@@QAE_NXZ 0041a720 f   LOGIN_sdk_login_UI.obj
 0001:00019750       ?Notify@CSDKLoginUIMgr@@UAEXAAUtagTNotifyUI@DuiLib@@@Z 0041a750 f   LOGIN_sdk_login_UI.obj
 0001:00019900       ?Notify@CSDKLoginWithEmailUIGroup@@QAEXAAUtagTNotifyUI@DuiLib@@@Z 0041a900 f   LOGIN_sdk_login_UI.obj
 0001:00019960       ?Notify@CSDKLoginWithSSOUIGroup@@QAEXAAUtagTNotifyUI@DuiLib@@@Z 0041a960 f   LOGIN_sdk_login_UI.obj
 0001:000199c0       ?Notify@CSDKRestAPIUserUIGroup@@QAEXAAUtagTNotifyUI@DuiLib@@@Z 0041a9c0 f   LOGIN_sdk_login_UI.obj
 0001:00019a20       ?Notify@CSDKWithoutLoginStartJoinMeetingUIGroup@@QAEXAAUtagTNotifyUI@DuiLib@@@Z 0041aa20 f   LOGIN_sdk_login_UI.obj
 0001:00019a80       ?NotifyAuthDone@CSDKLoginUIMgr@@QAEXXZ 0041aa80 f   LOGIN_sdk_login_UI.obj
 0001:00019ad0       ?OnClose@CSDKLoginUIMgr@@QAEJIIJAAH@Z 0041aad0 f   LOGIN_sdk_login_UI.obj
 0001:00019b10       ?OnDestroy@CSDKLoginUIMgr@@QAEJIIJAAH@Z 0041ab10 f   LOGIN_sdk_login_UI.obj
 0001:00019b60       ?SetCurrentPage@CSDKLoginUIMgr@@QAEXPAVCVerticalLayoutUI@DuiLib@@@Z 0041ab60 f i LOGIN_sdk_login_UI.obj
 0001:00019b80       ?SetEvent@CSDKLoginUIMgr@@QAEXPAVCSDKDemoAppEvent@@@Z 0041ab80 f   LOGIN_sdk_login_UI.obj
 0001:00019ba0       ?SetUIEvent@CSDKLoginCBHandler@@QAEXPAVCSDKLoginUIMgr@@@Z 0041aba0 f   LOGIN_sdk_login_UI.obj
 0001:00019bf0       ?Show@CSDKLoginWithEmailUIGroup@@QAEXXZ 0041abf0 f   LOGIN_sdk_login_UI.obj
 0001:00019c80       ?Show@CSDKLoginWithSSOUIGroup@@QAEXXZ 0041ac80 f   LOGIN_sdk_login_UI.obj
 0001:00019d10       ?Show@CSDKRestAPIUserUIGroup@@QAEXXZ 0041ad10 f   LOGIN_sdk_login_UI.obj
 0001:00019da0       ?Show@CSDKWithoutLoginStartJoinMeetingUIGroup@@QAEXXZ 0041ada0 f   LOGIN_sdk_login_UI.obj
 0001:00019e30       ?ShowErrorMessage@CSDKLoginUIMgr@@QAEXPB_W@Z 0041ae30 f   LOGIN_sdk_login_UI.obj
 0001:00019e60       ?SwitchToPage@CSDKLoginUIMgr@@QAEXW4loginTabPage@@@Z 0041ae60 f   LOGIN_sdk_login_UI.obj
 0001:00019f10       ?SwitchToWaitingPage@CSDKLoginUIMgr@@QAEXPB_W_N@Z 0041af10 f   LOGIN_sdk_login_UI.obj
 0001:0001a040       ?UninitWindow@CSDKLoginWithSSOUIGroup@@QAEXXZ 0041b040 f   LOGIN_sdk_login_UI.obj
 0001:0001a060       ?UninitWindow@CSDKRestAPIUserUIGroup@@QAEXXZ 0041b060 f   LOGIN_sdk_login_UI.obj
 0001:0001a090       ?UninitWindow@CSDKWithoutLoginStartJoinMeetingUIGroup@@QAEXXZ 0041b090 f   LOGIN_sdk_login_UI.obj
 0001:0001a0c0       ?onLoginRet@CSDKLoginCBHandler@@UAEXW4LOGINSTATUS@ZOOMSDK@@PAVIAccountInfo@3@@Z 0041b0c0 f   LOGIN_sdk_login_UI.obj
 0001:0001a1e0       ?onMeetingStatusChanged@CSDKRestAPIUserUIGroup@@UAEXW4MeetingStatus@ZOOMSDK@@H@Z 0041b1e0 f   LOGIN_sdk_login_UI.obj
 0001:0001a2e0       ?onMeetingStatusChanged@CSDKWithoutLoginStartJoinMeetingUIGroup@@UAEXW4MeetingStatus@ZOOMSDK@@H@Z 0041b2e0 f   LOGIN_sdk_login_UI.obj
 0001:0001a3f0       ??0CSDKMessInfo@@AAE@XZ    0041b3f0 f   mess_info.obj
 0001:0001a470       ??1CSDKMessInfo@@AAE@XZ    0041b470 f   mess_info.obj
 0001:0001a4e0       ?Cleanup@CSDKMessInfo@@QAEXXZ 0041b4e0 f   mess_info.obj
 0001:0001a520       ?GetErrorCode@CSDKMessInfo@@QAEHXZ 0041b520 f   mess_info.obj
 0001:0001a560       ?GetErrorDescription@CSDKMessInfo@@QAEPB_WXZ 0041b560 f   mess_info.obj
 0001:0001a5b0       ?GetErrorMessInfo@CSDKMessInfo@@QAEPA_WXZ 0041b5b0 f   mess_info.obj
 0001:0001a620       ?GetErrorType@CSDKMessInfo@@QAEPB_WXZ 0041b620 f   mess_info.obj
 0001:0001a6e0       ?GetInst@CSDKMessInfo@@SAAAV1@XZ 0041b6e0 f   mess_info.obj
 0001:0001a780       ?Init@CSDKMessInfo@@QAE_NXZ 0041b780 f   mess_info.obj
 0001:0001a7f0       ??0CMoreFeaturesUIMgr@@QAE@HHPAVCCustomizeInMeetingUIMgr@@@Z 0041b7f0 f   more_features_ui.obj
 0001:0001a900       ??1CMoreFeaturesUIMgr@@QAE@XZ 0041b900 f   more_features_ui.obj
 0001:0001a9d0       ?AddElement@CMoreFeaturesUIMgr@@QAE_NPB_W@Z 0041b9d0 f   more_features_ui.obj
 0001:0001ab20       ?DestroyUtilWindow@CMoreFeaturesUIMgr@@AAEXXZ 0041bb20 f   more_features_ui.obj
 0001:0001ab80       ?DoClickLowerAllHandsBtn@CMoreFeaturesUIMgr@@AAEXXZ 0041bb80 f   more_features_ui.obj
 0001:0001abc0       ?DoClickMuteAllBtn@CMoreFeaturesUIMgr@@AAEXXZ 0041bbc0 f   more_features_ui.obj
 0001:0001ac20       ?DoClickMuteOnEntry@CMoreFeaturesUIMgr@@AAEX_N@Z 0041bc20 f   more_features_ui.obj
 0001:0001ac60       ?DoClickRaiseHandBtn@CMoreFeaturesUIMgr@@AAEXXZ 0041bc60 f   more_features_ui.obj
 0001:0001aca0       ?DoClickUnmuteAllBtn@CMoreFeaturesUIMgr@@AAEXXZ 0041bca0 f   more_features_ui.obj
 0001:0001ad00       ?DoUtilWindowShow@CMoreFeaturesUIMgr@@AAEXPB_WW4FEATURE_TYPE@@@Z 0041bd00 f   more_features_ui.obj
 0001:0001ae40       ?GetSkinRes@CMoreMenuUIMgr@@UAEIXZ 0041be40 f i more_menu_ui.obj
 0001:0001ae40       ?GetSkinRes@CMoreFeaturesUIMgr@@UAEIXZ 0041be40 f i more_features_ui.obj
 0001:0001ae50       ?HandleMessage@CMoreFeaturesUIMgr@@UAEJIIJ@Z 0041be50 f   more_features_ui.obj
 0001:0001b040       ?InitWindow@CMoreFeaturesUIMgr@@UAEXXZ 0041c040 f   more_features_ui.obj
 0001:0001b090       ?Notify@CMoreFeaturesUIMgr@@UAEXAAUtagTNotifyUI@DuiLib@@@Z 0041c090 f   more_features_ui.obj
 0001:0001b410       ?RepaintClient@CMoreFeaturesUIMgr@@QAE_NHH@Z 0041c410 f   more_features_ui.obj
 0001:0001b4f0       ?ShowErrorMsg@CMoreFeaturesUIMgr@@AAEXPB_W@Z 0041c4f0 f   more_features_ui.obj
 0001:0001b510       ?UpdateUI@CMoreFeaturesUIMgr@@AAEXXZ 0041c510 f   more_features_ui.obj
 0001:0001b650       ?onCoHostChangeNotification@CMoreFeaturesUIMgr@@UAEXI_N@Z 0041c650 f   more_features_ui.obj
 0001:0001b730       ?onHostChangeNotification@CMoreFeaturesUIMgr@@UAEXI@Z 0041c730 f   more_features_ui.obj
 0001:0001b810       ?onUserNameChanged@CMoreFeaturesUIMgr@@UAEXIPB_W@Z 0041c810 f   more_features_ui.obj
 0001:0001b810       ?onLowOrRaiseHandStatusChanged@CMoreFeaturesUIMgr@@UAEX_NI@Z 0041c810 f   more_features_ui.obj
 0001:0001b840       ?AssignCoHost@CMoreFeaturesWorkflow@@QAE?AW4SDKError@ZOOMSDK@@I@Z 0041c840 f   more_features_workflow.obj
 0001:0001b8a0       ?ChangeUserName@CMoreFeaturesWorkflow@@QAE?AW4SDKError@ZOOMSDK@@IPB_W_N@Z 0041c8a0 f   more_features_workflow.obj
 0001:0001b8e0       ?EnableMuteOnEntry@CMoreFeaturesWorkflow@@QAE?AW4SDKError@ZOOMSDK@@_N@Z 0041c8e0 f   more_features_workflow.obj
 0001:0001b920       ?ExpelUser@CMoreFeaturesWorkflow@@QAE?AW4SDKError@ZOOMSDK@@I@Z 0041c920 f   more_features_workflow.obj
 0001:0001b950       ?LowerAllHands@CMoreFeaturesWorkflow@@QAE?AW4SDKError@ZOOMSDK@@XZ 0041c950 f   more_features_workflow.obj
 0001:0001b980       ?LowerHand@CMoreFeaturesWorkflow@@QAE?AW4SDKError@ZOOMSDK@@I@Z 0041c980 f   more_features_workflow.obj
 0001:0001b9b0       ?MakeHost@CMoreFeaturesWorkflow@@QAE?AW4SDKError@ZOOMSDK@@I@Z 0041c9b0 f   more_features_workflow.obj
 0001:0001b9e0       ?MuteAll@CMoreFeaturesWorkflow@@QAE_NPAVCSDKUserList@@@Z 0041c9e0 f   more_features_workflow.obj
 0001:0001ba30       ?MuteAudio@CMoreFeaturesWorkflow@@QAE?AW4SDKError@ZOOMSDK@@I_N@Z 0041ca30 f   more_features_workflow.obj
 0001:0001ba80       ?PinVideo@CMoreFeaturesWorkflow@@QAE?AW4SDKError@ZOOMSDK@@_N0I@Z 0041ca80 f   more_features_workflow.obj
 0001:0001bac0       ?RaiseHand@CMoreFeaturesWorkflow@@QAE?AW4SDKError@ZOOMSDK@@XZ 0041cac0 f   more_features_workflow.obj
 0001:0001baf0       ?ReclaimHost@CMoreFeaturesWorkflow@@QAE?AW4SDKError@ZOOMSDK@@XZ 0041caf0 f   more_features_workflow.obj
 0001:0001bb60       ?RevokeCoHost@CMoreFeaturesWorkflow@@QAE?AW4SDKError@ZOOMSDK@@I@Z 0041cb60 f   more_features_workflow.obj
 0001:0001bb90       ?SpotlightVideo@CMoreFeaturesWorkflow@@QAE?AW4SDKError@ZOOMSDK@@_NI@Z 0041cb90 f   more_features_workflow.obj
 0001:0001bbd0       ?StartAttendeeVideo@CMoreFeaturesWorkflow@@QAE?AW4SDKError@ZOOMSDK@@I@Z 0041cbd0 f   more_features_workflow.obj
 0001:0001bc30       ?StopAttendeeVideo@CMoreFeaturesWorkflow@@QAE?AW4SDKError@ZOOMSDK@@I@Z 0041cc30 f   more_features_workflow.obj
 0001:0001bc90       ?UnMuteAll@CMoreFeaturesWorkflow@@QAE_NPAVCSDKUserList@@@Z 0041cc90 f   more_features_workflow.obj
 0001:0001bce0       ?UnMuteAudio@CMoreFeaturesWorkflow@@QAE?AW4SDKError@ZOOMSDK@@I@Z 0041cce0 f   more_features_workflow.obj
 0001:0001bd20       ??0CMoreMenuUIMgr@@QAE@HHPAVCCustomizeInMeetingUIMgr@@@Z 0041cd20 f   more_menu_ui.obj
 0001:0001bde0       ??1CMoreMenuUIMgr@@QAE@XZ  0041cde0 f   more_menu_ui.obj
 0001:0001be80       ??_GCInvitationUIMgr@@QAEPAXI@Z 0041ce80 f i more_menu_ui.obj
 0001:0001bec0       ??_GCMoreFeaturesUIMgr@@QAEPAXI@Z 0041cec0 f i more_menu_ui.obj
 0001:0001bf00       ?AddElement@CMoreMenuUIMgr@@QAE_NPB_W@Z 0041cf00 f   more_menu_ui.obj
 0001:0001c050       ?DestroyClosedCaptionWnd@CMoreMenuUIMgr@@AAEXXZ 0041d050 f   more_menu_ui.obj
 0001:0001c0e0       ?DestroyInvitationWnd@CMoreMenuUIMgr@@AAEXXZ 0041d0e0 f   more_menu_ui.obj
 0001:0001c170       ?DestroyMoreFeaturesWnd@CMoreMenuUIMgr@@AAEXXZ 0041d170 f   more_menu_ui.obj
 0001:0001c200       ?DoClickClosedCaptionBtn@CMoreMenuUIMgr@@AAEXXZ 0041d200 f   more_menu_ui.obj
 0001:0001c3e0       ?DoClickInviteBtn@CMoreMenuUIMgr@@AAEXXZ 0041d3e0 f   more_menu_ui.obj
 0001:0001c4e0       ?DoClickMoreFeaturesBtn@CMoreMenuUIMgr@@AAEXXZ 0041d4e0 f   more_menu_ui.obj
 0001:0001c6a0       ?HandleMessage@CMoreMenuUIMgr@@UAEJIIJ@Z 0041d6a0 f   more_menu_ui.obj
 0001:0001c8c0       ?HandleMoveAndResize@CMoreMenuUIMgr@@QAEXXZ 0041d8c0 f   more_menu_ui.obj
 0001:0001c8f0       ?HandleUserChange@CMoreMenuUIMgr@@QAEXXZ 0041d8f0 f   more_menu_ui.obj
 0001:0001c920       ?InitWindow@CMoreMenuUIMgr@@UAEXXZ 0041d920 f   more_menu_ui.obj
 0001:0001ca80       ?Notify@CMoreMenuUIMgr@@UAEXAAUtagTNotifyUI@DuiLib@@@Z 0041da80 f   more_menu_ui.obj
 0001:0001cd90       ?RepaintClient@CMoreMenuUIMgr@@QAE_NHH@Z 0041dd90 f   more_menu_ui.obj
 0001:0001ceb0       ??0ParticipantPopMenu@@QAE@XZ 0041deb0 f   ParticipantPopMenu.obj
 0001:0001cef0       ??1ParticipantPopMenu@@QAE@XZ 0041def0 f   ParticipantPopMenu.obj
 0001:0001cf20       ?OnClickMenuItem@ParticipantPopMenu@@QAEXH@Z 0041df20 f   ParticipantPopMenu.obj
 0001:0001cfb0       ?PopMenu@ParticipantPopMenu@@QAEXPAUHWND__@@ABUtagPOINT@@@Z 0041dfb0 f   ParticipantPopMenu.obj
 0001:0001cfe0       ?PopMenu@ParticipantPopMenu@@QAEXPAUHWND__@@HH@Z 0041dfe0 f   ParticipantPopMenu.obj
 0001:0001d020       ?SetUserID@ParticipantPopMenu@@QAEXI@Z 0041e020 f   ParticipantPopMenu.obj
 0001:0001d090       ??$?0$$V@?$_Compressed_pair@V?$allocator@U?$_Tree_node@PAVIAuthServiceEvent@ZOOMSDK@@PAX@std@@@std@@V?$_Tree_val@U?$_Tree_simple_types@PAVIAuthServiceEvent@ZOOMSDK@@@std@@@2@$00@std@@QAE@U_Zero_then_variadic_args_t@1@@Z 0041e090 f i sdk_util.obj
 0001:0001d090       ??$?0$$V@?$_Compressed_pair@V?$allocator@U?$_Tree_node@PAVIMeetingParticipantsCtrlEvent@ZOOMSDK@@PAX@std@@@std@@V?$_Tree_val@U?$_Tree_simple_types@PAVIMeetingParticipantsCtrlEvent@ZOOMSDK@@@std@@@2@$00@std@@QAE@U_Zero_then_variadic_args_t@1@@Z 0041e090 f i sdk_util.obj
 0001:0001d090       ??$?0$$V@?$_Compressed_pair@V?$allocator@U?$_Tree_node@PAVIMeetingServiceEvent@ZOOMSDK@@PAX@std@@@std@@V?$_Tree_val@U?$_Tree_simple_types@PAVIMeetingServiceEvent@ZOOMSDK@@@std@@@2@$00@std@@QAE@U_Zero_then_variadic_args_t@1@@Z 0041e090 f i sdk_util.obj
 0001:0001d090       ??$?0$$V@?$_Compressed_pair@V?$allocator@U?$_Tree_node@PAVIMeetingVideoCtrlEvent@ZOOMSDK@@PAX@std@@@std@@V?$_Tree_val@U?$_Tree_simple_types@PAVIMeetingVideoCtrlEvent@ZOOMSDK@@@std@@@2@$00@std@@QAE@U_Zero_then_variadic_args_t@1@@Z 0041e090 f i sdk_util.obj
 0001:0001d090       ??$?0$$V@?$_Compressed_pair@V?$allocator@U?$_Tree_node@PAVISDKInMeetingServiceMgrEvent@@PAX@std@@@std@@V?$_Tree_val@U?$_Tree_simple_types@PAVISDKInMeetingServiceMgrEvent@@@std@@@2@$00@std@@QAE@U_Zero_then_variadic_args_t@1@@Z 0041e090 f i sdk_util.obj
 0001:0001d090       ??$?0$$V@?$_Compressed_pair@V?$allocator@U?$_Tree_node@PAVIClosedCaptionControllerEvent@ZOOMSDK@@PAX@std@@@std@@V?$_Tree_val@U?$_Tree_simple_types@PAVIClosedCaptionControllerEvent@ZOOMSDK@@@std@@@2@$00@std@@QAE@U_Zero_then_variadic_args_t@1@@Z 0041e090 f i sdk_util.obj
 0001:0001d090       ??$?0$$V@?$_Compressed_pair@V?$allocator@U?$_Tree_node@PAVIMeetingChatCtrlEvent@ZOOMSDK@@PAX@std@@@std@@V?$_Tree_val@U?$_Tree_simple_types@PAVIMeetingChatCtrlEvent@ZOOMSDK@@@std@@@2@$00@std@@QAE@U_Zero_then_variadic_args_t@1@@Z 0041e090 f i sdk_util.obj
 0001:0001d090       ??$?0$$V@?$_Compressed_pair@V?$allocator@U?$_List_node@HPAX@std@@@std@@V?$_List_val@U?$_List_simple_types@H@std@@@2@$00@std@@QAE@U_Zero_then_variadic_args_t@1@@Z 0041e090 f i participant_ui.obj
 0001:0001d090       ??$?0$$V@?$_Compressed_pair@V?$allocator@U?$_Tree_node@PAVIPreMeetingServiceEvent@ZOOMSDK@@PAX@std@@@std@@V?$_Tree_val@U?$_Tree_simple_types@PAVIPreMeetingServiceEvent@ZOOMSDK@@@std@@@2@$00@std@@QAE@U_Zero_then_variadic_args_t@1@@Z 0041e090 f i sdk_util.obj
 0001:0001d090       ??$?0$$V@?$_Compressed_pair@V?$allocator@U?$_Tree_node@U?$pair@$$CBIPAVIUserInfo@ZOOMSDK@@@std@@PAX@std@@@std@@V?$_Tree_val@U?$_Tree_simple_types@U?$pair@$$CBIPAVIUserInfo@ZOOMSDK@@@std@@@std@@@2@$00@std@@QAE@U_Zero_then_variadic_args_t@1@@Z 0041e090 f i user_manager.obj
 0001:0001d0b0       ??$MakeDelegate@VCPUserItemEx@@V1@@DuiLib@@YA?AV?$CDelegate@VCPUserItemEx@@V1@@0@PAVCPUserItemEx@@P82@AE_NPAX@Z@Z 0041e0b0 f i participant_ui.obj
 0001:0001d0e0       ??$_Free_non_head@V?$allocator@U?$_List_node@HPAX@std@@@std@@@?$_List_node@HPAX@std@@SAXAAV?$allocator@U?$_List_node@HPAX@std@@@1@PAU01@@Z 0041e0e0 f i participant_ui.obj
 0001:0001d130       ??$_Freenode0@V?$allocator@U?$_List_node@HPAX@std@@@std@@@?$_List_node@HPAX@std@@SAXAAV?$allocator@U?$_List_node@HPAX@std@@@1@PAU01@@Z 0041e130 f i participant_ui.obj
 0001:0001d1b0       ??$_Freenode@V?$allocator@U?$_List_node@HPAX@std@@@std@@@?$_List_node@HPAX@std@@SAXAAV?$allocator@U?$_List_node@HPAX@std@@@1@PAU01@@Z 0041e1b0 f i participant_ui.obj
 0001:0001d210       ??$_Get_size_of_n@$0M@@std@@YAII@Z 0041e210 f i participant_ui.obj
 0001:0001d240       ??$_Insert@ABH@?$list@HV?$allocator@H@std@@@std@@QAEXV?$_List_unchecked_const_iterator@V?$_List_val@U?$_List_simple_types@H@std@@@std@@U_Iterator_base0@2@@1@ABH@Z 0041e240 f i participant_ui.obj
 0001:0001d370       ??$exchange@PAU?$_Tree_node@PAVIPreMeetingServiceEvent@ZOOMSDK@@PAX@std@@$$T@std@@YAPAU?$_Tree_node@PAVIPreMeetingServiceEvent@ZOOMSDK@@PAX@0@AAPAU10@$$QA$$T@Z 0041e370 f i sdk_util.obj
 0001:0001d370       ??$exchange@PAU?$_Tree_node@PAVIMeetingVideoCtrlEvent@ZOOMSDK@@PAX@std@@$$T@std@@YAPAU?$_Tree_node@PAVIMeetingVideoCtrlEvent@ZOOMSDK@@PAX@0@AAPAU10@$$QA$$T@Z 0041e370 f i sdk_util.obj
 0001:0001d370       ??$exchange@PAU?$_Tree_node@U?$pair@$$CBIPAVIUserInfo@ZOOMSDK@@@std@@PAX@std@@$$T@std@@YAPAU?$_Tree_node@U?$pair@$$CBIPAVIUserInfo@ZOOMSDK@@@std@@PAX@0@AAPAU10@$$QA$$T@Z 0041e370 f i user_manager.obj
 0001:0001d370       ??$exchange@PAU?$_Tree_node@PAVIClosedCaptionControllerEvent@ZOOMSDK@@PAX@std@@$$T@std@@YAPAU?$_Tree_node@PAVIClosedCaptionControllerEvent@ZOOMSDK@@PAX@0@AAPAU10@$$QA$$T@Z 0041e370 f i sdk_util.obj
 0001:0001d370       ??$exchange@PAU?$_Tree_node@PAVIPreMeetingServiceEvent@ZOOMSDK@@PAX@std@@AAPAU12@@std@@YAPAU?$_Tree_node@PAVIPreMeetingServiceEvent@ZOOMSDK@@PAX@0@AAPAU10@0@Z 0041e370 f i sdk_util.obj
 0001:0001d370       ??$exchange@PAU?$_List_node@HPAX@std@@$$T@std@@YAPAU?$_List_node@HPAX@0@AAPAU10@$$QA$$T@Z 0041e370 f i participant_ui.obj
 0001:0001d370       ??$exchange@PAU?$_Tree_node@PAVIMeetingServiceEvent@ZOOMSDK@@PAX@std@@$$T@std@@YAPAU?$_Tree_node@PAVIMeetingServiceEvent@ZOOMSDK@@PAX@0@AAPAU10@$$QA$$T@Z 0041e370 f i sdk_util.obj
 0001:0001d370       ??$exchange@PAU?$_Tree_node@PAVISDKInMeetingServiceMgrEvent@@PAX@std@@$$T@std@@YAPAU?$_Tree_node@PAVISDKInMeetingServiceMgrEvent@@PAX@0@AAPAU10@$$QA$$T@Z 0041e370 f i sdk_util.obj
 0001:0001d370       ??$exchange@PAU?$_Tree_node@PAVIMeetingServiceEvent@ZOOMSDK@@PAX@std@@AAPAU12@@std@@YAPAU?$_Tree_node@PAVIMeetingServiceEvent@ZOOMSDK@@PAX@0@AAPAU10@0@Z 0041e370 f i sdk_util.obj
 0001:0001d370       ??$exchange@PAU?$_Tree_node@PAVIClosedCaptionControllerEvent@ZOOMSDK@@PAX@std@@AAPAU12@@std@@YAPAU?$_Tree_node@PAVIClosedCaptionControllerEvent@ZOOMSDK@@PAX@0@AAPAU10@0@Z 0041e370 f i sdk_util.obj
 0001:0001d370       ??$exchange@PAU?$_Tree_node@U?$pair@$$CBIPAVIUserInfo@ZOOMSDK@@@std@@PAX@std@@AAPAU12@@std@@YAPAU?$_Tree_node@U?$pair@$$CBIPAVIUserInfo@ZOOMSDK@@@std@@PAX@0@AAPAU10@0@Z 0041e370 f i user_manager.obj
 0001:0001d370       ??$exchange@PAU?$_Tree_node@PAVIMeetingParticipantsCtrlEvent@ZOOMSDK@@PAX@std@@AAPAU12@@std@@YAPAU?$_Tree_node@PAVIMeetingParticipantsCtrlEvent@ZOOMSDK@@PAX@0@AAPAU10@0@Z 0041e370 f i sdk_util.obj
 0001:0001d370       ??$exchange@PAU?$_Tree_node@PAVIAuthServiceEvent@ZOOMSDK@@PAX@std@@AAPAU12@@std@@YAPAU?$_Tree_node@PAVIAuthServiceEvent@ZOOMSDK@@PAX@0@AAPAU10@0@Z 0041e370 f i sdk_util.obj
 0001:0001d370       ??$exchange@PAU?$_Tree_node@PAVISDKInMeetingServiceMgrEvent@@PAX@std@@AAPAU12@@std@@YAPAU?$_Tree_node@PAVISDKInMeetingServiceMgrEvent@@PAX@0@AAPAU10@0@Z 0041e370 f i sdk_util.obj
 0001:0001d370       ??$exchange@PAU?$_Tree_node@PAVIMeetingChatCtrlEvent@ZOOMSDK@@PAX@std@@$$T@std@@YAPAU?$_Tree_node@PAVIMeetingChatCtrlEvent@ZOOMSDK@@PAX@0@AAPAU10@$$QA$$T@Z 0041e370 f i sdk_util.obj
 0001:0001d370       ??$exchange@PAU?$_Tree_node@PAVIMeetingVideoCtrlEvent@ZOOMSDK@@PAX@std@@AAPAU12@@std@@YAPAU?$_Tree_node@PAVIMeetingVideoCtrlEvent@ZOOMSDK@@PAX@0@AAPAU10@0@Z 0041e370 f i sdk_util.obj
 0001:0001d370       ??$exchange@PAU?$_Tree_node@PAVIMeetingParticipantsCtrlEvent@ZOOMSDK@@PAX@std@@$$T@std@@YAPAU?$_Tree_node@PAVIMeetingParticipantsCtrlEvent@ZOOMSDK@@PAX@0@AAPAU10@$$QA$$T@Z 0041e370 f i sdk_util.obj
 0001:0001d370       ??$exchange@PAU?$_Tree_node@PAVIAuthServiceEvent@ZOOMSDK@@PAX@std@@$$T@std@@YAPAU?$_Tree_node@PAVIAuthServiceEvent@ZOOMSDK@@PAX@0@AAPAU10@$$QA$$T@Z 0041e370 f i sdk_util.obj
 0001:0001d370       ??$exchange@PAU?$_Tree_node@PAVIMeetingChatCtrlEvent@ZOOMSDK@@PAX@std@@AAPAU12@@std@@YAPAU?$_Tree_node@PAVIMeetingChatCtrlEvent@ZOOMSDK@@PAX@0@AAPAU10@0@Z 0041e370 f i sdk_util.obj
 0001:0001d390       ??0?$CDelegate@VCPUserItemEx@@V1@@DuiLib@@QAE@ABV01@@Z 0041e390 f i participant_ui.obj
 0001:0001d3c0       ??0?$CDelegate@VCPUserItemEx@@V1@@DuiLib@@QAE@PAVCPUserItemEx@@P82@AE_NPAX@Z@Z 0041e3c0 f i participant_ui.obj
 0001:0001d3f0       ??0?$_Alloc_construct_ptr@V?$allocator@U?$_Tree_node@PAVIAuthServiceEvent@ZOOMSDK@@PAX@std@@@std@@@std@@QAE@AAV?$allocator@U?$_Tree_node@PAVIAuthServiceEvent@ZOOMSDK@@PAX@std@@@1@@Z 0041e3f0 f i sdk_util.obj
 0001:0001d3f0       ??0?$_Alloc_construct_ptr@V?$allocator@U?$_Tree_node@PAVIMeetingParticipantsCtrlEvent@ZOOMSDK@@PAX@std@@@std@@@std@@QAE@AAV?$allocator@U?$_Tree_node@PAVIMeetingParticipantsCtrlEvent@ZOOMSDK@@PAX@std@@@1@@Z 0041e3f0 f i sdk_util.obj
 0001:0001d3f0       ??0?$_Alloc_construct_ptr@V?$allocator@U?$_Tree_node@U?$pair@$$CBIPAVIUserInfo@ZOOMSDK@@@std@@PAX@std@@@std@@@std@@QAE@AAV?$allocator@U?$_Tree_node@U?$pair@$$CBIPAVIUserInfo@ZOOMSDK@@@std@@PAX@std@@@1@@Z 0041e3f0 f i user_manager.obj
 0001:0001d3f0       ??0?$_Alloc_construct_ptr@V?$allocator@U?$_List_node@HPAX@std@@@std@@@std@@QAE@AAV?$allocator@U?$_List_node@HPAX@std@@@1@@Z 0041e3f0 f i participant_ui.obj
 0001:0001d3f0       ??0?$_Alloc_construct_ptr@V?$allocator@U?$_Tree_node@PAVIClosedCaptionControllerEvent@ZOOMSDK@@PAX@std@@@std@@@std@@QAE@AAV?$allocator@U?$_Tree_node@PAVIClosedCaptionControllerEvent@ZOOMSDK@@PAX@std@@@1@@Z 0041e3f0 f i sdk_util.obj
 0001:0001d3f0       ??0?$_Alloc_construct_ptr@V?$allocator@U?$_Tree_node@PAVISDKInMeetingServiceMgrEvent@@PAX@std@@@std@@@std@@QAE@AAV?$allocator@U?$_Tree_node@PAVISDKInMeetingServiceMgrEvent@@PAX@std@@@1@@Z 0041e3f0 f i sdk_util.obj
 0001:0001d3f0       ??0?$_Alloc_construct_ptr@V?$allocator@U?$_Tree_node@PAVIPreMeetingServiceEvent@ZOOMSDK@@PAX@std@@@std@@@std@@QAE@AAV?$allocator@U?$_Tree_node@PAVIPreMeetingServiceEvent@ZOOMSDK@@PAX@std@@@1@@Z 0041e3f0 f i sdk_util.obj
 0001:0001d3f0       ??0?$_Alloc_construct_ptr@V?$allocator@U?$_Tree_node@PAVIMeetingVideoCtrlEvent@ZOOMSDK@@PAX@std@@@std@@@std@@QAE@AAV?$allocator@U?$_Tree_node@PAVIMeetingVideoCtrlEvent@ZOOMSDK@@PAX@std@@@1@@Z 0041e3f0 f i sdk_util.obj
 0001:0001d3f0       ??0?$_Alloc_construct_ptr@V?$allocator@U?$_Tree_node@PAVIMeetingChatCtrlEvent@ZOOMSDK@@PAX@std@@@std@@@std@@QAE@AAV?$allocator@U?$_Tree_node@PAVIMeetingChatCtrlEvent@ZOOMSDK@@PAX@std@@@1@@Z 0041e3f0 f i sdk_util.obj
 0001:0001d3f0       ??0?$_Alloc_construct_ptr@V?$allocator@U?$_Tree_node@PAVIMeetingServiceEvent@ZOOMSDK@@PAX@std@@@std@@@std@@QAE@AAV?$allocator@U?$_Tree_node@PAVIMeetingServiceEvent@ZOOMSDK@@PAX@std@@@1@@Z 0041e3f0 f i sdk_util.obj
 0001:0001d420       ??0?$_Tree_const_iterator@V?$_Tree_val@U?$_Tree_simple_types@PAVIMeetingChatCtrlEvent@ZOOMSDK@@@std@@@std@@@std@@QAE@PAU?$_Tree_node@PAVIMeetingChatCtrlEvent@ZOOMSDK@@PAX@1@PBV?$_Tree_val@U?$_Tree_simple_types@PAVIMeetingChatCtrlEvent@ZOOMSDK@@@std@@@1@@Z 0041e420 f i sdk_util.obj
 0001:0001d420       ??0?$_Tree_const_iterator@V?$_Tree_val@U?$_Tree_simple_types@PAVIAuthServiceEvent@ZOOMSDK@@@std@@@std@@@std@@QAE@PAU?$_Tree_node@PAVIAuthServiceEvent@ZOOMSDK@@PAX@1@PBV?$_Tree_val@U?$_Tree_simple_types@PAVIAuthServiceEvent@ZOOMSDK@@@std@@@1@@Z 0041e420 f i sdk_util.obj
 0001:0001d420       ??0?$_Tree_const_iterator@V?$_Tree_val@U?$_Tree_simple_types@U?$pair@$$CBIPAVIUserInfo@ZOOMSDK@@@std@@@std@@@std@@@std@@QAE@PAU?$_Tree_node@U?$pair@$$CBIPAVIUserInfo@ZOOMSDK@@@std@@PAX@1@PBV?$_Tree_val@U?$_Tree_simple_types@U?$pair@$$CBIPAVIUserInfo@ZOOMSDK@@@std@@@std@@@1@@Z 0041e420 f i user_manager.obj
 0001:0001d420       ??0?$_Tree_const_iterator@V?$_Tree_val@U?$_Tree_simple_types@PAVIMeetingParticipantsCtrlEvent@ZOOMSDK@@@std@@@std@@@std@@QAE@PAU?$_Tree_node@PAVIMeetingParticipantsCtrlEvent@ZOOMSDK@@PAX@1@PBV?$_Tree_val@U?$_Tree_simple_types@PAVIMeetingParticipantsCtrlEvent@ZOOMSDK@@@std@@@1@@Z 0041e420 f i sdk_util.obj
 0001:0001d420       ??0?$_Tree_const_iterator@V?$_Tree_val@U?$_Tree_simple_types@PAVIMeetingServiceEvent@ZOOMSDK@@@std@@@std@@@std@@QAE@PAU?$_Tree_node@PAVIMeetingServiceEvent@ZOOMSDK@@PAX@1@PBV?$_Tree_val@U?$_Tree_simple_types@PAVIMeetingServiceEvent@ZOOMSDK@@@std@@@1@@Z 0041e420 f i sdk_util.obj
 0001:0001d420       ??0?$_List_const_iterator@V?$_List_val@U?$_List_simple_types@H@std@@@std@@@std@@QAE@PAU?$_List_node@HPAX@1@PBV?$_List_val@U?$_List_simple_types@H@std@@@1@@Z 0041e420 f i participant_ui.obj
 0001:0001d420       ??0?$_Tree_const_iterator@V?$_Tree_val@U?$_Tree_simple_types@PAVIMeetingVideoCtrlEvent@ZOOMSDK@@@std@@@std@@@std@@QAE@PAU?$_Tree_node@PAVIMeetingVideoCtrlEvent@ZOOMSDK@@PAX@1@PBV?$_Tree_val@U?$_Tree_simple_types@PAVIMeetingVideoCtrlEvent@ZOOMSDK@@@std@@@1@@Z 0041e420 f i sdk_util.obj
 0001:0001d420       ??0?$_Tree_const_iterator@V?$_Tree_val@U?$_Tree_simple_types@PAVIPreMeetingServiceEvent@ZOOMSDK@@@std@@@std@@@std@@QAE@PAU?$_Tree_node@PAVIPreMeetingServiceEvent@ZOOMSDK@@PAX@1@PBV?$_Tree_val@U?$_Tree_simple_types@PAVIPreMeetingServiceEvent@ZOOMSDK@@@std@@@1@@Z 0041e420 f i sdk_util.obj
 0001:0001d420       ??0?$_Tree_const_iterator@V?$_Tree_val@U?$_Tree_simple_types@PAVISDKInMeetingServiceMgrEvent@@@std@@@std@@@std@@QAE@PAU?$_Tree_node@PAVISDKInMeetingServiceMgrEvent@@PAX@1@PBV?$_Tree_val@U?$_Tree_simple_types@PAVISDKInMeetingServiceMgrEvent@@@std@@@1@@Z 0041e420 f i sdk_util.obj
 0001:0001d420       ??0?$_List_unchecked_iterator@V?$_List_val@U?$_List_simple_types@H@std@@@std@@@std@@QAE@PAU?$_List_node@HPAX@1@PBV?$_List_val@U?$_List_simple_types@H@std@@@1@@Z 0041e420 f i participant_ui.obj
 0001:0001d420       ??0?$_Tree_const_iterator@V?$_Tree_val@U?$_Tree_simple_types@PAVIClosedCaptionControllerEvent@ZOOMSDK@@@std@@@std@@@std@@QAE@PAU?$_Tree_node@PAVIClosedCaptionControllerEvent@ZOOMSDK@@PAX@1@PBV?$_Tree_val@U?$_Tree_simple_types@PAVIClosedCaptionControllerEvent@ZOOMSDK@@@std@@@1@@Z 0041e420 f i sdk_util.obj
 0001:0001d420       ??0?$_Vector_iterator@V?$_Vector_val@U?$_Simple_types@PAVIUserInfo@ZOOMSDK@@@std@@@std@@@std@@QAE@PAPAVIUserInfo@ZOOMSDK@@PBU_Container_base0@1@@Z 0041e420 f i user_manager.obj
 0001:0001d440       ??0?$_List_iterator@V?$_List_val@U?$_List_simple_types@H@std@@@std@@@std@@QAE@PAU?$_List_node@HPAX@1@PBV?$_List_val@U?$_List_simple_types@H@std@@@1@@Z 0041e440 f i participant_ui.obj
 0001:0001d440       ??0?$_Tree_iterator@V?$_Tree_val@U?$_Tree_simple_types@U?$pair@$$CBIPAVIUserInfo@ZOOMSDK@@@std@@@std@@@std@@@std@@QAE@PAU?$_Tree_node@U?$pair@$$CBIPAVIUserInfo@ZOOMSDK@@@std@@PAX@1@PBV?$_Tree_val@U?$_Tree_simple_types@U?$pair@$$CBIPAVIUserInfo@ZOOMSDK@@@std@@@std@@@1@@Z 0041e440 f i user_manager.obj
 0001:0001d460       ??0?$_Tree_unchecked_const_iterator@V?$_Tree_val@U?$_Tree_simple_types@PAVIMeetingVideoCtrlEvent@ZOOMSDK@@@std@@@std@@U_Iterator_base0@2@@std@@QAE@PAU?$_Tree_node@PAVIMeetingVideoCtrlEvent@ZOOMSDK@@PAX@1@PBV?$_Tree_val@U?$_Tree_simple_types@PAVIMeetingVideoCtrlEvent@ZOOMSDK@@@std@@@1@@Z 0041e460 f i sdk_util.obj
 0001:0001d460       ??0?$_Vector_const_iterator@V?$_Vector_val@U?$_Simple_types@PAVIUserInfo@ZOOMSDK@@@std@@@std@@@std@@QAE@PAPAVIUserInfo@ZOOMSDK@@PBU_Container_base0@1@@Z 0041e460 f i user_manager.obj
 0001:0001d460       ??0?$_List_unchecked_const_iterator@V?$_List_val@U?$_List_simple_types@H@std@@@std@@U_Iterator_base0@2@@std@@QAE@PAU?$_List_node@HPAX@1@PBV?$_List_val@U?$_List_simple_types@H@std@@@1@@Z 0041e460 f i participant_ui.obj
 0001:0001d460       ??0?$_Tree_unchecked_const_iterator@V?$_Tree_val@U?$_Tree_simple_types@PAVIMeetingServiceEvent@ZOOMSDK@@@std@@@std@@U_Iterator_base0@2@@std@@QAE@PAU?$_Tree_node@PAVIMeetingServiceEvent@ZOOMSDK@@PAX@1@PBV?$_Tree_val@U?$_Tree_simple_types@PAVIMeetingServiceEvent@ZOOMSDK@@@std@@@1@@Z 0041e460 f i sdk_util.obj
 0001:0001d460       ??0?$_Tree_unchecked_const_iterator@V?$_Tree_val@U?$_Tree_simple_types@PAVIAuthServiceEvent@ZOOMSDK@@@std@@@std@@U_Iterator_base0@2@@std@@QAE@PAU?$_Tree_node@PAVIAuthServiceEvent@ZOOMSDK@@PAX@1@PBV?$_Tree_val@U?$_Tree_simple_types@PAVIAuthServiceEvent@ZOOMSDK@@@std@@@1@@Z 0041e460 f i sdk_util.obj
 0001:0001d460       ??0?$_Tree_unchecked_const_iterator@V?$_Tree_val@U?$_Tree_simple_types@PAVIPreMeetingServiceEvent@ZOOMSDK@@@std@@@std@@U_Iterator_base0@2@@std@@QAE@PAU?$_Tree_node@PAVIPreMeetingServiceEvent@ZOOMSDK@@PAX@1@PBV?$_Tree_val@U?$_Tree_simple_types@PAVIPreMeetingServiceEvent@ZOOMSDK@@@std@@@1@@Z 0041e460 f i sdk_util.obj
 0001:0001d460       ??0?$_Tree_unchecked_const_iterator@V?$_Tree_val@U?$_Tree_simple_types@U?$pair@$$CBIPAVIUserInfo@ZOOMSDK@@@std@@@std@@@std@@U_Iterator_base0@2@@std@@QAE@PAU?$_Tree_node@U?$pair@$$CBIPAVIUserInfo@ZOOMSDK@@@std@@PAX@1@PBV?$_Tree_val@U?$_Tree_simple_types@U?$pair@$$CBIPAVIUserInfo@ZOOMSDK@@@std@@@std@@@1@@Z 0041e460 f i user_manager.obj
 0001:0001d460       ??0?$_Tree_unchecked_const_iterator@V?$_Tree_val@U?$_Tree_simple_types@PAVISDKInMeetingServiceMgrEvent@@@std@@@std@@U_Iterator_base0@2@@std@@QAE@PAU?$_Tree_node@PAVISDKInMeetingServiceMgrEvent@@PAX@1@PBV?$_Tree_val@U?$_Tree_simple_types@PAVISDKInMeetingServiceMgrEvent@@@std@@@1@@Z 0041e460 f i sdk_util.obj
 0001:0001d460       ??0?$_Tree_unchecked_const_iterator@V?$_Tree_val@U?$_Tree_simple_types@PAVIMeetingChatCtrlEvent@ZOOMSDK@@@std@@@std@@U_Iterator_base0@2@@std@@QAE@PAU?$_Tree_node@PAVIMeetingChatCtrlEvent@ZOOMSDK@@PAX@1@PBV?$_Tree_val@U?$_Tree_simple_types@PAVIMeetingChatCtrlEvent@ZOOMSDK@@@std@@@1@@Z 0041e460 f i sdk_util.obj
 0001:0001d460       ??0?$_Tree_unchecked_const_iterator@V?$_Tree_val@U?$_Tree_simple_types@PAVIClosedCaptionControllerEvent@ZOOMSDK@@@std@@@std@@U_Iterator_base0@2@@std@@QAE@PAU?$_Tree_node@PAVIClosedCaptionControllerEvent@ZOOMSDK@@PAX@1@PBV?$_Tree_val@U?$_Tree_simple_types@PAVIClosedCaptionControllerEvent@ZOOMSDK@@@std@@@1@@Z 0041e460 f i sdk_util.obj
 0001:0001d460       ??0?$_Tree_unchecked_const_iterator@V?$_Tree_val@U?$_Tree_simple_types@PAVIMeetingParticipantsCtrlEvent@ZOOMSDK@@@std@@@std@@U_Iterator_base0@2@@std@@QAE@PAU?$_Tree_node@PAVIMeetingParticipantsCtrlEvent@ZOOMSDK@@PAX@1@PBV?$_Tree_val@U?$_Tree_simple_types@PAVIMeetingParticipantsCtrlEvent@ZOOMSDK@@@std@@@1@@Z 0041e460 f i sdk_util.obj
 0001:0001d490       ??0?$list@HV?$allocator@H@std@@@std@@QAE@XZ 0041e490 f i participant_ui.obj
 0001:0001d4c0       ??0CPUserItemEx@@QAE@XZ    0041e4c0 f   participant_ui.obj
 0001:0001d5b0       ??0CParticipantUIMgr@@QAE@PAVCCustomizeInMeetingUIMgr@@@Z 0041e5b0 f   participant_ui.obj
 0001:0001d650       ??0CRect@@QAE@ABUtagRECT@@@Z 0041e650 f i participant_ui.obj
 0001:0001d670       ??0IDialogBuilderCallback@DuiLib@@QAE@XZ 0041e670 f i participant_ui.obj
 0001:0001d690       ??1?$CDelegate@VCPUserItemEx@@V1@@DuiLib@@UAE@XZ 0041e690 f i participant_ui.obj
 0001:0001d6b0       ??1?$_Alloc_construct_ptr@V?$allocator@U?$_List_node@HPAX@std@@@std@@@std@@QAE@XZ 0041e6b0 f i participant_ui.obj
 0001:0001d710       ??1?$list@HV?$allocator@H@std@@@std@@QAE@XZ 0041e710 f i participant_ui.obj
 0001:0001d730       ??1CListContainerElementUI@DuiLib@@UAE@XZ 0041e730 f i participant_ui.obj
 0001:0001d750       ??1CPUserItemEx@@UAE@XZ    0041e750 f   participant_ui.obj
 0001:0001d7f0       ??1CParticipantUIMgr@@QAE@XZ 0041e7f0 f   participant_ui.obj
 0001:0001d890       ??8?$_Tree_const_iterator@V?$_Tree_val@U?$_Tree_simple_types@PAVIMeetingServiceEvent@ZOOMSDK@@@std@@@std@@@std@@QBE_NABV01@@Z 0041e890 f i sdk_util.obj
 0001:0001d890       ??8?$_Tree_const_iterator@V?$_Tree_val@U?$_Tree_simple_types@PAVIMeetingVideoCtrlEvent@ZOOMSDK@@@std@@@std@@@std@@QBE_NABV01@@Z 0041e890 f i sdk_util.obj
 0001:0001d890       ??8?$_Tree_const_iterator@V?$_Tree_val@U?$_Tree_simple_types@PAVIClosedCaptionControllerEvent@ZOOMSDK@@@std@@@std@@@std@@QBE_NABV01@@Z 0041e890 f i sdk_util.obj
 0001:0001d890       ??8?$_Tree_unchecked_const_iterator@V?$_Tree_val@U?$_Tree_simple_types@PAVIMeetingServiceEvent@ZOOMSDK@@@std@@@std@@U_Iterator_base0@2@@std@@QBE_NABV01@@Z 0041e890 f i sdk_util.obj
 0001:0001d890       ??8?$_Tree_const_iterator@V?$_Tree_val@U?$_Tree_simple_types@PAVIPreMeetingServiceEvent@ZOOMSDK@@@std@@@std@@@std@@QBE_NABV01@@Z 0041e890 f i sdk_util.obj
 0001:0001d890       ??8?$_Tree_unchecked_const_iterator@V?$_Tree_val@U?$_Tree_simple_types@PAVIPreMeetingServiceEvent@ZOOMSDK@@@std@@@std@@U_Iterator_base0@2@@std@@QBE_NABV01@@Z 0041e890 f i sdk_util.obj
 0001:0001d890       ??8?$_Tree_const_iterator@V?$_Tree_val@U?$_Tree_simple_types@PAVIMeetingParticipantsCtrlEvent@ZOOMSDK@@@std@@@std@@@std@@QBE_NABV01@@Z 0041e890 f i sdk_util.obj
 0001:0001d890       ??8?$_Tree_unchecked_const_iterator@V?$_Tree_val@U?$_Tree_simple_types@PAVISDKInMeetingServiceMgrEvent@@@std@@@std@@U_Iterator_base0@2@@std@@QBE_NABV01@@Z 0041e890 f i sdk_util.obj
 0001:0001d890       ??8?$_List_const_iterator@V?$_List_val@U?$_List_simple_types@H@std@@@std@@@std@@QBE_NABV01@@Z 0041e890 f i participant_ui.obj
 0001:0001d890       ??8?$_Tree_const_iterator@V?$_Tree_val@U?$_Tree_simple_types@PAVIAuthServiceEvent@ZOOMSDK@@@std@@@std@@@std@@QBE_NABV01@@Z 0041e890 f i sdk_util.obj
 0001:0001d890       ??8?$_Tree_unchecked_const_iterator@V?$_Tree_val@U?$_Tree_simple_types@PAVIMeetingParticipantsCtrlEvent@ZOOMSDK@@@std@@@std@@U_Iterator_base0@2@@std@@QBE_NABV01@@Z 0041e890 f i sdk_util.obj
 0001:0001d890       ??8?$_Tree_unchecked_const_iterator@V?$_Tree_val@U?$_Tree_simple_types@PAVIMeetingVideoCtrlEvent@ZOOMSDK@@@std@@@std@@U_Iterator_base0@2@@std@@QBE_NABV01@@Z 0041e890 f i sdk_util.obj
 0001:0001d890       ??8?$_Tree_const_iterator@V?$_Tree_val@U?$_Tree_simple_types@PAVIMeetingChatCtrlEvent@ZOOMSDK@@@std@@@std@@@std@@QBE_NABV01@@Z 0041e890 f i sdk_util.obj
 0001:0001d890       ??8?$_Tree_const_iterator@V?$_Tree_val@U?$_Tree_simple_types@PAVISDKInMeetingServiceMgrEvent@@@std@@@std@@@std@@QBE_NABV01@@Z 0041e890 f i sdk_util.obj
 0001:0001d890       ??8?$_Tree_unchecked_const_iterator@V?$_Tree_val@U?$_Tree_simple_types@PAVIMeetingChatCtrlEvent@ZOOMSDK@@@std@@@std@@U_Iterator_base0@2@@std@@QBE_NABV01@@Z 0041e890 f i sdk_util.obj
 0001:0001d890       ??8?$_Tree_unchecked_const_iterator@V?$_Tree_val@U?$_Tree_simple_types@PAVIClosedCaptionControllerEvent@ZOOMSDK@@@std@@@std@@U_Iterator_base0@2@@std@@QBE_NABV01@@Z 0041e890 f i sdk_util.obj
 0001:0001d890       ??8?$_Tree_unchecked_const_iterator@V?$_Tree_val@U?$_Tree_simple_types@PAVIAuthServiceEvent@ZOOMSDK@@@std@@@std@@U_Iterator_base0@2@@std@@QBE_NABV01@@Z 0041e890 f i sdk_util.obj
 0001:0001d890       ??8?$_Tree_const_iterator@V?$_Tree_val@U?$_Tree_simple_types@U?$pair@$$CBIPAVIUserInfo@ZOOMSDK@@@std@@@std@@@std@@@std@@QBE_NABV01@@Z 0041e890 f i user_manager.obj
 0001:0001d8c0       ??9?$_Tree_unchecked_const_iterator@V?$_Tree_val@U?$_Tree_simple_types@PAVIPreMeetingServiceEvent@ZOOMSDK@@@std@@@std@@U_Iterator_base0@2@@std@@QBE_NABV01@@Z 0041e8c0 f i sdk_util.obj
 0001:0001d8c0       ??9?$_Tree_const_iterator@V?$_Tree_val@U?$_Tree_simple_types@PAVIClosedCaptionControllerEvent@ZOOMSDK@@@std@@@std@@@std@@QBE_NABV01@@Z 0041e8c0 f i sdk_util.obj
 0001:0001d8c0       ??9?$_Tree_const_iterator@V?$_Tree_val@U?$_Tree_simple_types@PAVIMeetingChatCtrlEvent@ZOOMSDK@@@std@@@std@@@std@@QBE_NABV01@@Z 0041e8c0 f i sdk_util.obj
 0001:0001d8c0       ??9?$_Tree_const_iterator@V?$_Tree_val@U?$_Tree_simple_types@PAVIMeetingVideoCtrlEvent@ZOOMSDK@@@std@@@std@@@std@@QBE_NABV01@@Z 0041e8c0 f i sdk_util.obj
 0001:0001d8c0       ??9?$_Tree_unchecked_const_iterator@V?$_Tree_val@U?$_Tree_simple_types@PAVIClosedCaptionControllerEvent@ZOOMSDK@@@std@@@std@@U_Iterator_base0@2@@std@@QBE_NABV01@@Z 0041e8c0 f i sdk_util.obj
 0001:0001d8c0       ??9?$_Tree_const_iterator@V?$_Tree_val@U?$_Tree_simple_types@PAVIMeetingServiceEvent@ZOOMSDK@@@std@@@std@@@std@@QBE_NABV01@@Z 0041e8c0 f i sdk_util.obj
 0001:0001d8c0       ??9?$_Tree_unchecked_const_iterator@V?$_Tree_val@U?$_Tree_simple_types@PAVISDKInMeetingServiceMgrEvent@@@std@@@std@@U_Iterator_base0@2@@std@@QBE_NABV01@@Z 0041e8c0 f i sdk_util.obj
 0001:0001d8c0       ??9?$_Tree_unchecked_const_iterator@V?$_Tree_val@U?$_Tree_simple_types@PAVIMeetingChatCtrlEvent@ZOOMSDK@@@std@@@std@@U_Iterator_base0@2@@std@@QBE_NABV01@@Z 0041e8c0 f i sdk_util.obj
 0001:0001d8c0       ??9?$_List_const_iterator@V?$_List_val@U?$_List_simple_types@H@std@@@std@@@std@@QBE_NABV01@@Z 0041e8c0 f i participant_ui.obj
 0001:0001d8c0       ??9?$_Tree_const_iterator@V?$_Tree_val@U?$_Tree_simple_types@PAVISDKInMeetingServiceMgrEvent@@@std@@@std@@@std@@QBE_NABV01@@Z 0041e8c0 f i sdk_util.obj
 0001:0001d8c0       ??9?$_Tree_const_iterator@V?$_Tree_val@U?$_Tree_simple_types@PAVIMeetingParticipantsCtrlEvent@ZOOMSDK@@@std@@@std@@@std@@QBE_NABV01@@Z 0041e8c0 f i sdk_util.obj
 0001:0001d8c0       ??9?$_Tree_const_iterator@V?$_Tree_val@U?$_Tree_simple_types@U?$pair@$$CBIPAVIUserInfo@ZOOMSDK@@@std@@@std@@@std@@@std@@QBE_NABV01@@Z 0041e8c0 f i user_manager.obj
 0001:0001d8c0       ??9?$_Tree_unchecked_const_iterator@V?$_Tree_val@U?$_Tree_simple_types@PAVIMeetingServiceEvent@ZOOMSDK@@@std@@@std@@U_Iterator_base0@2@@std@@QBE_NABV01@@Z 0041e8c0 f i sdk_util.obj
 0001:0001d8c0       ??9?$_Tree_unchecked_const_iterator@V?$_Tree_val@U?$_Tree_simple_types@PAVIMeetingParticipantsCtrlEvent@ZOOMSDK@@@std@@@std@@U_Iterator_base0@2@@std@@QBE_NABV01@@Z 0041e8c0 f i sdk_util.obj
 0001:0001d8c0       ??9?$_Tree_const_iterator@V?$_Tree_val@U?$_Tree_simple_types@PAVIAuthServiceEvent@ZOOMSDK@@@std@@@std@@@std@@QBE_NABV01@@Z 0041e8c0 f i sdk_util.obj
 0001:0001d8c0       ??9?$_Tree_unchecked_const_iterator@V?$_Tree_val@U?$_Tree_simple_types@PAVIMeetingVideoCtrlEvent@ZOOMSDK@@@std@@@std@@U_Iterator_base0@2@@std@@QBE_NABV01@@Z 0041e8c0 f i sdk_util.obj
 0001:0001d8c0       ??9?$_Tree_unchecked_const_iterator@V?$_Tree_val@U?$_Tree_simple_types@PAVIAuthServiceEvent@ZOOMSDK@@@std@@@std@@U_Iterator_base0@2@@std@@QBE_NABV01@@Z 0041e8c0 f i sdk_util.obj
 0001:0001d8c0       ??9?$_Tree_const_iterator@V?$_Tree_val@U?$_Tree_simple_types@PAVIPreMeetingServiceEvent@ZOOMSDK@@@std@@@std@@@std@@QBE_NABV01@@Z 0041e8c0 f i sdk_util.obj
 0001:0001d900       ?_Rmost@?$_Tree_val@U?$_Tree_simple_types@PAVIClosedCaptionControllerEvent@ZOOMSDK@@@std@@@std@@QBEAAPAU?$_Tree_node@PAVIClosedCaptionControllerEvent@ZOOMSDK@@PAX@2@XZ 0041e900 f i sdk_util.obj
 0001:0001d900       ?_Rmost@?$_Tree_val@U?$_Tree_simple_types@PAVIPreMeetingServiceEvent@ZOOMSDK@@@std@@@std@@QBEAAPAU?$_Tree_node@PAVIPreMeetingServiceEvent@ZOOMSDK@@PAX@2@XZ 0041e900 f i sdk_util.obj
 0001:0001d900       ?_Rmost@?$_Tree_val@U?$_Tree_simple_types@PAVISDKInMeetingServiceMgrEvent@@@std@@@std@@QBEAAPAU?$_Tree_node@PAVISDKInMeetingServiceMgrEvent@@PAX@2@XZ 0041e900 f i sdk_util.obj
 0001:0001d900       ?_Rmost@?$_Tree_val@U?$_Tree_simple_types@PAVIMeetingServiceEvent@ZOOMSDK@@@std@@@std@@QBEAAPAU?$_Tree_node@PAVIMeetingServiceEvent@ZOOMSDK@@PAX@2@XZ 0041e900 f i sdk_util.obj
 0001:0001d900       ??D?$_List_const_iterator@V?$_List_val@U?$_List_simple_types@H@std@@@std@@@std@@QBEABHXZ 0041e900 f i participant_ui.obj
 0001:0001d900       ?_Rmost@?$_Tree_val@U?$_Tree_simple_types@PAVIMeetingParticipantsCtrlEvent@ZOOMSDK@@@std@@@std@@QBEAAPAU?$_Tree_node@PAVIMeetingParticipantsCtrlEvent@ZOOMSDK@@PAX@2@XZ 0041e900 f i sdk_util.obj
 0001:0001d900       ?_Rmost@?$_Tree_val@U?$_Tree_simple_types@PAVIAuthServiceEvent@ZOOMSDK@@@std@@@std@@QBEAAPAU?$_Tree_node@PAVIAuthServiceEvent@ZOOMSDK@@PAX@2@XZ 0041e900 f i sdk_util.obj
 0001:0001d900       ?_Rmost@?$_Tree_val@U?$_Tree_simple_types@PAVIMeetingChatCtrlEvent@ZOOMSDK@@@std@@@std@@QBEAAPAU?$_Tree_node@PAVIMeetingChatCtrlEvent@ZOOMSDK@@PAX@2@XZ 0041e900 f i sdk_util.obj
 0001:0001d900       ?_Rmost@?$_Tree_val@U?$_Tree_simple_types@PAVIMeetingVideoCtrlEvent@ZOOMSDK@@@std@@@std@@QBEAAPAU?$_Tree_node@PAVIMeetingVideoCtrlEvent@ZOOMSDK@@PAX@2@XZ 0041e900 f i sdk_util.obj
 0001:0001d900       ?_Rmost@?$_Tree_val@U?$_Tree_simple_types@U?$pair@$$CBIPAVIUserInfo@ZOOMSDK@@@std@@@std@@@std@@QBEAAPAU?$_Tree_node@U?$pair@$$CBIPAVIUserInfo@ZOOMSDK@@@std@@PAX@2@XZ 0041e900 f i user_manager.obj
 0001:0001d920       ??D?$_List_iterator@V?$_List_val@U?$_List_simple_types@H@std@@@std@@@std@@QBEAAHXZ 0041e920 f i participant_ui.obj
 0001:0001d940       ??E?$_List_const_iterator@V?$_List_val@U?$_List_simple_types@H@std@@@std@@@std@@QAEAAV01@XZ 0041e940 f i participant_ui.obj
 0001:0001d960       ??E?$_List_iterator@V?$_List_val@U?$_List_simple_types@H@std@@@std@@@std@@QAE?AV01@H@Z 0041e960 f i participant_ui.obj
 0001:0001d990       ??E?$_List_iterator@V?$_List_val@U?$_List_simple_types@H@std@@@std@@@std@@QAEAAV01@XZ 0041e990 f i participant_ui.obj
 0001:0001d9b0       ??_E?$CDelegate@VCPUserItemEx@@V1@@DuiLib@@UAEPAXI@Z 0041e9b0 f i participant_ui.obj
 0001:0001d9b0       ??_G?$CDelegate@VCPUserItemEx@@V1@@DuiLib@@UAEPAXI@Z 0041e9b0 f i participant_ui.obj
 0001:0001d9e0       ??_ECPUserItemEx@@UAEPAXI@Z 0041e9e0 f i participant_ui.obj
 0001:0001d9e0       ??_GCPUserItemEx@@UAEPAXI@Z 0041e9e0 f i participant_ui.obj
 0001:0001da20       ??_GParticipantPopMenu@@QAEPAXI@Z 0041ea20 f i participant_ui.obj
 0001:0001da50       ?Copy@?$CDelegate@VCPUserItemEx@@V1@@DuiLib@@UBEPAVCDelegateBase@2@XZ 0041ea50 f i participant_ui.obj
 0001:0001dad0       ?CreateControl@CParticipantUIMgr@@UAEPAVCControlUI@DuiLib@@PB_W@Z 0041ead0 f   participant_ui.obj
 0001:0001dbc0       ?GetSkinRes@CParticipantUIMgr@@UAEIXZ 0041ebc0 f i participant_ui.obj
 0001:0001dbd0       ?GetUserByID@CParticipantUIMgr@@QAEPAVIUserInfo@ZOOMSDK@@I@Z 0041ebd0 f   participant_ui.obj
 0001:0001dc00       ?GetUserID@CPUserItemEx@@QAEIXZ 0041ec00 f   participant_ui.obj
 0001:0001dc20       ?GetUserList@CParticipantUIMgr@@QAEXXZ 0041ec20 f   participant_ui.obj
 0001:0001dc50       ?HandleMessage@CParticipantUIMgr@@UAEJIIJ@Z 0041ec50 f   participant_ui.obj
 0001:0001de30       ?HandleUserChanged@CParticipantUIMgr@@QAEXW4SDKUserChangedType@@@Z 0041ee30 f   participant_ui.obj
 0001:0001de80       ?InitControls@CPUserItemEx@@QAEXXZ 0041ee80 f   participant_ui.obj
 0001:0001dfb0       ?InitListUI@CParticipantUIMgr@@QAEXXZ 0041efb0 f   participant_ui.obj
 0001:0001e1c0       ?InitWindow@CParticipantUIMgr@@UAEXXZ 0041f1c0 f   participant_ui.obj
 0001:0001e2b0       ?Invoke@?$CDelegate@VCPUserItemEx@@V1@@DuiLib@@MAE_NPAX@Z 0041f2b0 f i participant_ui.obj
 0001:0001e2f0       ?IsSelected@CPUserItemEx@@UBE_NXZ 0041f2f0 f   participant_ui.obj
 0001:0001e310       ?Notify@CParticipantUIMgr@@UAEXAAUtagTNotifyUI@DuiLib@@@Z 0041f310 f   participant_ui.obj
 0001:0001e470       ?OnSelfItemSize@CPUserItemEx@@AAE_NPAX@Z 0041f470 f   participant_ui.obj
 0001:0001e900       ?RemoveListItem@CParticipantUIMgr@@AAEXXZ 0041f900 f   participant_ui.obj
 0001:0001eb40       ?ResetWindowTitle@CParticipantUIMgr@@AAEXXZ 0041fb40 f   participant_ui.obj
 0001:0001ec00       ?SetUIMgr@CPUserItemEx@@QAEXPAVCParticipantUIMgr@@@Z 0041fc00 f   participant_ui.obj
 0001:0001ec30       ?SetUserID@CPUserItemEx@@QAEXI@Z 0041fc30 f   participant_ui.obj
 0001:0001ec90       ?UpdateItemInfo@CPUserItemEx@@QAEXXZ 0041fc90 f   participant_ui.obj
 0001:0001ecd0       ?UpdateListItem@CParticipantUIMgr@@AAEXXZ 0041fcd0 f   participant_ui.obj
 0001:0001ef90       ?UpdateName@CPUserItemEx@@QAEXXZ 0041ff90 f   participant_ui.obj
 0001:0001f100       ?UpdateUserAudioStatus@CPUserItemEx@@QAEXXZ 00420100 f   participant_ui.obj
 0001:0001f270       ?UpdateUserInfo@CPUserItemEx@@QAEXXZ 00420270 f   participant_ui.obj
 0001:0001f290       ?UpdateUserLowerHandStatus@CPUserItemEx@@QAEXXZ 00420290 f   participant_ui.obj
 0001:0001f320       ?UpdateUserVideoStatus@CPUserItemEx@@QAEXXZ 00420320 f   participant_ui.obj
 0001:0001f440       ?_Alloc_sentinel_and_proxy@?$list@HV?$allocator@H@std@@@std@@AAEXXZ 00420440 f i participant_ui.obj
 0001:0001f4e0       ?_Allocate@?$_Alloc_construct_ptr@V?$allocator@U?$_List_node@HPAX@std@@@std@@@std@@QAEXXZ 004204e0 f i participant_ui.obj
 0001:0001f510       ?_Release@?$_Alloc_construct_ptr@V?$allocator@U?$_Tree_node@PAVIMeetingVideoCtrlEvent@ZOOMSDK@@PAX@std@@@std@@@std@@QAEPAU?$_Tree_node@PAVIMeetingVideoCtrlEvent@ZOOMSDK@@PAX@2@XZ 00420510 f i sdk_util.obj
 0001:0001f510       ?_Release@?$_Alloc_construct_ptr@V?$allocator@U?$_Tree_node@PAVIMeetingServiceEvent@ZOOMSDK@@PAX@std@@@std@@@std@@QAEPAU?$_Tree_node@PAVIMeetingServiceEvent@ZOOMSDK@@PAX@2@XZ 00420510 f i sdk_util.obj
 0001:0001f510       ?_Release@?$_Alloc_construct_ptr@V?$allocator@U?$_List_node@HPAX@std@@@std@@@std@@QAEPAU?$_List_node@HPAX@2@XZ 00420510 f i participant_ui.obj
 0001:0001f510       ?_Release@?$_Alloc_construct_ptr@V?$allocator@U?$_Tree_node@PAVIClosedCaptionControllerEvent@ZOOMSDK@@PAX@std@@@std@@@std@@QAEPAU?$_Tree_node@PAVIClosedCaptionControllerEvent@ZOOMSDK@@PAX@2@XZ 00420510 f i sdk_util.obj
 0001:0001f510       ?_Release@?$_Alloc_construct_ptr@V?$allocator@U?$_Tree_node@PAVIPreMeetingServiceEvent@ZOOMSDK@@PAX@std@@@std@@@std@@QAEPAU?$_Tree_node@PAVIPreMeetingServiceEvent@ZOOMSDK@@PAX@2@XZ 00420510 f i sdk_util.obj
 0001:0001f510       ?_Release@?$_Alloc_construct_ptr@V?$allocator@U?$_Tree_node@U?$pair@$$CBIPAVIUserInfo@ZOOMSDK@@@std@@PAX@std@@@std@@@std@@QAEPAU?$_Tree_node@U?$pair@$$CBIPAVIUserInfo@ZOOMSDK@@@std@@PAX@2@XZ 00420510 f i user_manager.obj
 0001:0001f510       ?_Release@?$_Alloc_construct_ptr@V?$allocator@U?$_Tree_node@PAVIMeetingChatCtrlEvent@ZOOMSDK@@PAX@std@@@std@@@std@@QAEPAU?$_Tree_node@PAVIMeetingChatCtrlEvent@ZOOMSDK@@PAX@2@XZ 00420510 f i sdk_util.obj
 0001:0001f510       ?_Release@?$_Alloc_construct_ptr@V?$allocator@U?$_Tree_node@PAVISDKInMeetingServiceMgrEvent@@PAX@std@@@std@@@std@@QAEPAU?$_Tree_node@PAVISDKInMeetingServiceMgrEvent@@PAX@2@XZ 00420510 f i sdk_util.obj
 0001:0001f510       ?_Release@?$_Alloc_construct_ptr@V?$allocator@U?$_Tree_node@PAVIMeetingParticipantsCtrlEvent@ZOOMSDK@@PAX@std@@@std@@@std@@QAEPAU?$_Tree_node@PAVIMeetingParticipantsCtrlEvent@ZOOMSDK@@PAX@2@XZ 00420510 f i sdk_util.obj
 0001:0001f510       ?_Release@?$_Alloc_construct_ptr@V?$allocator@U?$_Tree_node@PAVIAuthServiceEvent@ZOOMSDK@@PAX@std@@@std@@@std@@QAEPAU?$_Tree_node@PAVIAuthServiceEvent@ZOOMSDK@@PAX@2@XZ 00420510 f i sdk_util.obj
 0001:0001f570       ?_Tidy@?$list@HV?$allocator@H@std@@@std@@AAEXXZ 00420570 f i participant_ui.obj
 0001:0001f5c0       ?_Unchecked_end@?$list@HV?$allocator@H@std@@@std@@QAE?AV?$_List_unchecked_iterator@V?$_List_val@U?$_List_simple_types@H@std@@@std@@@2@XZ 004205c0 f i participant_ui.obj
 0001:0001f5f0       ?allocate@?$allocator@U?$_List_node@HPAX@std@@@std@@QAEPAU?$_List_node@HPAX@2@I@Z 004205f0 f i participant_ui.obj
 0001:0001f620       ?begin@?$list@HV?$allocator@H@std@@@std@@QAE?AV?$_List_iterator@V?$_List_val@U?$_List_simple_types@H@std@@@std@@@2@XZ 00420620 f i participant_ui.obj
 0001:0001f690       ?deallocate@?$_Default_allocator_traits@V?$allocator@U?$_List_node@HPAX@std@@@std@@@std@@SAXAAV?$allocator@U?$_List_node@HPAX@std@@@2@QAU?$_List_node@HPAX@2@I@Z 00420690 f i participant_ui.obj
 0001:0001f6b0       ?deallocate@?$allocator@U?$_List_node@HPAX@std@@@std@@QAEXQAU?$_List_node@HPAX@2@I@Z 004206b0 f i participant_ui.obj
 0001:0001f6d0       ?empty@?$list@HV?$allocator@H@std@@@std@@QBE_NXZ 004206d0 f i participant_ui.obj
 0001:0001f700       ?end@?$list@HV?$allocator@H@std@@@std@@QAE?AV?$_List_iterator@V?$_List_val@U?$_List_simple_types@H@std@@@std@@@2@XZ 00420700 f i participant_ui.obj
 0001:0001f760       ?max_size@?$_Default_allocator_traits@V?$allocator@U?$_List_node@HPAX@std@@@std@@@std@@SAIABV?$allocator@U?$_List_node@HPAX@std@@@2@@Z 00420760 f i participant_ui.obj
 0001:0001f770       ?max_size@?$list@HV?$allocator@H@std@@@std@@QBEIXZ 00420770 f i participant_ui.obj
 0001:0001f790       ?push_back@?$list@HV?$allocator@H@std@@@std@@QAEXABH@Z 00420790 f i participant_ui.obj
 0001:0001f7c0       ??0CSDKSheduleMeetingUIEvent@@QAE@XZ 004207c0 f i schedule_meeting_ui.obj
 0001:0001f7e0       ??0CSDKSheduleMeetingUIGroup@@QAE@XZ 004207e0 f   schedule_meeting_ui.obj
 0001:0001f9c0       ??0CSDKSheduleMeetingUIMgr@@QAE@XZ 004209c0 f   schedule_meeting_ui.obj
 0001:0001fad0       ??1CSDKSheduleMeetingUIGroup@@UAE@XZ 00420ad0 f   schedule_meeting_ui.obj
 0001:0001fcf0       ??1CSDKSheduleMeetingUIMgr@@UAE@XZ 00420cf0 f   schedule_meeting_ui.obj
 0001:0001fdb0       ??_GCDialInCountryUIMgr@@QAEPAXI@Z 00420db0 f i schedule_meeting_ui.obj
 0001:0001fdf0       ??_GCSDKSheduleMeetingUIGroup@@UAEPAXI@Z 00420df0 f i schedule_meeting_ui.obj
 0001:0001fdf0       ??_ECSDKSheduleMeetingUIGroup@@UAEPAXI@Z 00420df0 f i schedule_meeting_ui.obj
 0001:0001fe30       ??_ECSDKSheduleMeetingUIMgr@@UAEPAXI@Z 00420e30 f i schedule_meeting_ui.obj
 0001:0001fe30       ??_GCSDKSheduleMeetingUIMgr@@UAEPAXI@Z 00420e30 f i schedule_meeting_ui.obj
 0001:0001fe70       ?DoClickBackBtn@CSDKSheduleMeetingUIGroup@@QAEXXZ 00420e70 f   schedule_meeting_ui.obj
 0001:0001fea0       ?DoClickDeleteMeetingBtn@CSDKSheduleMeetingUIGroup@@QAEXXZ 00420ea0 f   schedule_meeting_ui.obj
 0001:00020060       ?DoClickEditDialInCountryBtn@CSDKSheduleMeetingUIGroup@@QAEXXZ 00421060 f   schedule_meeting_ui.obj
 0001:000201d0       ?DoClickEditMeetingBtn@CSDKSheduleMeetingUIGroup@@QAEXXZ 004211d0 f   schedule_meeting_ui.obj
 0001:00020b70       ?DoClickScheduleBtn@CSDKSheduleMeetingUIGroup@@QAEXXZ 00421b70 f   schedule_meeting_ui.obj
 0001:00020c30       ?DoEdit@CSDKSheduleMeetingUIGroup@@QAEXXZ 00421c30 f   schedule_meeting_ui.obj
 0001:00021590       ?DoSchedule@CSDKSheduleMeetingUIGroup@@QAEXXZ 00422590 f   schedule_meeting_ui.obj
 0001:00021f00       ?GetEditMeetingStatus@CSDKSheduleMeetingUIGroup@@QAE_NXZ 00422f00 f   schedule_meeting_ui.obj
 0001:00021f20       ?GetSkinRes@CSDKSheduleMeetingUIMgr@@UAEIXZ 00422f20 f i schedule_meeting_ui.obj
 0001:00021f30       ?HandleMessage@CSDKSheduleMeetingUIMgr@@UAEJIIJ@Z 00422f30 f   schedule_meeting_ui.obj
 0001:00022130       ?InitDialInCountry@CSDKSheduleMeetingUIGroup@@QAEXXZ 00423130 f   schedule_meeting_ui.obj
 0001:00022350       ?InitWindow@CSDKSheduleMeetingUIGroup@@QAEXAAVCPaintManagerUI@DuiLib@@PAVCSDKSheduleMeetingUIMgr@@@Z 00423350 f   schedule_meeting_ui.obj
 0001:00022610       ?InitWindow@CSDKSheduleMeetingUIMgr@@UAEXXZ 00423610 f   schedule_meeting_ui.obj
 0001:00022830       ?Notify@CSDKSheduleMeetingUIGroup@@QAEXAAUtagTNotifyUI@DuiLib@@@Z 00423830 f   schedule_meeting_ui.obj
 0001:00022b30       ?Notify@CSDKSheduleMeetingUIMgr@@UAEXAAUtagTNotifyUI@DuiLib@@@Z 00423b30 f   schedule_meeting_ui.obj
 0001:00022c30       ?OnClose@CSDKSettingsUIMgr@@QAEJIIJAAH@Z 00423c30 f   settings_ui.obj
 0001:00022c30       ?OnClose@CSDKSheduleMeetingUIMgr@@QAEJIIJAAH@Z 00423c30 f   schedule_meeting_ui.obj
 0001:00022c40       ?OnDestroy@CSDKSheduleMeetingUIMgr@@QAEJIIJAAH@Z 00423c40 f   schedule_meeting_ui.obj
 0001:00022c60       ?SetEvent@CSDKSheduleMeetingUIMgr@@QAEXPAVCSDKDemoAppEvent@@@Z 00423c60 f   schedule_meeting_ui.obj
 0001:00022c80       ?SetNotBeEditMeeting@CSDKSheduleMeetingUIGroup@@QAEXXZ 00423c80 f   schedule_meeting_ui.obj
 0001:00022ca0       ?ShowErrorMessage@CSDKSheduleMeetingUIMgr@@QAEXPB_W@Z 00423ca0 f   schedule_meeting_ui.obj
 0001:00022cc0       ?ShowErrorMessage@CSDKSheduleMeetingUIMgr@@QAEXW4ErrorMessageType@@@Z 00423cc0 f   schedule_meeting_ui.obj
 0001:00022e20       ?ShowLocaltime@CSDKSheduleMeetingUIGroup@@QAEXXZ 00423e20 f   schedule_meeting_ui.obj
 0001:00022f00       ?ShowWaitingGif@CSDKSheduleMeetingUIMgr@@QAEX_N@Z 00423f00 f   schedule_meeting_ui.obj
 0001:00022f90       ?StringToDatetime@@YA_JPB_W@Z 00423f90 f   schedule_meeting_ui.obj
 0001:00023030       ?SwitchToPage@CSDKSheduleMeetingUIMgr@@QAEXW4PreMeetingPageType@@@Z 00424030 f   schedule_meeting_ui.obj
 0001:000232d0       ?UninitWindow@CSDKSheduleMeetingUIGroup@@QAEXXZ 004242d0 f   schedule_meeting_ui.obj
 0001:00023300       ?UpdateRecurringMeetingUI@CSDKSheduleMeetingUIGroup@@QAEXXZ 00424300 f   schedule_meeting_ui.obj
 0001:000233d0       ?onDeleteMeeting@CSDKSheduleMeetingUIGroup@@UAEXW4PremeetingAPIResult@ZOOMSDK@@@Z 004243d0 f   schedule_meeting_ui.obj
 0001:00023480       ?onListMeeting@CSDKSheduleMeetingUIGroup@@UAEXW4PremeetingAPIResult@ZOOMSDK@@PAV?$IList@_K@3@@Z 00424480 f   schedule_meeting_ui.obj
 0001:000237c0       ?onScheduleOrEditMeeting@CSDKSheduleMeetingUIGroup@@UAEXW4PremeetingAPIResult@ZOOMSDK@@_K@Z 004247c0 f   schedule_meeting_ui.obj
 0001:00023bd0       __vswscanf_l               00424bd0 f i schedule_meeting_ui.obj
 0001:00023c20       _swscanf                   00424c20 f i schedule_meeting_ui.obj
 0001:00023c60       ??0CSDKSheduleMeetingUIWorkFlow@@QAE@XZ 00424c60 f   schedule_meeting_workflow.obj
 0001:00023cb0       ??0IPreMeetingServiceEvent@ZOOMSDK@@QAE@XZ 00424cb0 f i schedule_meeting_workflow.obj
 0001:00023cd0       ??1CSDKSheduleMeetingUIWorkFlow@@UAE@XZ 00424cd0 f   schedule_meeting_workflow.obj
 0001:00023d30       ??_ECSDKSheduleMeetingUIWorkFlow@@UAEPAXI@Z 00424d30 f i schedule_meeting_workflow.obj
 0001:00023d30       ??_GCSDKSheduleMeetingUIWorkFlow@@UAEPAXI@Z 00424d30 f i schedule_meeting_workflow.obj
 0001:00023d60       ?DeleteMeeting@CSDKSheduleMeetingUIWorkFlow@@QAE?AW4SDKError@ZOOMSDK@@_K@Z 00424d60 f   schedule_meeting_workflow.obj
 0001:00023da0       ?EditMeeting@CSDKSheduleMeetingUIWorkFlow@@QAE?AW4SDKError@ZOOMSDK@@XZ 00424da0 f   schedule_meeting_workflow.obj
 0001:00023df0       ?GetEditMeetingItem@CSDKSheduleMeetingUIWorkFlow@@QAEPAVIScheduleMeetingItem@ZOOMSDK@@_K@Z 00424df0 f   schedule_meeting_workflow.obj
 0001:00023e70       ?GetMeeingItem@CSDKSheduleMeetingUIWorkFlow@@QAEPAVIMeetingItemInfo@ZOOMSDK@@_K@Z 00424e70 f   schedule_meeting_workflow.obj
 0001:00023eb0       ?GetScheduleMeetingItem@CSDKSheduleMeetingUIWorkFlow@@QAEPAVIScheduleMeetingItem@ZOOMSDK@@XZ 00424eb0 f   schedule_meeting_workflow.obj
 0001:00023f30       ?Init@CSDKSheduleMeetingUIWorkFlow@@QAE_NXZ 00424f30 f   schedule_meeting_workflow.obj
 0001:00023fb0       ?ListMeeting@CSDKSheduleMeetingUIWorkFlow@@QAE?AW4SDKError@ZOOMSDK@@XZ 00424fb0 f   schedule_meeting_workflow.obj
 0001:00023ff0       ?ScheduleMeeting@CSDKSheduleMeetingUIWorkFlow@@QAE?AW4SDKError@ZOOMSDK@@XZ 00424ff0 f   schedule_meeting_workflow.obj
 0001:00024030       ?SetEvent@CSDKSheduleMeetingUIWorkFlow@@QAEXPAVCSDKSheduleMeetingUIEvent@@@Z 00425030 f   schedule_meeting_workflow.obj
 0001:00024050       ?Uninit@CSDKSheduleMeetingUIWorkFlow@@QAE_NXZ 00425050 f   schedule_meeting_workflow.obj
 0001:000240e0       ?onDeleteMeeting@CSDKSheduleMeetingUIWorkFlow@@UAEXW4PremeetingAPIResult@ZOOMSDK@@@Z 004250e0 f   schedule_meeting_workflow.obj
 0001:00024110       ?onListMeeting@CSDKSheduleMeetingUIWorkFlow@@UAEXW4PremeetingAPIResult@ZOOMSDK@@PAV?$IList@_K@3@@Z 00425110 f   schedule_meeting_workflow.obj
 0001:00024140       ?onScheduleOrEditMeeting@CSDKSheduleMeetingUIWorkFlow@@UAEXW4PremeetingAPIResult@ZOOMSDK@@_K@Z 00425140 f   schedule_meeting_workflow.obj
 0001:00024180       ??0CSDKDemoApp@@QAE@XZ     00425180 f   sdk_demo_app.obj
 0001:000241f0       ??0CSDKDemoAppEvent@@QAE@XZ 004251f0 f i sdk_demo_app.obj
 0001:00024210       ??1CCustomizeInMeetingUIMgr@@QAE@XZ 00425210 f i sdk_demo_app.obj
 0001:00024240       ??1CSDKDemoApp@@UAE@XZ     00425240 f   sdk_demo_app.obj
 0001:00024430       ??_GCCustomizeInMeetingUIMgr@@QAEPAXI@Z 00425430 f i sdk_demo_app.obj
 0001:00024470       ??_ECSDKDemoApp@@UAEPAXI@Z 00425470 f i sdk_demo_app.obj
 0001:00024470       ??_GCSDKDemoApp@@UAEPAXI@Z 00425470 f i sdk_demo_app.obj
 0001:000244a0       ?ActivateCustomizedUI@CSDKDemoApp@@UAEXXZ 004254a0 f   sdk_demo_app.obj
 0001:000244c0       ?GetCustomUIHWND@CSDKDemoApp@@QAEXPAPAUHWND__@@0@Z 004254c0 f   sdk_demo_app.obj
 0001:00024500       ?InitCustomizedUI@CSDKDemoApp@@UAEXXZ 00425500 f   sdk_demo_app.obj
 0001:00024630       ?Run@CSDKDemoApp@@QAEXPAUHINSTANCE__@@@Z 00425630 f   sdk_demo_app.obj
 0001:000247d0       ?Stop@CSDKDemoApp@@QAEXXZ  004257d0 f   sdk_demo_app.obj
 0001:000248b0       ?onJoinFailed@CSDKDemoApp@@UAEXXZ 004258b0 f   sdk_demo_app.obj
 0001:00024900       ?onLoginFailed@CSDKDemoApp@@UAEXXZ 00425900 f   sdk_demo_app.obj
 0001:00024930       ?onPageButtonClick@CSDKDemoApp@@UAEXW4ArrowButtonType@@@Z 00425930 f   sdk_demo_app.obj
 0001:00024960       ?onQuitApp@CSDKDemoApp@@UAEXXZ 00425960 f   sdk_demo_app.obj
 0001:00024980       ?onShowCameraControlWindow@CSDKDemoApp@@UAEXXZ 00425980 f   sdk_demo_app.obj
 0001:000249a0       ?onShowChatWindow@CSDKDemoApp@@UAEXXZ 004259a0 f   sdk_demo_app.obj
 0001:000249c0       ?onShowGalleryViewWindow@CSDKDemoApp@@UAEXXZ 004259c0 f   sdk_demo_app.obj
 0001:000249e0       ?onShowLoggedInUI@CSDKDemoApp@@UAEXW4LoggedIn_MeetingUI_type@@@Z 004259e0 f   sdk_demo_app.obj
 0001:00024bb0       ?onShowMoreMenuWindow@CSDKDemoApp@@UAEXHH@Z 00425bb0 f   sdk_demo_app.obj
 0001:00024be0       ?onShowParticipantWindow@CSDKDemoApp@@UAEXXZ 00425be0 f   sdk_demo_app.obj
 0001:00024c00       ?onShowSettingsUI@CSDKDemoApp@@UAEXW4SettingsUI_page@@@Z 00425c00 f   sdk_demo_app.obj
 0001:00024d00       ?onShowShareWindow@CSDKDemoApp@@UAEXXZ 00425d00 f   sdk_demo_app.obj
 0001:00024d20       ?onSwitchToJoinMeetingForLoginUserUI@CSDKDemoApp@@UAEXXZ 00425d20 f   sdk_demo_app.obj
 0001:00024e30       ?onSwitchToLoginUI@CSDKDemoApp@@UAEXW4SwitchToLoginUIType@@@Z 00425e30 f   sdk_demo_app.obj
 0001:00024fe0       ?onSwitchToScheduleMeetingUI@CSDKDemoApp@@UAEXXZ 00425fe0 f   sdk_demo_app.obj
 0001:000250f0       ??$_Copy_memmove@PAPAVIUserInfo@ZOOMSDK@@PAPAV12@@std@@YAPAPAVIUserInfo@ZOOMSDK@@PAPAV12@00@Z 004260f0 f i user_manager.obj
 0001:000250f0       ??$_Copy_memmove@PAPAVIVirtualBGImageInfo@ZOOMSDK@@PAPAV12@@std@@YAPAPAVIVirtualBGImageInfo@ZOOMSDK@@PAPAV12@00@Z 004260f0 f i settings_ui.obj
 0001:000250f0       ??$_Copy_memmove@PAUtagMONITORINFO@@PAU1@@std@@YAPAUtagMONITORINFO@@PAU1@00@Z 004260f0 f i sdk_demo_v2.obj
 0001:00025130       ??$_Emplace_back_with_unused_capacity@ABUtagMONITORINFO@@@?$vector@UtagMONITORINFO@@V?$allocator@UtagMONITORINFO@@@std@@@std@@AAEXABUtagMONITORINFO@@@Z 00426130 f i sdk_demo_v2.obj
 0001:000251c0       ??$_Emplace_reallocate@ABUtagMONITORINFO@@@?$vector@UtagMONITORINFO@@V?$allocator@UtagMONITORINFO@@@std@@@std@@QAEPAUtagMONITORINFO@@QAU2@ABU2@@Z 004261c0 f i sdk_demo_v2.obj
 0001:000253a0       ??$_Get_size_of_n@$0CI@@std@@YAII@Z 004263a0 f i sdk_demo_v2.obj
 0001:000253d0       ??$_Idl_distance@PAUtagMONITORINFO@@PAU1@@std@@YAHABQAUtagMONITORINFO@@0@Z 004263d0 f i sdk_demo_v2.obj
 0001:000253f0       ??$_Reallocate_for@V<lambda_9366063389c5f42a00a5088cf24e69de>@@PBD@?$basic_string@DU?$char_traits@D@std@@V?$allocator@D@2@@std@@AAEAAV01@IV<lambda_9366063389c5f42a00a5088cf24e69de>@@PBD@Z 004263f0 f i sdk_demo_v2.obj
 0001:000254d0       ??$_Uninitialized_move@PAUtagMONITORINFO@@PAU1@V?$allocator@UtagMONITORINFO@@@std@@@std@@YAPAUtagMONITORINFO@@QAU1@0PAU1@AAV?$allocator@UtagMONITORINFO@@@0@@Z 004264d0 f i sdk_demo_v2.obj
 0001:00025550       ??$construct@UtagMONITORINFO@@ABU1@@?$_Default_allocator_traits@V?$allocator@UtagMONITORINFO@@@std@@@std@@SAXAAV?$allocator@UtagMONITORINFO@@@1@QAUtagMONITORINFO@@ABU3@@Z 00426550 f i sdk_demo_v2.obj
 0001:00025590       ??$emplace_back@ABUtagMONITORINFO@@@?$vector@UtagMONITORINFO@@V?$allocator@UtagMONITORINFO@@@std@@@std@@QAEXABUtagMONITORINFO@@@Z 00426590 f i sdk_demo_v2.obj
 0001:000255f0       ??0?$basic_string@DU?$char_traits@D@std@@V?$allocator@D@2@@std@@QAE@QBD@Z 004265f0 f i sdk_demo_v2.obj
 0001:00025680       ??0Monitors@@QAE@XZ        00426680 f i sdk_demo_v2.obj
 0001:000256b0       ??0tagSplitScreenInfo@ZOOMSDK@@QAE@XZ 004266b0 f i sdk_demo_v2.obj
 0001:000256d0       ??1?$basic_string@DU?$char_traits@D@std@@V?$allocator@D@2@@std@@QAE@XZ 004266d0 f i sdk_demo_v2.obj
 0001:000256f0       ??1?$vector@UtagMONITORINFO@@V?$allocator@UtagMONITORINFO@@@std@@@std@@QAE@XZ 004266f0 f i sdk_demo_v2.obj
 0001:00025710       ??1Monitors@@QAE@XZ        00426710 f i sdk_demo_v2.obj
 0001:00025730       ??A?$vector@UtagMONITORINFO@@V?$allocator@UtagMONITORINFO@@@std@@@std@@QAEAAUtagMONITORINFO@@I@Z 00426730 f i sdk_demo_v2.obj
 0001:00025750       ??R<lambda_9366063389c5f42a00a5088cf24e69de>@@QBEXQADIQBD@Z 00426750 f i sdk_demo_v2.obj
 0001:00025790       ?MonitorEnum@Monitors@@SGHPAUHMONITOR__@@PAUHDC__@@PAUtagRECT@@J@Z 00426790 f i sdk_demo_v2.obj
 0001:000257e0       ?_Calculate_growth@?$basic_string@DU?$char_traits@D@std@@V?$allocator@D@2@@std@@ABEII@Z 004267e0 f i sdk_demo_v2.obj
 0001:00025860       ?_Calculate_growth@?$vector@UtagMONITORINFO@@V?$allocator@UtagMONITORINFO@@@std@@@std@@ABEII@Z 00426860 f i sdk_demo_v2.obj
 0001:000258b0       ?_Change_array@?$vector@UtagMONITORINFO@@V?$allocator@UtagMONITORINFO@@@std@@@std@@AAEXQAUtagMONITORINFO@@II@Z 004268b0 f i sdk_demo_v2.obj
 0001:00025950       ?_Destroy@?$vector@PAVIUserInfo@ZOOMSDK@@V?$allocator@PAVIUserInfo@ZOOMSDK@@@std@@@std@@AAEXPAPAVIUserInfo@ZOOMSDK@@0@Z 00426950 f i user_manager.obj
 0001:00025950       ?_Destroy@?$vector@UtagMONITORINFO@@V?$allocator@UtagMONITORINFO@@@std@@@std@@AAEXPAUtagMONITORINFO@@0@Z 00426950 f i sdk_demo_v2.obj
 0001:00025950       ?_Destroy@?$vector@PAVIVirtualBGImageInfo@ZOOMSDK@@V?$allocator@PAVIVirtualBGImageInfo@ZOOMSDK@@@std@@@std@@AAEXPAPAVIVirtualBGImageInfo@ZOOMSDK@@0@Z 00426950 f i settings_ui.obj
 0001:00025980       ?_Large_string_engaged@?$_String_val@U?$_Simple_types@D@std@@@std@@QBE_NXZ 00426980 f i sdk_demo_v2.obj
 0001:000259b0       ?_Myptr@?$_String_val@U?$_Simple_types@D@std@@@std@@QAEPADXZ 004269b0 f i sdk_demo_v2.obj
 0001:000259f0       ?_ThreadCheckSplitScreen@@YGKPAX@Z 004269f0 f   sdk_demo_v2.obj
 0001:00025c20       ?_Tidy@?$vector@UtagMONITORINFO@@V?$allocator@UtagMONITORINFO@@@std@@@std@@AAEXXZ 00426c20 f i sdk_demo_v2.obj
 0001:00025cd0       ?_Tidy_deallocate@?$basic_string@DU?$char_traits@D@std@@V?$allocator@D@2@@std@@AAEXXZ 00426cd0 f i sdk_demo_v2.obj
 0001:00025da0       ?_Tidy_init@?$basic_string@DU?$char_traits@D@std@@V?$allocator@D@2@@std@@AAEXXZ 00426da0 f i sdk_demo_v2.obj
 0001:00025df0       ?_Umove@?$vector@UtagMONITORINFO@@V?$allocator@UtagMONITORINFO@@@std@@@std@@AAEPAUtagMONITORINFO@@PAU3@00@Z 00426df0 f i sdk_demo_v2.obj
 0001:00025e20       ?_Umove_if_noexcept1@?$vector@UtagMONITORINFO@@V?$allocator@UtagMONITORINFO@@@std@@@std@@AAEXPAUtagMONITORINFO@@00U?$integral_constant@_N$00@2@@Z 00426e20 f i sdk_demo_v2.obj
 0001:00025e50       ?_Umove_if_noexcept@?$vector@UtagMONITORINFO@@V?$allocator@UtagMONITORINFO@@@std@@@std@@AAEXPAUtagMONITORINFO@@00@Z 00426e50 f i sdk_demo_v2.obj
 0001:00025e80       ?allocate@?$allocator@D@std@@QAEPADI@Z 00426e80 f i sdk_demo_v2.obj
 0001:00025eb0       ?allocate@?$allocator@UtagMONITORINFO@@@std@@QAEPAUtagMONITORINFO@@I@Z 00426eb0 f i sdk_demo_v2.obj
 0001:00025ee0       ?assign@?$basic_string@DU?$char_traits@D@std@@V?$allocator@D@2@@std@@QAEAAV12@QBD@Z 00426ee0 f i sdk_demo_v2.obj
 0001:00025f10       ?assign@?$basic_string@DU?$char_traits@D@std@@V?$allocator@D@2@@std@@QAEAAV12@QBDI@Z 00426f10 f i sdk_demo_v2.obj
 0001:00025fa0       ?assign@?$char_traits@D@std@@SAXAADABD@Z 00426fa0 f i sdk_demo_v2.obj
 0001:00025fb0       ?capacity@?$vector@UtagMONITORINFO@@V?$allocator@UtagMONITORINFO@@@std@@@std@@QBEIXZ 00426fb0 f i sdk_demo_v2.obj
 0001:00025fe0       ?copy@?$char_traits@D@std@@SAPADQADQBDI@Z 00426fe0 f i sdk_demo_v2.obj
 0001:00026000       ?deallocate@?$allocator@D@std@@QAEXQADI@Z 00427000 f i sdk_demo_v2.obj
 0001:00026020       ?deallocate@?$allocator@UtagMONITORINFO@@@std@@QAEXQAUtagMONITORINFO@@I@Z 00427020 f i sdk_demo_v2.obj
 0001:00026040       ?length@?$char_traits@D@std@@SAIQBD@Z 00427040 f i sdk_demo_v2.obj
 0001:00026080       ?max_size@?$_Default_allocator_traits@V?$allocator@D@std@@@std@@SAIABV?$allocator@D@2@@Z 00427080 f i sdk_demo_v2.obj
 0001:00026090       ?max_size@?$_Default_allocator_traits@V?$allocator@UtagMONITORINFO@@@std@@@std@@SAIABV?$allocator@UtagMONITORINFO@@@2@@Z 00427090 f i sdk_demo_v2.obj
 0001:000260a0       ?max_size@?$basic_string@DU?$char_traits@D@std@@V?$allocator@D@2@@std@@QBEIXZ 004270a0 f i sdk_demo_v2.obj
 0001:00026100       ?max_size@?$vector@UtagMONITORINFO@@V?$allocator@UtagMONITORINFO@@@std@@@std@@QBEIXZ 00427100 f i sdk_demo_v2.obj
 0001:00026140       ?move@?$char_traits@D@std@@SAPADQADQBDI@Z 00427140 f i sdk_demo_v2.obj
 0001:00026160       ?push_back@?$vector@UtagMONITORINFO@@V?$allocator@UtagMONITORINFO@@@std@@@std@@QAEXABUtagMONITORINFO@@@Z 00427160 f i sdk_demo_v2.obj
 0001:00026180       ?size@?$vector@UtagMONITORINFO@@V?$allocator@UtagMONITORINFO@@@std@@@std@@QBEIXZ 00427180 f i sdk_demo_v2.obj
 0001:000261b0       _WinMain@16                004271b0 f   sdk_demo_v2.obj
 0001:00026270       ??0CAuthSDKUIGroup@@QAE@XZ 00427270 f   sdk_init_auth_ui.obj
 0001:00026320       ??0CAuthSDKWorkFlowUIEvent@@QAE@XZ 00427320 f i sdk_init_auth_ui.obj
 0001:00026340       ??0CInitSDKUIGroup@@QAE@XZ 00427340 f   sdk_init_auth_ui.obj
 0001:000263a0       ??0CInitSDKWorkFlowUIEvent@@QAE@XZ 004273a0 f i sdk_init_auth_ui.obj
 0001:000263c0       ??0CSDKInitAuthUIMgr@@QAE@XZ 004273c0 f   sdk_init_auth_ui.obj
 0001:00026480       ??0?$_Tree_unchecked_const_iterator@V?$_Tree_val@U?$_Tree_simple_types@PAVIPreMeetingServiceEvent@ZOOMSDK@@@std@@@std@@U_Iterator_base0@2@@std@@QAE@XZ 00427480 f i sdk_util.obj
 0001:00026480       ??0?$_Tree_unchecked_const_iterator@V?$_Tree_val@U?$_Tree_simple_types@PAVIMeetingVideoCtrlEvent@ZOOMSDK@@@std@@@std@@U_Iterator_base0@2@@std@@QAE@XZ 00427480 f i sdk_util.obj
 0001:00026480       ??0?$_Tree_unchecked_const_iterator@V?$_Tree_val@U?$_Tree_simple_types@PAVIMeetingChatCtrlEvent@ZOOMSDK@@@std@@@std@@U_Iterator_base0@2@@std@@QAE@XZ 00427480 f i sdk_util.obj
 0001:00026480       ??0?$_Tree_unchecked_const_iterator@V?$_Tree_val@U?$_Tree_simple_types@PAVIMeetingServiceEvent@ZOOMSDK@@@std@@@std@@U_Iterator_base0@2@@std@@QAE@XZ 00427480 f i sdk_util.obj
 0001:00026480       ??0tagAuthContext@ZOOMSDK@@QAE@XZ 00427480 f i sdk_init_auth_ui.obj
 0001:00026480       ??0?$_Tree_unchecked_const_iterator@V?$_Tree_val@U?$_Tree_simple_types@PAVIMeetingParticipantsCtrlEvent@ZOOMSDK@@@std@@@std@@U_Iterator_base0@2@@std@@QAE@XZ 00427480 f i sdk_util.obj
 0001:00026480       ??0?$_Tree_unchecked_const_iterator@V?$_Tree_val@U?$_Tree_simple_types@PAVIClosedCaptionControllerEvent@ZOOMSDK@@@std@@@std@@U_Iterator_base0@2@@std@@QAE@XZ 00427480 f i sdk_util.obj
 0001:00026480       ??0?$_Tree_unchecked_const_iterator@V?$_Tree_val@U?$_Tree_simple_types@PAVIAuthServiceEvent@ZOOMSDK@@@std@@@std@@U_Iterator_base0@2@@std@@QAE@XZ 00427480 f i sdk_util.obj
 0001:00026480       ??0?$_Tree_unchecked_const_iterator@V?$_Tree_val@U?$_Tree_simple_types@U?$pair@$$CBIPAVIUserInfo@ZOOMSDK@@@std@@@std@@@std@@U_Iterator_base0@2@@std@@QAE@XZ 00427480 f i user_manager.obj
 0001:00026480       ??0?$_Tree_unchecked_const_iterator@V?$_Tree_val@U?$_Tree_simple_types@PAVISDKInMeetingServiceMgrEvent@@@std@@@std@@U_Iterator_base0@2@@std@@QAE@XZ 00427480 f i sdk_util.obj
 0001:000264a0       ??0tagConfigurableOptions@ZOOMSDK@@QAE@XZ 004274a0 f i sdk_init_auth_ui.obj
 0001:000264d0       ??0tagInitParam@ZOOMSDK@@QAE@XZ 004274d0 f i sdk_init_auth_ui.obj
 0001:00026550       ??1CAuthSDKUIGroup@@UAE@XZ 00427550 f   sdk_init_auth_ui.obj
 0001:000265b0       ??1CInitSDKUIGroup@@UAE@XZ 004275b0 f   sdk_init_auth_ui.obj
 0001:00026610       ??1CSDKInitAuthUIMgr@@UAE@XZ 00427610 f   sdk_init_auth_ui.obj
 0001:00026680       ??_GCAuthSDKUIGroup@@UAEPAXI@Z 00427680 f i sdk_init_auth_ui.obj
 0001:00026680       ??_ECAuthSDKUIGroup@@UAEPAXI@Z 00427680 f i sdk_init_auth_ui.obj
 0001:000266b0       ??_ECInitSDKUIGroup@@UAEPAXI@Z 004276b0 f i sdk_init_auth_ui.obj
 0001:000266b0       ??_GCInitSDKUIGroup@@UAEPAXI@Z 004276b0 f i sdk_init_auth_ui.obj
 0001:000266e0       ??_ECSDKInitAuthUIMgr@@UAEPAXI@Z 004276e0 f i sdk_init_auth_ui.obj
 0001:000266e0       ??_GCSDKInitAuthUIMgr@@UAEPAXI@Z 004276e0 f i sdk_init_auth_ui.obj
 0001:00026720       ?DoAuth@CAuthSDKUIGroup@@QAEXXZ 00427720 f   sdk_init_auth_ui.obj
 0001:00026760       ?DoAuthBtnClick@CAuthSDKUIGroup@@QAEXXZ 00427760 f   sdk_init_auth_ui.obj
 0001:00026930       ?DoInitBtnClick@CInitSDKUIGroup@@QAEXXZ 00427930 f   sdk_init_auth_ui.obj
 0001:00026ae0       ?DoJWTTokenBtnClick@CAuthSDKUIGroup@@QAEXXZ 00427ae0 f   sdk_init_auth_ui.obj
 0001:00026c20       ?DoUseJWTTokenChkClick@CAuthSDKUIGroup@@QAEXXZ 00427c20 f   sdk_init_auth_ui.obj
 0001:00026ea0       ?GetAppEvent@CSDKInitAuthUIMgr@@QAEPAVCSDKDemoAppEvent@@XZ 00427ea0 f   sdk_init_auth_ui.obj
 0001:00026ec0       ?GetSkinRes@CSDKInitAuthUIMgr@@UAEIXZ 00427ec0 f i sdk_init_auth_ui.obj
 0001:00026ed0       ?HandleMessage@CSDKInitAuthUIMgr@@UAEJIIJ@Z 00427ed0 f   sdk_init_auth_ui.obj
 0001:000270d0       ?InitWindow@CAuthSDKUIGroup@@QAEXAAVCPaintManagerUI@DuiLib@@PAVCSDKInitAuthUIMgr@@@Z 004280d0 f   sdk_init_auth_ui.obj
 0001:00027160       ?InitWindow@CInitSDKUIGroup@@QAEXAAVCPaintManagerUI@DuiLib@@PAVCSDKInitAuthUIMgr@@@Z 00428160 f   sdk_init_auth_ui.obj
 0001:000271e0       ?InitWindow@CSDKInitAuthUIMgr@@UAEXXZ 004281e0 f   sdk_init_auth_ui.obj
 0001:000273b0       ?Notify@CAuthSDKUIGroup@@QAEXAAUtagTNotifyUI@DuiLib@@@Z 004283b0 f   sdk_init_auth_ui.obj
 0001:00027410       ?Notify@CInitSDKUIGroup@@QAEXAAUtagTNotifyUI@DuiLib@@@Z 00428410 f   sdk_init_auth_ui.obj
 0001:00027450       ?Notify@CSDKInitAuthUIMgr@@UAEXAAUtagTNotifyUI@DuiLib@@@Z 00428450 f   sdk_init_auth_ui.obj
 0001:00027490       ?OnClose@CSDKInitAuthUIMgr@@QAEJIIJAAH@Z 00428490 f   sdk_init_auth_ui.obj
 0001:000274d0       ?OnDestroy@CSDKInitAuthUIMgr@@QAEJIIJAAH@Z 004284d0 f   sdk_init_auth_ui.obj
 0001:00027500       ?SetCurrentPage@CSDKInitAuthUIMgr@@QAEXPAVCVerticalLayoutUI@DuiLib@@@Z 00428500 f i sdk_init_auth_ui.obj
 0001:00027520       ?SetEvent@CSDKInitAuthUIMgr@@QAEXPAVCSDKDemoAppEvent@@@Z 00428520 f   sdk_init_auth_ui.obj
 0001:00027540       ?Show@CAuthSDKUIGroup@@QAEXXZ 00428540 f   sdk_init_auth_ui.obj
 0001:00027590       ?Show@CInitSDKUIGroup@@QAEXXZ 00428590 f   sdk_init_auth_ui.obj
 0001:000275e0       ?ShowErrorMessage@CSDKInitAuthUIMgr@@QAEXPB_W@Z 004285e0 f   sdk_init_auth_ui.obj
 0001:00027610       ?SwitchToAuthPage@CSDKInitAuthUIMgr@@QAEX_N@Z 00428610 f   sdk_init_auth_ui.obj
 0001:00027640       ?SwitchToWaitingPage@CSDKInitAuthUIMgr@@QAEXPB_W_N@Z 00428640 f   sdk_init_auth_ui.obj
 0001:00027730       ?UninitWindow@CAuthSDKUIGroup@@QAEXXZ 00428730 f   sdk_init_auth_ui.obj
 0001:00027760       ?UninitWindow@CInitSDKUIGroup@@QAEXXZ 00428760 f   sdk_init_auth_ui.obj
 0001:00027790       ?onSDKAuthed@CAuthSDKUIGroup@@UAEXW4AuthResult@ZOOMSDK@@@Z 00428790 f   sdk_init_auth_ui.obj
 0001:00027810       ?onSDKInited@CInitSDKUIGroup@@UAEXW4SDKError@ZOOMSDK@@@Z 00428810 f   sdk_init_auth_ui.obj
 0001:000278c0       ??$?0AAV?$_Tree_const_iterator@V?$_Tree_val@U?$_Tree_simple_types@PAVIPreMeetingServiceEvent@ZOOMSDK@@@std@@@std@@@std@@AAV01@$0A@@?$pair@V?$_Tree_const_iterator@V?$_Tree_val@U?$_Tree_simple_types@PAVIPreMeetingServiceEvent@ZOOMSDK@@@std@@@std@@@std@@V12@@std@@QAE@AAV?$_Tree_const_iterator@V?$_Tree_val@U?$_Tree_simple_types@PAVIPreMeetingServiceEvent@ZOOMSDK@@@std@@@std@@@1@0@Z 004288c0 f i sdk_util.obj
 0001:000278c0       ??$?0AAV?$_Tree_const_iterator@V?$_Tree_val@U?$_Tree_simple_types@PAVIMeetingParticipantsCtrlEvent@ZOOMSDK@@@std@@@std@@@std@@AAV01@$0A@@?$pair@V?$_Tree_const_iterator@V?$_Tree_val@U?$_Tree_simple_types@PAVIMeetingParticipantsCtrlEvent@ZOOMSDK@@@std@@@std@@@std@@V12@@std@@QAE@AAV?$_Tree_const_iterator@V?$_Tree_val@U?$_Tree_simple_types@PAVIMeetingParticipantsCtrlEvent@ZOOMSDK@@@std@@@std@@@1@0@Z 004288c0 f i sdk_util.obj
 0001:000278c0       ??$?0AAV?$_Tree_const_iterator@V?$_Tree_val@U?$_Tree_simple_types@PAVISDKInMeetingServiceMgrEvent@@@std@@@std@@@std@@AAV01@$0A@@?$pair@V?$_Tree_const_iterator@V?$_Tree_val@U?$_Tree_simple_types@PAVISDKInMeetingServiceMgrEvent@@@std@@@std@@@std@@V12@@std@@QAE@AAV?$_Tree_const_iterator@V?$_Tree_val@U?$_Tree_simple_types@PAVISDKInMeetingServiceMgrEvent@@@std@@@std@@@1@0@Z 004288c0 f i sdk_util.obj
 0001:000278c0       ??$?0AAV?$_Tree_const_iterator@V?$_Tree_val@U?$_Tree_simple_types@PAVIClosedCaptionControllerEvent@ZOOMSDK@@@std@@@std@@@std@@AAV01@$0A@@?$pair@V?$_Tree_const_iterator@V?$_Tree_val@U?$_Tree_simple_types@PAVIClosedCaptionControllerEvent@ZOOMSDK@@@std@@@std@@@std@@V12@@std@@QAE@AAV?$_Tree_const_iterator@V?$_Tree_val@U?$_Tree_simple_types@PAVIClosedCaptionControllerEvent@ZOOMSDK@@@std@@@std@@@1@0@Z 004288c0 f i sdk_util.obj
 0001:000278c0       ??$?0AAV?$_Tree_const_iterator@V?$_Tree_val@U?$_Tree_simple_types@PAVIMeetingChatCtrlEvent@ZOOMSDK@@@std@@@std@@@std@@AAV01@$0A@@?$pair@V?$_Tree_const_iterator@V?$_Tree_val@U?$_Tree_simple_types@PAVIMeetingChatCtrlEvent@ZOOMSDK@@@std@@@std@@@std@@V12@@std@@QAE@AAV?$_Tree_const_iterator@V?$_Tree_val@U?$_Tree_simple_types@PAVIMeetingChatCtrlEvent@ZOOMSDK@@@std@@@std@@@1@0@Z 004288c0 f i sdk_util.obj
 0001:000278c0       ??$?0AAV?$_Tree_const_iterator@V?$_Tree_val@U?$_Tree_simple_types@PAVIMeetingServiceEvent@ZOOMSDK@@@std@@@std@@@std@@AAV01@$0A@@?$pair@V?$_Tree_const_iterator@V?$_Tree_val@U?$_Tree_simple_types@PAVIMeetingServiceEvent@ZOOMSDK@@@std@@@std@@@std@@V12@@std@@QAE@AAV?$_Tree_const_iterator@V?$_Tree_val@U?$_Tree_simple_types@PAVIMeetingServiceEvent@ZOOMSDK@@@std@@@std@@@1@0@Z 004288c0 f i sdk_util.obj
 0001:000278c0       ??$?0AAV?$_Tree_const_iterator@V?$_Tree_val@U?$_Tree_simple_types@PAVIAuthServiceEvent@ZOOMSDK@@@std@@@std@@@std@@AAV01@$0A@@?$pair@V?$_Tree_const_iterator@V?$_Tree_val@U?$_Tree_simple_types@PAVIAuthServiceEvent@ZOOMSDK@@@std@@@std@@@std@@V12@@std@@QAE@AAV?$_Tree_const_iterator@V?$_Tree_val@U?$_Tree_simple_types@PAVIAuthServiceEvent@ZOOMSDK@@@std@@@std@@@1@0@Z 004288c0 f i sdk_util.obj
 0001:00027900       ??$?0AAV?$_Tree_const_iterator@V?$_Tree_val@U?$_Tree_simple_types@PAVIAuthServiceEvent@ZOOMSDK@@@std@@@std@@@std@@_N$0A@@?$pair@V?$_Tree_const_iterator@V?$_Tree_val@U?$_Tree_simple_types@PAVIAuthServiceEvent@ZOOMSDK@@@std@@@std@@@std@@_N@std@@QAE@AAV?$_Tree_const_iterator@V?$_Tree_val@U?$_Tree_simple_types@PAVIAuthServiceEvent@ZOOMSDK@@@std@@@std@@@1@$$QA_N@Z 00428900 f i sdk_util.obj
 0001:00027900       ??$?0AAV?$_Tree_const_iterator@V?$_Tree_val@U?$_Tree_simple_types@PAVIPreMeetingServiceEvent@ZOOMSDK@@@std@@@std@@@std@@_N$0A@@?$pair@V?$_Tree_const_iterator@V?$_Tree_val@U?$_Tree_simple_types@PAVIPreMeetingServiceEvent@ZOOMSDK@@@std@@@std@@@std@@_N@std@@QAE@AAV?$_Tree_const_iterator@V?$_Tree_val@U?$_Tree_simple_types@PAVIPreMeetingServiceEvent@ZOOMSDK@@@std@@@std@@@1@$$QA_N@Z 00428900 f i sdk_util.obj
 0001:00027900       ??$?0V?$_Tree_const_iterator@V?$_Tree_val@U?$_Tree_simple_types@PAVIAuthServiceEvent@ZOOMSDK@@@std@@@std@@@std@@_N$0A@@?$pair@V?$_Tree_const_iterator@V?$_Tree_val@U?$_Tree_simple_types@PAVIAuthServiceEvent@ZOOMSDK@@@std@@@std@@@std@@_N@std@@QAE@$$QAV?$_Tree_const_iterator@V?$_Tree_val@U?$_Tree_simple_types@PAVIAuthServiceEvent@ZOOMSDK@@@std@@@std@@@1@$$QA_N@Z 00428900 f i sdk_util.obj
 0001:00027900       ??$?0V?$_Tree_const_iterator@V?$_Tree_val@U?$_Tree_simple_types@PAVIClosedCaptionControllerEvent@ZOOMSDK@@@std@@@std@@@std@@_N$0A@@?$pair@V?$_Tree_const_iterator@V?$_Tree_val@U?$_Tree_simple_types@PAVIClosedCaptionControllerEvent@ZOOMSDK@@@std@@@std@@@std@@_N@std@@QAE@$$QAV?$_Tree_const_iterator@V?$_Tree_val@U?$_Tree_simple_types@PAVIClosedCaptionControllerEvent@ZOOMSDK@@@std@@@std@@@1@$$QA_N@Z 00428900 f i sdk_util.obj
 0001:00027900       ??$?0AAV?$_Tree_const_iterator@V?$_Tree_val@U?$_Tree_simple_types@PAVIMeetingServiceEvent@ZOOMSDK@@@std@@@std@@@std@@_N$0A@@?$pair@V?$_Tree_const_iterator@V?$_Tree_val@U?$_Tree_simple_types@PAVIMeetingServiceEvent@ZOOMSDK@@@std@@@std@@@std@@_N@std@@QAE@AAV?$_Tree_const_iterator@V?$_Tree_val@U?$_Tree_simple_types@PAVIMeetingServiceEvent@ZOOMSDK@@@std@@@std@@@1@$$QA_N@Z 00428900 f i sdk_util.obj
 0001:00027900       ??$?0AAV?$_Tree_const_iterator@V?$_Tree_val@U?$_Tree_simple_types@PAVIClosedCaptionControllerEvent@ZOOMSDK@@@std@@@std@@@std@@_N$0A@@?$pair@V?$_Tree_const_iterator@V?$_Tree_val@U?$_Tree_simple_types@PAVIClosedCaptionControllerEvent@ZOOMSDK@@@std@@@std@@@std@@_N@std@@QAE@AAV?$_Tree_const_iterator@V?$_Tree_val@U?$_Tree_simple_types@PAVIClosedCaptionControllerEvent@ZOOMSDK@@@std@@@std@@@1@$$QA_N@Z 00428900 f i sdk_util.obj
 0001:00027900       ??$?0AAV?$_Tree_iterator@V?$_Tree_val@U?$_Tree_simple_types@U?$pair@$$CBIPAVIUserInfo@ZOOMSDK@@@std@@@std@@@std@@@std@@_N$0A@@?$pair@V?$_Tree_iterator@V?$_Tree_val@U?$_Tree_simple_types@U?$pair@$$CBIPAVIUserInfo@ZOOMSDK@@@std@@@std@@@std@@@std@@_N@std@@QAE@AAV?$_Tree_iterator@V?$_Tree_val@U?$_Tree_simple_types@U?$pair@$$CBIPAVIUserInfo@ZOOMSDK@@@std@@@std@@@std@@@1@$$QA_N@Z 00428900 f i user_manager.obj
 0001:00027900       ??$?0V?$_Tree_const_iterator@V?$_Tree_val@U?$_Tree_simple_types@PAVIMeetingParticipantsCtrlEvent@ZOOMSDK@@@std@@@std@@@std@@_N$0A@@?$pair@V?$_Tree_const_iterator@V?$_Tree_val@U?$_Tree_simple_types@PAVIMeetingParticipantsCtrlEvent@ZOOMSDK@@@std@@@std@@@std@@_N@std@@QAE@$$QAV?$_Tree_const_iterator@V?$_Tree_val@U?$_Tree_simple_types@PAVIMeetingParticipantsCtrlEvent@ZOOMSDK@@@std@@@std@@@1@$$QA_N@Z 00428900 f i sdk_util.obj
 0001:00027900       ??$?0V?$_Tree_const_iterator@V?$_Tree_val@U?$_Tree_simple_types@PAVIMeetingVideoCtrlEvent@ZOOMSDK@@@std@@@std@@@std@@_N$0A@@?$pair@V?$_Tree_const_iterator@V?$_Tree_val@U?$_Tree_simple_types@PAVIMeetingVideoCtrlEvent@ZOOMSDK@@@std@@@std@@@std@@_N@std@@QAE@$$QAV?$_Tree_const_iterator@V?$_Tree_val@U?$_Tree_simple_types@PAVIMeetingVideoCtrlEvent@ZOOMSDK@@@std@@@std@@@1@$$QA_N@Z 00428900 f i sdk_util.obj
 0001:00027900       ??$?0V?$_Tree_iterator@V?$_Tree_val@U?$_Tree_simple_types@U?$pair@$$CBIPAVIUserInfo@ZOOMSDK@@@std@@@std@@@std@@@std@@_N$0A@@?$pair@V?$_Tree_iterator@V?$_Tree_val@U?$_Tree_simple_types@U?$pair@$$CBIPAVIUserInfo@ZOOMSDK@@@std@@@std@@@std@@@std@@_N@std@@QAE@$$QAV?$_Tree_iterator@V?$_Tree_val@U?$_Tree_simple_types@U?$pair@$$CBIPAVIUserInfo@ZOOMSDK@@@std@@@std@@@std@@@1@$$QA_N@Z 00428900 f i user_manager.obj
 0001:00027900       ??$?0AAV?$_Tree_const_iterator@V?$_Tree_val@U?$_Tree_simple_types@PAVIMeetingChatCtrlEvent@ZOOMSDK@@@std@@@std@@@std@@_N$0A@@?$pair@V?$_Tree_const_iterator@V?$_Tree_val@U?$_Tree_simple_types@PAVIMeetingChatCtrlEvent@ZOOMSDK@@@std@@@std@@@std@@_N@std@@QAE@AAV?$_Tree_const_iterator@V?$_Tree_val@U?$_Tree_simple_types@PAVIMeetingChatCtrlEvent@ZOOMSDK@@@std@@@std@@@1@$$QA_N@Z 00428900 f i sdk_util.obj
 0001:00027900       ??$?0V?$_Tree_const_iterator@V?$_Tree_val@U?$_Tree_simple_types@PAVIPreMeetingServiceEvent@ZOOMSDK@@@std@@@std@@@std@@_N$0A@@?$pair@V?$_Tree_const_iterator@V?$_Tree_val@U?$_Tree_simple_types@PAVIPreMeetingServiceEvent@ZOOMSDK@@@std@@@std@@@std@@_N@std@@QAE@$$QAV?$_Tree_const_iterator@V?$_Tree_val@U?$_Tree_simple_types@PAVIPreMeetingServiceEvent@ZOOMSDK@@@std@@@std@@@1@$$QA_N@Z 00428900 f i sdk_util.obj
 0001:00027900       ??$?0AAV?$_Tree_const_iterator@V?$_Tree_val@U?$_Tree_simple_types@PAVIMeetingParticipantsCtrlEvent@ZOOMSDK@@@std@@@std@@@std@@_N$0A@@?$pair@V?$_Tree_const_iterator@V?$_Tree_val@U?$_Tree_simple_types@PAVIMeetingParticipantsCtrlEvent@ZOOMSDK@@@std@@@std@@@std@@_N@std@@QAE@AAV?$_Tree_const_iterator@V?$_Tree_val@U?$_Tree_simple_types@PAVIMeetingParticipantsCtrlEvent@ZOOMSDK@@@std@@@std@@@1@$$QA_N@Z 00428900 f i sdk_util.obj
 0001:00027900       ??$?0V?$_Tree_const_iterator@V?$_Tree_val@U?$_Tree_simple_types@PAVIMeetingServiceEvent@ZOOMSDK@@@std@@@std@@@std@@_N$0A@@?$pair@V?$_Tree_const_iterator@V?$_Tree_val@U?$_Tree_simple_types@PAVIMeetingServiceEvent@ZOOMSDK@@@std@@@std@@@std@@_N@std@@QAE@$$QAV?$_Tree_const_iterator@V?$_Tree_val@U?$_Tree_simple_types@PAVIMeetingServiceEvent@ZOOMSDK@@@std@@@std@@@1@$$QA_N@Z 00428900 f i sdk_util.obj
 0001:00027900       ??$?0V?$_Tree_const_iterator@V?$_Tree_val@U?$_Tree_simple_types@PAVIMeetingChatCtrlEvent@ZOOMSDK@@@std@@@std@@@std@@_N$0A@@?$pair@V?$_Tree_const_iterator@V?$_Tree_val@U?$_Tree_simple_types@PAVIMeetingChatCtrlEvent@ZOOMSDK@@@std@@@std@@@std@@_N@std@@QAE@$$QAV?$_Tree_const_iterator@V?$_Tree_val@U?$_Tree_simple_types@PAVIMeetingChatCtrlEvent@ZOOMSDK@@@std@@@std@@@1@$$QA_N@Z 00428900 f i sdk_util.obj
 0001:00027900       ??$?0AAV?$_Tree_const_iterator@V?$_Tree_val@U?$_Tree_simple_types@PAVIMeetingVideoCtrlEvent@ZOOMSDK@@@std@@@std@@@std@@_N$0A@@?$pair@V?$_Tree_const_iterator@V?$_Tree_val@U?$_Tree_simple_types@PAVIMeetingVideoCtrlEvent@ZOOMSDK@@@std@@@std@@@std@@_N@std@@QAE@AAV?$_Tree_const_iterator@V?$_Tree_val@U?$_Tree_simple_types@PAVIMeetingVideoCtrlEvent@ZOOMSDK@@@std@@@std@@@1@$$QA_N@Z 00428900 f i sdk_util.obj
 0001:00027900       ??$?0V?$_Tree_const_iterator@V?$_Tree_val@U?$_Tree_simple_types@PAVISDKInMeetingServiceMgrEvent@@@std@@@std@@@std@@_N$0A@@?$pair@V?$_Tree_const_iterator@V?$_Tree_val@U?$_Tree_simple_types@PAVISDKInMeetingServiceMgrEvent@@@std@@@std@@@std@@_N@std@@QAE@$$QAV?$_Tree_const_iterator@V?$_Tree_val@U?$_Tree_simple_types@PAVISDKInMeetingServiceMgrEvent@@@std@@@std@@@1@$$QA_N@Z 00428900 f i sdk_util.obj
 0001:00027900       ??$?0AAV?$_Tree_const_iterator@V?$_Tree_val@U?$_Tree_simple_types@PAVISDKInMeetingServiceMgrEvent@@@std@@@std@@@std@@_N$0A@@?$pair@V?$_Tree_const_iterator@V?$_Tree_val@U?$_Tree_simple_types@PAVISDKInMeetingServiceMgrEvent@@@std@@@std@@@std@@_N@std@@QAE@AAV?$_Tree_const_iterator@V?$_Tree_val@U?$_Tree_simple_types@PAVISDKInMeetingServiceMgrEvent@@@std@@@std@@@1@$$QA_N@Z 00428900 f i sdk_util.obj
 0001:00027940       ??$?0ABU?$less@PAVIMeetingParticipantsCtrlEvent@ZOOMSDK@@@std@@U_Zero_then_variadic_args_t@1@@?$_Compressed_pair@U?$less@PAVIMeetingParticipantsCtrlEvent@ZOOMSDK@@@std@@V?$_Compressed_pair@V?$allocator@U?$_Tree_node@PAVIMeetingParticipantsCtrlEvent@ZOOMSDK@@PAX@std@@@std@@V?$_Tree_val@U?$_Tree_simple_types@PAVIMeetingParticipantsCtrlEvent@ZOOMSDK@@@std@@@2@$00@2@$00@std@@QAE@U_One_then_variadic_args_t@1@ABU?$less@PAVIMeetingParticipantsCtrlEvent@ZOOMSDK@@@1@$$QAU_Zero_then_variadic_args_t@1@@Z 00428940 f i sdk_util.obj
 0001:00027940       ??$?0ABU?$less@PAVIMeetingServiceEvent@ZOOMSDK@@@std@@U_Zero_then_variadic_args_t@1@@?$_Compressed_pair@U?$less@PAVIMeetingServiceEvent@ZOOMSDK@@@std@@V?$_Compressed_pair@V?$allocator@U?$_Tree_node@PAVIMeetingServiceEvent@ZOOMSDK@@PAX@std@@@std@@V?$_Tree_val@U?$_Tree_simple_types@PAVIMeetingServiceEvent@ZOOMSDK@@@std@@@2@$00@2@$00@std@@QAE@U_One_then_variadic_args_t@1@ABU?$less@PAVIMeetingServiceEvent@ZOOMSDK@@@1@$$QAU_Zero_then_variadic_args_t@1@@Z 00428940 f i sdk_util.obj
 0001:00027940       ??$?0ABU?$less@I@std@@U_Zero_then_variadic_args_t@1@@?$_Compressed_pair@U?$less@I@std@@V?$_Compressed_pair@V?$allocator@U?$_Tree_node@U?$pair@$$CBIPAVIUserInfo@ZOOMSDK@@@std@@PAX@std@@@std@@V?$_Tree_val@U?$_Tree_simple_types@U?$pair@$$CBIPAVIUserInfo@ZOOMSDK@@@std@@@std@@@2@$00@2@$00@std@@QAE@U_One_then_variadic_args_t@1@ABU?$less@I@1@$$QAU_Zero_then_variadic_args_t@1@@Z 00428940 f i user_manager.obj
 0001:00027940       ??$?0ABU?$less@PAVIMeetingChatCtrlEvent@ZOOMSDK@@@std@@U_Zero_then_variadic_args_t@1@@?$_Compressed_pair@U?$less@PAVIMeetingChatCtrlEvent@ZOOMSDK@@@std@@V?$_Compressed_pair@V?$allocator@U?$_Tree_node@PAVIMeetingChatCtrlEvent@ZOOMSDK@@PAX@std@@@std@@V?$_Tree_val@U?$_Tree_simple_types@PAVIMeetingChatCtrlEvent@ZOOMSDK@@@std@@@2@$00@2@$00@std@@QAE@U_One_then_variadic_args_t@1@ABU?$less@PAVIMeetingChatCtrlEvent@ZOOMSDK@@@1@$$QAU_Zero_then_variadic_args_t@1@@Z 00428940 f i sdk_util.obj
 0001:00027940       ??$?0ABU?$less@PAVISDKInMeetingServiceMgrEvent@@@std@@U_Zero_then_variadic_args_t@1@@?$_Compressed_pair@U?$less@PAVISDKInMeetingServiceMgrEvent@@@std@@V?$_Compressed_pair@V?$allocator@U?$_Tree_node@PAVISDKInMeetingServiceMgrEvent@@PAX@std@@@std@@V?$_Tree_val@U?$_Tree_simple_types@PAVISDKInMeetingServiceMgrEvent@@@std@@@2@$00@2@$00@std@@QAE@U_One_then_variadic_args_t@1@ABU?$less@PAVISDKInMeetingServiceMgrEvent@@@1@$$QAU_Zero_then_variadic_args_t@1@@Z 00428940 f i sdk_util.obj
 0001:00027940       ??$?0ABU?$less@PAVIPreMeetingServiceEvent@ZOOMSDK@@@std@@U_Zero_then_variadic_args_t@1@@?$_Compressed_pair@U?$less@PAVIPreMeetingServiceEvent@ZOOMSDK@@@std@@V?$_Compressed_pair@V?$allocator@U?$_Tree_node@PAVIPreMeetingServiceEvent@ZOOMSDK@@PAX@std@@@std@@V?$_Tree_val@U?$_Tree_simple_types@PAVIPreMeetingServiceEvent@ZOOMSDK@@@std@@@2@$00@2@$00@std@@QAE@U_One_then_variadic_args_t@1@ABU?$less@PAVIPreMeetingServiceEvent@ZOOMSDK@@@1@$$QAU_Zero_then_variadic_args_t@1@@Z 00428940 f i sdk_util.obj
 0001:00027940       ??$?0ABU?$less@PAVIClosedCaptionControllerEvent@ZOOMSDK@@@std@@U_Zero_then_variadic_args_t@1@@?$_Compressed_pair@U?$less@PAVIClosedCaptionControllerEvent@ZOOMSDK@@@std@@V?$_Compressed_pair@V?$allocator@U?$_Tree_node@PAVIClosedCaptionControllerEvent@ZOOMSDK@@PAX@std@@@std@@V?$_Tree_val@U?$_Tree_simple_types@PAVIClosedCaptionControllerEvent@ZOOMSDK@@@std@@@2@$00@2@$00@std@@QAE@U_One_then_variadic_args_t@1@ABU?$less@PAVIClosedCaptionControllerEvent@ZOOMSDK@@@1@$$QAU_Zero_then_variadic_args_t@1@@Z 00428940 f i sdk_util.obj
 0001:00027940       ??$?0ABU?$less@PAVIMeetingVideoCtrlEvent@ZOOMSDK@@@std@@U_Zero_then_variadic_args_t@1@@?$_Compressed_pair@U?$less@PAVIMeetingVideoCtrlEvent@ZOOMSDK@@@std@@V?$_Compressed_pair@V?$allocator@U?$_Tree_node@PAVIMeetingVideoCtrlEvent@ZOOMSDK@@PAX@std@@@std@@V?$_Tree_val@U?$_Tree_simple_types@PAVIMeetingVideoCtrlEvent@ZOOMSDK@@@std@@@2@$00@2@$00@std@@QAE@U_One_then_variadic_args_t@1@ABU?$less@PAVIMeetingVideoCtrlEvent@ZOOMSDK@@@1@$$QAU_Zero_then_variadic_args_t@1@@Z 00428940 f i sdk_util.obj
 0001:00027940       ??$?0ABU?$less@PAVIAuthServiceEvent@ZOOMSDK@@@std@@U_Zero_then_variadic_args_t@1@@?$_Compressed_pair@U?$less@PAVIAuthServiceEvent@ZOOMSDK@@@std@@V?$_Compressed_pair@V?$allocator@U?$_Tree_node@PAVIAuthServiceEvent@ZOOMSDK@@PAX@std@@@std@@V?$_Tree_val@U?$_Tree_simple_types@PAVIAuthServiceEvent@ZOOMSDK@@@std@@@2@$00@2@$00@std@@QAE@U_One_then_variadic_args_t@1@ABU?$less@PAVIAuthServiceEvent@ZOOMSDK@@@1@$$QAU_Zero_then_variadic_args_t@1@@Z 00428940 f i sdk_util.obj
 0001:00027980       ??$_Buy_if_not_node@AAPAVIPreMeetingServiceEvent@ZOOMSDK@@@?$_Tree@V?$_Tset_traits@PAVIPreMeetingServiceEvent@ZOOMSDK@@U?$less@PAVIPreMeetingServiceEvent@ZOOMSDK@@@std@@V?$allocator@PAVIPreMeetingServiceEvent@ZOOMSDK@@@4@$0A@@std@@@std@@IAEPAU?$_Tree_node@PAVIPreMeetingServiceEvent@ZOOMSDK@@PAX@1@PAU21@AAPAVIPreMeetingServiceEvent@ZOOMSDK@@@Z 00428980 f i sdk_util.obj
 0001:00027980       ??$_Buy_if_not_node@AAPAVIMeetingVideoCtrlEvent@ZOOMSDK@@@?$_Tree@V?$_Tset_traits@PAVIMeetingVideoCtrlEvent@ZOOMSDK@@U?$less@PAVIMeetingVideoCtrlEvent@ZOOMSDK@@@std@@V?$allocator@PAVIMeetingVideoCtrlEvent@ZOOMSDK@@@4@$0A@@std@@@std@@IAEPAU?$_Tree_node@PAVIMeetingVideoCtrlEvent@ZOOMSDK@@PAX@1@PAU21@AAPAVIMeetingVideoCtrlEvent@ZOOMSDK@@@Z 00428980 f i sdk_util.obj
 0001:00027980       ??$_Buy_if_not_node@AAPAVIAuthServiceEvent@ZOOMSDK@@@?$_Tree@V?$_Tset_traits@PAVIAuthServiceEvent@ZOOMSDK@@U?$less@PAVIAuthServiceEvent@ZOOMSDK@@@std@@V?$allocator@PAVIAuthServiceEvent@ZOOMSDK@@@4@$0A@@std@@@std@@IAEPAU?$_Tree_node@PAVIAuthServiceEvent@ZOOMSDK@@PAX@1@PAU21@AAPAVIAuthServiceEvent@ZOOMSDK@@@Z 00428980 f i sdk_util.obj
 0001:00027980       ??$_Buy_if_not_node@AAPAVISDKInMeetingServiceMgrEvent@@@?$_Tree@V?$_Tset_traits@PAVISDKInMeetingServiceMgrEvent@@U?$less@PAVISDKInMeetingServiceMgrEvent@@@std@@V?$allocator@PAVISDKInMeetingServiceMgrEvent@@@3@$0A@@std@@@std@@IAEPAU?$_Tree_node@PAVISDKInMeetingServiceMgrEvent@@PAX@1@PAU21@AAPAVISDKInMeetingServiceMgrEvent@@@Z 00428980 f i sdk_util.obj
 0001:00027980       ??$_Buy_if_not_node@AAPAVIMeetingChatCtrlEvent@ZOOMSDK@@@?$_Tree@V?$_Tset_traits@PAVIMeetingChatCtrlEvent@ZOOMSDK@@U?$less@PAVIMeetingChatCtrlEvent@ZOOMSDK@@@std@@V?$allocator@PAVIMeetingChatCtrlEvent@ZOOMSDK@@@4@$0A@@std@@@std@@IAEPAU?$_Tree_node@PAVIMeetingChatCtrlEvent@ZOOMSDK@@PAX@1@PAU21@AAPAVIMeetingChatCtrlEvent@ZOOMSDK@@@Z 00428980 f i sdk_util.obj
 0001:00027980       ??$_Buy_if_not_node@AAPAVIClosedCaptionControllerEvent@ZOOMSDK@@@?$_Tree@V?$_Tset_traits@PAVIClosedCaptionControllerEvent@ZOOMSDK@@U?$less@PAVIClosedCaptionControllerEvent@ZOOMSDK@@@std@@V?$allocator@PAVIClosedCaptionControllerEvent@ZOOMSDK@@@4@$0A@@std@@@std@@IAEPAU?$_Tree_node@PAVIClosedCaptionControllerEvent@ZOOMSDK@@PAX@1@PAU21@AAPAVIClosedCaptionControllerEvent@ZOOMSDK@@@Z 00428980 f i sdk_util.obj
 0001:00027980       ??$_Buy_if_not_node@AAU?$pair@$$CBIPAVIUserInfo@ZOOMSDK@@@std@@@?$_Tree@V?$_Tmap_traits@IPAVIUserInfo@ZOOMSDK@@U?$less@I@std@@V?$allocator@U?$pair@$$CBIPAVIUserInfo@ZOOMSDK@@@std@@@4@$0A@@std@@@std@@IAEPAU?$_Tree_node@U?$pair@$$CBIPAVIUserInfo@ZOOMSDK@@@std@@PAX@1@PAU21@AAU?$pair@$$CBIPAVIUserInfo@ZOOMSDK@@@1@@Z 00428980 f i user_manager.obj
 0001:00027980       ??$_Buy_if_not_node@AAPAVIMeetingServiceEvent@ZOOMSDK@@@?$_Tree@V?$_Tset_traits@PAVIMeetingServiceEvent@ZOOMSDK@@U?$less@PAVIMeetingServiceEvent@ZOOMSDK@@@std@@V?$allocator@PAVIMeetingServiceEvent@ZOOMSDK@@@4@$0A@@std@@@std@@IAEPAU?$_Tree_node@PAVIMeetingServiceEvent@ZOOMSDK@@PAX@1@PAU21@AAPAVIMeetingServiceEvent@ZOOMSDK@@@Z 00428980 f i sdk_util.obj
 0001:00027980       ??$_Buy_if_not_node@AAPAVIMeetingParticipantsCtrlEvent@ZOOMSDK@@@?$_Tree@V?$_Tset_traits@PAVIMeetingParticipantsCtrlEvent@ZOOMSDK@@U?$less@PAVIMeetingParticipantsCtrlEvent@ZOOMSDK@@@std@@V?$allocator@PAVIMeetingParticipantsCtrlEvent@ZOOMSDK@@@4@$0A@@std@@@std@@IAEPAU?$_Tree_node@PAVIMeetingParticipantsCtrlEvent@ZOOMSDK@@PAX@1@PAU21@AAPAVIMeetingParticipantsCtrlEvent@ZOOMSDK@@@Z 00428980 f i sdk_util.obj
 0001:00027990       ??$_Buy_if_not_node@ABQAVIMeetingParticipantsCtrlEvent@ZOOMSDK@@@?$_Tree@V?$_Tset_traits@PAVIMeetingParticipantsCtrlEvent@ZOOMSDK@@U?$less@PAVIMeetingParticipantsCtrlEvent@ZOOMSDK@@@std@@V?$allocator@PAVIMeetingParticipantsCtrlEvent@ZOOMSDK@@@4@$0A@@std@@@std@@IAEPAU?$_Tree_node@PAVIMeetingParticipantsCtrlEvent@ZOOMSDK@@PAX@1@U_Not_a_node_tag@1@ABQAVIMeetingParticipantsCtrlEvent@ZOOMSDK@@@Z 00428990 f i sdk_util.obj
 0001:00027990       ??$_Buy_if_not_node@ABQAVIAuthServiceEvent@ZOOMSDK@@@?$_Tree@V?$_Tset_traits@PAVIAuthServiceEvent@ZOOMSDK@@U?$less@PAVIAuthServiceEvent@ZOOMSDK@@@std@@V?$allocator@PAVIAuthServiceEvent@ZOOMSDK@@@4@$0A@@std@@@std@@IAEPAU?$_Tree_node@PAVIAuthServiceEvent@ZOOMSDK@@PAX@1@U_Not_a_node_tag@1@ABQAVIAuthServiceEvent@ZOOMSDK@@@Z 00428990 f i sdk_util.obj
 0001:00027990       ??$_Buy_if_not_node@ABQAVIMeetingServiceEvent@ZOOMSDK@@@?$_Tree@V?$_Tset_traits@PAVIMeetingServiceEvent@ZOOMSDK@@U?$less@PAVIMeetingServiceEvent@ZOOMSDK@@@std@@V?$allocator@PAVIMeetingServiceEvent@ZOOMSDK@@@4@$0A@@std@@@std@@IAEPAU?$_Tree_node@PAVIMeetingServiceEvent@ZOOMSDK@@PAX@1@U_Not_a_node_tag@1@ABQAVIMeetingServiceEvent@ZOOMSDK@@@Z 00428990 f i sdk_util.obj
 0001:00027990       ??$_Buy_if_not_node@ABQAVISDKInMeetingServiceMgrEvent@@@?$_Tree@V?$_Tset_traits@PAVISDKInMeetingServiceMgrEvent@@U?$less@PAVISDKInMeetingServiceMgrEvent@@@std@@V?$allocator@PAVISDKInMeetingServiceMgrEvent@@@3@$0A@@std@@@std@@IAEPAU?$_Tree_node@PAVISDKInMeetingServiceMgrEvent@@PAX@1@U_Not_a_node_tag@1@ABQAVISDKInMeetingServiceMgrEvent@@@Z 00428990 f i sdk_util.obj
 0001:00027990       ??$_Buy_if_not_node@ABQAVIMeetingVideoCtrlEvent@ZOOMSDK@@@?$_Tree@V?$_Tset_traits@PAVIMeetingVideoCtrlEvent@ZOOMSDK@@U?$less@PAVIMeetingVideoCtrlEvent@ZOOMSDK@@@std@@V?$allocator@PAVIMeetingVideoCtrlEvent@ZOOMSDK@@@4@$0A@@std@@@std@@IAEPAU?$_Tree_node@PAVIMeetingVideoCtrlEvent@ZOOMSDK@@PAX@1@U_Not_a_node_tag@1@ABQAVIMeetingVideoCtrlEvent@ZOOMSDK@@@Z 00428990 f i sdk_util.obj
 0001:00027990       ??$_Buy_if_not_node@ABQAVIClosedCaptionControllerEvent@ZOOMSDK@@@?$_Tree@V?$_Tset_traits@PAVIClosedCaptionControllerEvent@ZOOMSDK@@U?$less@PAVIClosedCaptionControllerEvent@ZOOMSDK@@@std@@V?$allocator@PAVIClosedCaptionControllerEvent@ZOOMSDK@@@4@$0A@@std@@@std@@IAEPAU?$_Tree_node@PAVIClosedCaptionControllerEvent@ZOOMSDK@@PAX@1@U_Not_a_node_tag@1@ABQAVIClosedCaptionControllerEvent@ZOOMSDK@@@Z 00428990 f i sdk_util.obj
 0001:00027990       ??$_Buy_if_not_node@ABQAVIMeetingChatCtrlEvent@ZOOMSDK@@@?$_Tree@V?$_Tset_traits@PAVIMeetingChatCtrlEvent@ZOOMSDK@@U?$less@PAVIMeetingChatCtrlEvent@ZOOMSDK@@@std@@V?$allocator@PAVIMeetingChatCtrlEvent@ZOOMSDK@@@4@$0A@@std@@@std@@IAEPAU?$_Tree_node@PAVIMeetingChatCtrlEvent@ZOOMSDK@@PAX@1@U_Not_a_node_tag@1@ABQAVIMeetingChatCtrlEvent@ZOOMSDK@@@Z 00428990 f i sdk_util.obj
 0001:00027990       ??$_Buy_if_not_node@ABQAVIPreMeetingServiceEvent@ZOOMSDK@@@?$_Tree@V?$_Tset_traits@PAVIPreMeetingServiceEvent@ZOOMSDK@@U?$less@PAVIPreMeetingServiceEvent@ZOOMSDK@@@std@@V?$allocator@PAVIPreMeetingServiceEvent@ZOOMSDK@@@4@$0A@@std@@@std@@IAEPAU?$_Tree_node@PAVIPreMeetingServiceEvent@ZOOMSDK@@PAX@1@U_Not_a_node_tag@1@ABQAVIPreMeetingServiceEvent@ZOOMSDK@@@Z 00428990 f i sdk_util.obj
 0001:000279c0       ??$_Buyheadnode@V?$allocator@U?$_Tree_node@PAVIMeetingChatCtrlEvent@ZOOMSDK@@PAX@std@@@std@@@?$_Tree_node@PAVIMeetingChatCtrlEvent@ZOOMSDK@@PAX@std@@SAPAU01@AAV?$allocator@U?$_Tree_node@PAVIMeetingChatCtrlEvent@ZOOMSDK@@PAX@std@@@1@@Z 004289c0 f i sdk_util.obj
 0001:000279c0       ??$_Buyheadnode@V?$allocator@U?$_Tree_node@PAVIMeetingVideoCtrlEvent@ZOOMSDK@@PAX@std@@@std@@@?$_Tree_node@PAVIMeetingVideoCtrlEvent@ZOOMSDK@@PAX@std@@SAPAU01@AAV?$allocator@U?$_Tree_node@PAVIMeetingVideoCtrlEvent@ZOOMSDK@@PAX@std@@@1@@Z 004289c0 f i sdk_util.obj
 0001:000279c0       ??$_Buyheadnode@V?$allocator@U?$_Tree_node@PAVIPreMeetingServiceEvent@ZOOMSDK@@PAX@std@@@std@@@?$_Tree_node@PAVIPreMeetingServiceEvent@ZOOMSDK@@PAX@std@@SAPAU01@AAV?$allocator@U?$_Tree_node@PAVIPreMeetingServiceEvent@ZOOMSDK@@PAX@std@@@1@@Z 004289c0 f i sdk_util.obj
 0001:000279c0       ??$_Buyheadnode@V?$allocator@U?$_Tree_node@PAVIAuthServiceEvent@ZOOMSDK@@PAX@std@@@std@@@?$_Tree_node@PAVIAuthServiceEvent@ZOOMSDK@@PAX@std@@SAPAU01@AAV?$allocator@U?$_Tree_node@PAVIAuthServiceEvent@ZOOMSDK@@PAX@std@@@1@@Z 004289c0 f i sdk_util.obj
 0001:000279c0       ??$_Buyheadnode@V?$allocator@U?$_Tree_node@PAVIMeetingServiceEvent@ZOOMSDK@@PAX@std@@@std@@@?$_Tree_node@PAVIMeetingServiceEvent@ZOOMSDK@@PAX@std@@SAPAU01@AAV?$allocator@U?$_Tree_node@PAVIMeetingServiceEvent@ZOOMSDK@@PAX@std@@@1@@Z 004289c0 f i sdk_util.obj
 0001:000279c0       ??$_Buyheadnode@V?$allocator@U?$_Tree_node@PAVIMeetingParticipantsCtrlEvent@ZOOMSDK@@PAX@std@@@std@@@?$_Tree_node@PAVIMeetingParticipantsCtrlEvent@ZOOMSDK@@PAX@std@@SAPAU01@AAV?$allocator@U?$_Tree_node@PAVIMeetingParticipantsCtrlEvent@ZOOMSDK@@PAX@std@@@1@@Z 004289c0 f i sdk_util.obj
 0001:000279c0       ??$_Buyheadnode@V?$allocator@U?$_Tree_node@PAVIClosedCaptionControllerEvent@ZOOMSDK@@PAX@std@@@std@@@?$_Tree_node@PAVIClosedCaptionControllerEvent@ZOOMSDK@@PAX@std@@SAPAU01@AAV?$allocator@U?$_Tree_node@PAVIClosedCaptionControllerEvent@ZOOMSDK@@PAX@std@@@1@@Z 004289c0 f i sdk_util.obj
 0001:000279c0       ??$_Buyheadnode@V?$allocator@U?$_Tree_node@PAVISDKInMeetingServiceMgrEvent@@PAX@std@@@std@@@?$_Tree_node@PAVISDKInMeetingServiceMgrEvent@@PAX@std@@SAPAU01@AAV?$allocator@U?$_Tree_node@PAVISDKInMeetingServiceMgrEvent@@PAX@std@@@1@@Z 004289c0 f i sdk_util.obj
 0001:00027a50       ??$_Buynode@ABQAVIMeetingVideoCtrlEvent@ZOOMSDK@@@?$_Tree@V?$_Tset_traits@PAVIMeetingVideoCtrlEvent@ZOOMSDK@@U?$less@PAVIMeetingVideoCtrlEvent@ZOOMSDK@@@std@@V?$allocator@PAVIMeetingVideoCtrlEvent@ZOOMSDK@@@4@$0A@@std@@@std@@IAEPAU?$_Tree_node@PAVIMeetingVideoCtrlEvent@ZOOMSDK@@PAX@1@ABQAVIMeetingVideoCtrlEvent@ZOOMSDK@@@Z 00428a50 f i sdk_util.obj
 0001:00027a50       ??$_Buynode@ABQAVIClosedCaptionControllerEvent@ZOOMSDK@@@?$_Tree@V?$_Tset_traits@PAVIClosedCaptionControllerEvent@ZOOMSDK@@U?$less@PAVIClosedCaptionControllerEvent@ZOOMSDK@@@std@@V?$allocator@PAVIClosedCaptionControllerEvent@ZOOMSDK@@@4@$0A@@std@@@std@@IAEPAU?$_Tree_node@PAVIClosedCaptionControllerEvent@ZOOMSDK@@PAX@1@ABQAVIClosedCaptionControllerEvent@ZOOMSDK@@@Z 00428a50 f i sdk_util.obj
 0001:00027a50       ??$_Buynode@ABQAVIMeetingServiceEvent@ZOOMSDK@@@?$_Tree@V?$_Tset_traits@PAVIMeetingServiceEvent@ZOOMSDK@@U?$less@PAVIMeetingServiceEvent@ZOOMSDK@@@std@@V?$allocator@PAVIMeetingServiceEvent@ZOOMSDK@@@4@$0A@@std@@@std@@IAEPAU?$_Tree_node@PAVIMeetingServiceEvent@ZOOMSDK@@PAX@1@ABQAVIMeetingServiceEvent@ZOOMSDK@@@Z 00428a50 f i sdk_util.obj
 0001:00027a50       ??$_Buynode@ABQAVIAuthServiceEvent@ZOOMSDK@@@?$_Tree@V?$_Tset_traits@PAVIAuthServiceEvent@ZOOMSDK@@U?$less@PAVIAuthServiceEvent@ZOOMSDK@@@std@@V?$allocator@PAVIAuthServiceEvent@ZOOMSDK@@@4@$0A@@std@@@std@@IAEPAU?$_Tree_node@PAVIAuthServiceEvent@ZOOMSDK@@PAX@1@ABQAVIAuthServiceEvent@ZOOMSDK@@@Z 00428a50 f i sdk_util.obj
 0001:00027a50       ??$_Buynode@ABQAVISDKInMeetingServiceMgrEvent@@@?$_Tree@V?$_Tset_traits@PAVISDKInMeetingServiceMgrEvent@@U?$less@PAVISDKInMeetingServiceMgrEvent@@@std@@V?$allocator@PAVISDKInMeetingServiceMgrEvent@@@3@$0A@@std@@@std@@IAEPAU?$_Tree_node@PAVISDKInMeetingServiceMgrEvent@@PAX@1@ABQAVISDKInMeetingServiceMgrEvent@@@Z 00428a50 f i sdk_util.obj
 0001:00027a50       ??$_Buynode@ABQAVIPreMeetingServiceEvent@ZOOMSDK@@@?$_Tree@V?$_Tset_traits@PAVIPreMeetingServiceEvent@ZOOMSDK@@U?$less@PAVIPreMeetingServiceEvent@ZOOMSDK@@@std@@V?$allocator@PAVIPreMeetingServiceEvent@ZOOMSDK@@@4@$0A@@std@@@std@@IAEPAU?$_Tree_node@PAVIPreMeetingServiceEvent@ZOOMSDK@@PAX@1@ABQAVIPreMeetingServiceEvent@ZOOMSDK@@@Z 00428a50 f i sdk_util.obj
 0001:00027a50       ??$_Buynode@ABQAVIMeetingChatCtrlEvent@ZOOMSDK@@@?$_Tree@V?$_Tset_traits@PAVIMeetingChatCtrlEvent@ZOOMSDK@@U?$less@PAVIMeetingChatCtrlEvent@ZOOMSDK@@@std@@V?$allocator@PAVIMeetingChatCtrlEvent@ZOOMSDK@@@4@$0A@@std@@@std@@IAEPAU?$_Tree_node@PAVIMeetingChatCtrlEvent@ZOOMSDK@@PAX@1@ABQAVIMeetingChatCtrlEvent@ZOOMSDK@@@Z 00428a50 f i sdk_util.obj
 0001:00027a50       ??$_Buynode@ABQAVIMeetingParticipantsCtrlEvent@ZOOMSDK@@@?$_Tree@V?$_Tset_traits@PAVIMeetingParticipantsCtrlEvent@ZOOMSDK@@U?$less@PAVIMeetingParticipantsCtrlEvent@ZOOMSDK@@@std@@V?$allocator@PAVIMeetingParticipantsCtrlEvent@ZOOMSDK@@@4@$0A@@std@@@std@@IAEPAU?$_Tree_node@PAVIMeetingParticipantsCtrlEvent@ZOOMSDK@@PAX@1@ABQAVIMeetingParticipantsCtrlEvent@ZOOMSDK@@@Z 00428a50 f i sdk_util.obj
 0001:00027a90       ??$_Buynode@V?$allocator@U?$_Tree_node@PAVISDKInMeetingServiceMgrEvent@@PAX@std@@@std@@ABQAVISDKInMeetingServiceMgrEvent@@@?$_Tree_node@PAVISDKInMeetingServiceMgrEvent@@PAX@std@@SAPAU01@AAV?$allocator@U?$_Tree_node@PAVISDKInMeetingServiceMgrEvent@@PAX@std@@@1@PAU01@ABQAVISDKInMeetingServiceMgrEvent@@@Z 00428a90 f i sdk_util.obj
 0001:00027a90       ??$_Buynode@V?$allocator@U?$_Tree_node@PAVIMeetingChatCtrlEvent@ZOOMSDK@@PAX@std@@@std@@ABQAVIMeetingChatCtrlEvent@ZOOMSDK@@@?$_Tree_node@PAVIMeetingChatCtrlEvent@ZOOMSDK@@PAX@std@@SAPAU01@AAV?$allocator@U?$_Tree_node@PAVIMeetingChatCtrlEvent@ZOOMSDK@@PAX@std@@@1@PAU01@ABQAVIMeetingChatCtrlEvent@ZOOMSDK@@@Z 00428a90 f i sdk_util.obj
 0001:00027a90       ??$_Buynode@V?$allocator@U?$_Tree_node@PAVIMeetingVideoCtrlEvent@ZOOMSDK@@PAX@std@@@std@@ABQAVIMeetingVideoCtrlEvent@ZOOMSDK@@@?$_Tree_node@PAVIMeetingVideoCtrlEvent@ZOOMSDK@@PAX@std@@SAPAU01@AAV?$allocator@U?$_Tree_node@PAVIMeetingVideoCtrlEvent@ZOOMSDK@@PAX@std@@@1@PAU01@ABQAVIMeetingVideoCtrlEvent@ZOOMSDK@@@Z 00428a90 f i sdk_util.obj
 0001:00027a90       ??$_Buynode@V?$allocator@U?$_Tree_node@PAVIPreMeetingServiceEvent@ZOOMSDK@@PAX@std@@@std@@ABQAVIPreMeetingServiceEvent@ZOOMSDK@@@?$_Tree_node@PAVIPreMeetingServiceEvent@ZOOMSDK@@PAX@std@@SAPAU01@AAV?$allocator@U?$_Tree_node@PAVIPreMeetingServiceEvent@ZOOMSDK@@PAX@std@@@1@PAU01@ABQAVIPreMeetingServiceEvent@ZOOMSDK@@@Z 00428a90 f i sdk_util.obj
 0001:00027a90       ??$_Buynode@V?$allocator@U?$_Tree_node@PAVIClosedCaptionControllerEvent@ZOOMSDK@@PAX@std@@@std@@ABQAVIClosedCaptionControllerEvent@ZOOMSDK@@@?$_Tree_node@PAVIClosedCaptionControllerEvent@ZOOMSDK@@PAX@std@@SAPAU01@AAV?$allocator@U?$_Tree_node@PAVIClosedCaptionControllerEvent@ZOOMSDK@@PAX@std@@@1@PAU01@ABQAVIClosedCaptionControllerEvent@ZOOMSDK@@@Z 00428a90 f i sdk_util.obj
 0001:00027a90       ??$_Buynode@V?$allocator@U?$_Tree_node@PAVIAuthServiceEvent@ZOOMSDK@@PAX@std@@@std@@ABQAVIAuthServiceEvent@ZOOMSDK@@@?$_Tree_node@PAVIAuthServiceEvent@ZOOMSDK@@PAX@std@@SAPAU01@AAV?$allocator@U?$_Tree_node@PAVIAuthServiceEvent@ZOOMSDK@@PAX@std@@@1@PAU01@ABQAVIAuthServiceEvent@ZOOMSDK@@@Z 00428a90 f i sdk_util.obj
 0001:00027a90       ??$_Buynode@V?$allocator@U?$_Tree_node@PAVIMeetingParticipantsCtrlEvent@ZOOMSDK@@PAX@std@@@std@@ABQAVIMeetingParticipantsCtrlEvent@ZOOMSDK@@@?$_Tree_node@PAVIMeetingParticipantsCtrlEvent@ZOOMSDK@@PAX@std@@SAPAU01@AAV?$allocator@U?$_Tree_node@PAVIMeetingParticipantsCtrlEvent@ZOOMSDK@@PAX@std@@@1@PAU01@ABQAVIMeetingParticipantsCtrlEvent@ZOOMSDK@@@Z 00428a90 f i sdk_util.obj
 0001:00027a90       ??$_Buynode@V?$allocator@U?$_Tree_node@PAVIMeetingServiceEvent@ZOOMSDK@@PAX@std@@@std@@ABQAVIMeetingServiceEvent@ZOOMSDK@@@?$_Tree_node@PAVIMeetingServiceEvent@ZOOMSDK@@PAX@std@@SAPAU01@AAV?$allocator@U?$_Tree_node@PAVIMeetingServiceEvent@ZOOMSDK@@PAX@std@@@1@PAU01@ABQAVIMeetingServiceEvent@ZOOMSDK@@@Z 00428a90 f i sdk_util.obj
 0001:00027b90       ??$_Eqrange@PAVIMeetingServiceEvent@ZOOMSDK@@@?$_Tree@V?$_Tset_traits@PAVIMeetingServiceEvent@ZOOMSDK@@U?$less@PAVIMeetingServiceEvent@ZOOMSDK@@@std@@V?$allocator@PAVIMeetingServiceEvent@ZOOMSDK@@@4@$0A@@std@@@std@@IAE?AU?$pair@V?$_Tree_const_iterator@V?$_Tree_val@U?$_Tree_simple_types@PAVIMeetingServiceEvent@ZOOMSDK@@@std@@@std@@@std@@V12@@1@ABQAVIMeetingServiceEvent@ZOOMSDK@@@Z 00428b90 f i sdk_util.obj
 0001:00027b90       ??$_Eqrange@PAVIMeetingParticipantsCtrlEvent@ZOOMSDK@@@?$_Tree@V?$_Tset_traits@PAVIMeetingParticipantsCtrlEvent@ZOOMSDK@@U?$less@PAVIMeetingParticipantsCtrlEvent@ZOOMSDK@@@std@@V?$allocator@PAVIMeetingParticipantsCtrlEvent@ZOOMSDK@@@4@$0A@@std@@@std@@IAE?AU?$pair@V?$_Tree_const_iterator@V?$_Tree_val@U?$_Tree_simple_types@PAVIMeetingParticipantsCtrlEvent@ZOOMSDK@@@std@@@std@@@std@@V12@@1@ABQAVIMeetingParticipantsCtrlEvent@ZOOMSDK@@@Z 00428b90 f i sdk_util.obj
 0001:00027b90       ??$_Eqrange@PAVIMeetingChatCtrlEvent@ZOOMSDK@@@?$_Tree@V?$_Tset_traits@PAVIMeetingChatCtrlEvent@ZOOMSDK@@U?$less@PAVIMeetingChatCtrlEvent@ZOOMSDK@@@std@@V?$allocator@PAVIMeetingChatCtrlEvent@ZOOMSDK@@@4@$0A@@std@@@std@@IAE?AU?$pair@V?$_Tree_const_iterator@V?$_Tree_val@U?$_Tree_simple_types@PAVIMeetingChatCtrlEvent@ZOOMSDK@@@std@@@std@@@std@@V12@@1@ABQAVIMeetingChatCtrlEvent@ZOOMSDK@@@Z 00428b90 f i sdk_util.obj
 0001:00027b90       ??$_Eqrange@PAVISDKInMeetingServiceMgrEvent@@@?$_Tree@V?$_Tset_traits@PAVISDKInMeetingServiceMgrEvent@@U?$less@PAVISDKInMeetingServiceMgrEvent@@@std@@V?$allocator@PAVISDKInMeetingServiceMgrEvent@@@3@$0A@@std@@@std@@IAE?AU?$pair@V?$_Tree_const_iterator@V?$_Tree_val@U?$_Tree_simple_types@PAVISDKInMeetingServiceMgrEvent@@@std@@@std@@@std@@V12@@1@ABQAVISDKInMeetingServiceMgrEvent@@@Z 00428b90 f i sdk_util.obj
 0001:00027b90       ??$_Eqrange@PAVIAuthServiceEvent@ZOOMSDK@@@?$_Tree@V?$_Tset_traits@PAVIAuthServiceEvent@ZOOMSDK@@U?$less@PAVIAuthServiceEvent@ZOOMSDK@@@std@@V?$allocator@PAVIAuthServiceEvent@ZOOMSDK@@@4@$0A@@std@@@std@@IAE?AU?$pair@V?$_Tree_const_iterator@V?$_Tree_val@U?$_Tree_simple_types@PAVIAuthServiceEvent@ZOOMSDK@@@std@@@std@@@std@@V12@@1@ABQAVIAuthServiceEvent@ZOOMSDK@@@Z 00428b90 f i sdk_util.obj
 0001:00027b90       ??$_Eqrange@PAVIPreMeetingServiceEvent@ZOOMSDK@@@?$_Tree@V?$_Tset_traits@PAVIPreMeetingServiceEvent@ZOOMSDK@@U?$less@PAVIPreMeetingServiceEvent@ZOOMSDK@@@std@@V?$allocator@PAVIPreMeetingServiceEvent@ZOOMSDK@@@4@$0A@@std@@@std@@IAE?AU?$pair@V?$_Tree_const_iterator@V?$_Tree_val@U?$_Tree_simple_types@PAVIPreMeetingServiceEvent@ZOOMSDK@@@std@@@std@@@std@@V12@@1@ABQAVIPreMeetingServiceEvent@ZOOMSDK@@@Z 00428b90 f i sdk_util.obj
 0001:00027b90       ??$_Eqrange@PAVIClosedCaptionControllerEvent@ZOOMSDK@@@?$_Tree@V?$_Tset_traits@PAVIClosedCaptionControllerEvent@ZOOMSDK@@U?$less@PAVIClosedCaptionControllerEvent@ZOOMSDK@@@std@@V?$allocator@PAVIClosedCaptionControllerEvent@ZOOMSDK@@@4@$0A@@std@@@std@@IAE?AU?$pair@V?$_Tree_const_iterator@V?$_Tree_val@U?$_Tree_simple_types@PAVIClosedCaptionControllerEvent@ZOOMSDK@@@std@@@std@@@std@@V12@@1@ABQAVIClosedCaptionControllerEvent@ZOOMSDK@@@Z 00428b90 f i sdk_util.obj
 0001:00027c00       ??$_Eqrange@PAVIAuthServiceEvent@ZOOMSDK@@@?$_Tree@V?$_Tset_traits@PAVIAuthServiceEvent@ZOOMSDK@@U?$less@PAVIAuthServiceEvent@ZOOMSDK@@@std@@V?$allocator@PAVIAuthServiceEvent@ZOOMSDK@@@4@$0A@@std@@@std@@IBE?AU?$pair@V?$_Tree_const_iterator@V?$_Tree_val@U?$_Tree_simple_types@PAVIAuthServiceEvent@ZOOMSDK@@@std@@@std@@@std@@V12@@1@ABQAVIAuthServiceEvent@ZOOMSDK@@@Z 00428c00 f i sdk_util.obj
 0001:00027c00       ??$_Eqrange@PAVIClosedCaptionControllerEvent@ZOOMSDK@@@?$_Tree@V?$_Tset_traits@PAVIClosedCaptionControllerEvent@ZOOMSDK@@U?$less@PAVIClosedCaptionControllerEvent@ZOOMSDK@@@std@@V?$allocator@PAVIClosedCaptionControllerEvent@ZOOMSDK@@@4@$0A@@std@@@std@@IBE?AU?$pair@V?$_Tree_const_iterator@V?$_Tree_val@U?$_Tree_simple_types@PAVIClosedCaptionControllerEvent@ZOOMSDK@@@std@@@std@@@std@@V12@@1@ABQAVIClosedCaptionControllerEvent@ZOOMSDK@@@Z 00428c00 f i sdk_util.obj
 0001:00027c00       ??$_Eqrange@PAVIMeetingParticipantsCtrlEvent@ZOOMSDK@@@?$_Tree@V?$_Tset_traits@PAVIMeetingParticipantsCtrlEvent@ZOOMSDK@@U?$less@PAVIMeetingParticipantsCtrlEvent@ZOOMSDK@@@std@@V?$allocator@PAVIMeetingParticipantsCtrlEvent@ZOOMSDK@@@4@$0A@@std@@@std@@IBE?AU?$pair@V?$_Tree_const_iterator@V?$_Tree_val@U?$_Tree_simple_types@PAVIMeetingParticipantsCtrlEvent@ZOOMSDK@@@std@@@std@@@std@@V12@@1@ABQAVIMeetingParticipantsCtrlEvent@ZOOMSDK@@@Z 00428c00 f i sdk_util.obj
 0001:00027c00       ??$_Eqrange@PAVISDKInMeetingServiceMgrEvent@@@?$_Tree@V?$_Tset_traits@PAVISDKInMeetingServiceMgrEvent@@U?$less@PAVISDKInMeetingServiceMgrEvent@@@std@@V?$allocator@PAVISDKInMeetingServiceMgrEvent@@@3@$0A@@std@@@std@@IBE?AU?$pair@V?$_Tree_const_iterator@V?$_Tree_val@U?$_Tree_simple_types@PAVISDKInMeetingServiceMgrEvent@@@std@@@std@@@std@@V12@@1@ABQAVISDKInMeetingServiceMgrEvent@@@Z 00428c00 f i sdk_util.obj
 0001:00027c00       ??$_Eqrange@PAVIPreMeetingServiceEvent@ZOOMSDK@@@?$_Tree@V?$_Tset_traits@PAVIPreMeetingServiceEvent@ZOOMSDK@@U?$less@PAVIPreMeetingServiceEvent@ZOOMSDK@@@std@@V?$allocator@PAVIPreMeetingServiceEvent@ZOOMSDK@@@4@$0A@@std@@@std@@IBE?AU?$pair@V?$_Tree_const_iterator@V?$_Tree_val@U?$_Tree_simple_types@PAVIPreMeetingServiceEvent@ZOOMSDK@@@std@@@std@@@std@@V12@@1@ABQAVIPreMeetingServiceEvent@ZOOMSDK@@@Z 00428c00 f i sdk_util.obj
 0001:00027c00       ??$_Eqrange@PAVIMeetingChatCtrlEvent@ZOOMSDK@@@?$_Tree@V?$_Tset_traits@PAVIMeetingChatCtrlEvent@ZOOMSDK@@U?$less@PAVIMeetingChatCtrlEvent@ZOOMSDK@@@std@@V?$allocator@PAVIMeetingChatCtrlEvent@ZOOMSDK@@@4@$0A@@std@@@std@@IBE?AU?$pair@V?$_Tree_const_iterator@V?$_Tree_val@U?$_Tree_simple_types@PAVIMeetingChatCtrlEvent@ZOOMSDK@@@std@@@std@@@std@@V12@@1@ABQAVIMeetingChatCtrlEvent@ZOOMSDK@@@Z 00428c00 f i sdk_util.obj
 0001:00027c00       ??$_Eqrange@PAVIMeetingServiceEvent@ZOOMSDK@@@?$_Tree@V?$_Tset_traits@PAVIMeetingServiceEvent@ZOOMSDK@@U?$less@PAVIMeetingServiceEvent@ZOOMSDK@@@std@@V?$allocator@PAVIMeetingServiceEvent@ZOOMSDK@@@4@$0A@@std@@@std@@IBE?AU?$pair@V?$_Tree_const_iterator@V?$_Tree_val@U?$_Tree_simple_types@PAVIMeetingServiceEvent@ZOOMSDK@@@std@@@std@@@std@@V12@@1@ABQAVIMeetingServiceEvent@ZOOMSDK@@@Z 00428c00 f i sdk_util.obj
 0001:00027d80       ??$_Erase_head@V?$allocator@U?$_Tree_node@PAVIPreMeetingServiceEvent@ZOOMSDK@@PAX@std@@@std@@@?$_Tree_val@U?$_Tree_simple_types@PAVIPreMeetingServiceEvent@ZOOMSDK@@@std@@@std@@QAEXAAV?$allocator@U?$_Tree_node@PAVIPreMeetingServiceEvent@ZOOMSDK@@PAX@std@@@1@@Z 00428d80 f i sdk_util.obj
 0001:00027d80       ??$_Erase_head@V?$allocator@U?$_Tree_node@PAVIClosedCaptionControllerEvent@ZOOMSDK@@PAX@std@@@std@@@?$_Tree_val@U?$_Tree_simple_types@PAVIClosedCaptionControllerEvent@ZOOMSDK@@@std@@@std@@QAEXAAV?$allocator@U?$_Tree_node@PAVIClosedCaptionControllerEvent@ZOOMSDK@@PAX@std@@@1@@Z 00428d80 f i sdk_util.obj
 0001:00027d80       ??$_Erase_head@V?$allocator@U?$_Tree_node@PAVIAuthServiceEvent@ZOOMSDK@@PAX@std@@@std@@@?$_Tree_val@U?$_Tree_simple_types@PAVIAuthServiceEvent@ZOOMSDK@@@std@@@std@@QAEXAAV?$allocator@U?$_Tree_node@PAVIAuthServiceEvent@ZOOMSDK@@PAX@std@@@1@@Z 00428d80 f i sdk_util.obj
 0001:00027d80       ??$_Erase_head@V?$allocator@U?$_Tree_node@PAVIMeetingParticipantsCtrlEvent@ZOOMSDK@@PAX@std@@@std@@@?$_Tree_val@U?$_Tree_simple_types@PAVIMeetingParticipantsCtrlEvent@ZOOMSDK@@@std@@@std@@QAEXAAV?$allocator@U?$_Tree_node@PAVIMeetingParticipantsCtrlEvent@ZOOMSDK@@PAX@std@@@1@@Z 00428d80 f i sdk_util.obj
 0001:00027d80       ??$_Erase_head@V?$allocator@U?$_Tree_node@PAVISDKInMeetingServiceMgrEvent@@PAX@std@@@std@@@?$_Tree_val@U?$_Tree_simple_types@PAVISDKInMeetingServiceMgrEvent@@@std@@@std@@QAEXAAV?$allocator@U?$_Tree_node@PAVISDKInMeetingServiceMgrEvent@@PAX@std@@@1@@Z 00428d80 f i sdk_util.obj
 0001:00027d80       ??$_Erase_head@V?$allocator@U?$_Tree_node@PAVIMeetingServiceEvent@ZOOMSDK@@PAX@std@@@std@@@?$_Tree_val@U?$_Tree_simple_types@PAVIMeetingServiceEvent@ZOOMSDK@@@std@@@std@@QAEXAAV?$allocator@U?$_Tree_node@PAVIMeetingServiceEvent@ZOOMSDK@@PAX@std@@@1@@Z 00428d80 f i sdk_util.obj
 0001:00027d80       ??$_Erase_head@V?$allocator@U?$_Tree_node@PAVIMeetingVideoCtrlEvent@ZOOMSDK@@PAX@std@@@std@@@?$_Tree_val@U?$_Tree_simple_types@PAVIMeetingVideoCtrlEvent@ZOOMSDK@@@std@@@std@@QAEXAAV?$allocator@U?$_Tree_node@PAVIMeetingVideoCtrlEvent@ZOOMSDK@@PAX@std@@@1@@Z 00428d80 f i sdk_util.obj
 0001:00027d80       ??$_Erase_head@V?$allocator@U?$_Tree_node@PAVIMeetingChatCtrlEvent@ZOOMSDK@@PAX@std@@@std@@@?$_Tree_val@U?$_Tree_simple_types@PAVIMeetingChatCtrlEvent@ZOOMSDK@@@std@@@std@@QAEXAAV?$allocator@U?$_Tree_node@PAVIMeetingChatCtrlEvent@ZOOMSDK@@PAX@std@@@1@@Z 00428d80 f i sdk_util.obj
 0001:00027dc0       ??$_Erase_tree@V?$allocator@U?$_Tree_node@PAVIMeetingParticipantsCtrlEvent@ZOOMSDK@@PAX@std@@@std@@@?$_Tree_val@U?$_Tree_simple_types@PAVIMeetingParticipantsCtrlEvent@ZOOMSDK@@@std@@@std@@QAEXAAV?$allocator@U?$_Tree_node@PAVIMeetingParticipantsCtrlEvent@ZOOMSDK@@PAX@std@@@1@PAU?$_Tree_node@PAVIMeetingParticipantsCtrlEvent@ZOOMSDK@@PAX@1@@Z 00428dc0 f i sdk_util.obj
 0001:00027dc0       ??$_Erase_tree@V?$allocator@U?$_Tree_node@PAVISDKInMeetingServiceMgrEvent@@PAX@std@@@std@@@?$_Tree_val@U?$_Tree_simple_types@PAVISDKInMeetingServiceMgrEvent@@@std@@@std@@QAEXAAV?$allocator@U?$_Tree_node@PAVISDKInMeetingServiceMgrEvent@@PAX@std@@@1@PAU?$_Tree_node@PAVISDKInMeetingServiceMgrEvent@@PAX@1@@Z 00428dc0 f i sdk_util.obj
 0001:00027dc0       ??$_Erase_tree@V?$allocator@U?$_Tree_node@PAVIPreMeetingServiceEvent@ZOOMSDK@@PAX@std@@@std@@@?$_Tree_val@U?$_Tree_simple_types@PAVIPreMeetingServiceEvent@ZOOMSDK@@@std@@@std@@QAEXAAV?$allocator@U?$_Tree_node@PAVIPreMeetingServiceEvent@ZOOMSDK@@PAX@std@@@1@PAU?$_Tree_node@PAVIPreMeetingServiceEvent@ZOOMSDK@@PAX@1@@Z 00428dc0 f i sdk_util.obj
 0001:00027dc0       ??$_Erase_tree@V?$allocator@U?$_Tree_node@PAVIClosedCaptionControllerEvent@ZOOMSDK@@PAX@std@@@std@@@?$_Tree_val@U?$_Tree_simple_types@PAVIClosedCaptionControllerEvent@ZOOMSDK@@@std@@@std@@QAEXAAV?$allocator@U?$_Tree_node@PAVIClosedCaptionControllerEvent@ZOOMSDK@@PAX@std@@@1@PAU?$_Tree_node@PAVIClosedCaptionControllerEvent@ZOOMSDK@@PAX@1@@Z 00428dc0 f i sdk_util.obj
 0001:00027dc0       ??$_Erase_tree@V?$allocator@U?$_Tree_node@PAVIMeetingServiceEvent@ZOOMSDK@@PAX@std@@@std@@@?$_Tree_val@U?$_Tree_simple_types@PAVIMeetingServiceEvent@ZOOMSDK@@@std@@@std@@QAEXAAV?$allocator@U?$_Tree_node@PAVIMeetingServiceEvent@ZOOMSDK@@PAX@std@@@1@PAU?$_Tree_node@PAVIMeetingServiceEvent@ZOOMSDK@@PAX@1@@Z 00428dc0 f i sdk_util.obj
 0001:00027dc0       ??$_Erase_tree@V?$allocator@U?$_Tree_node@PAVIMeetingChatCtrlEvent@ZOOMSDK@@PAX@std@@@std@@@?$_Tree_val@U?$_Tree_simple_types@PAVIMeetingChatCtrlEvent@ZOOMSDK@@@std@@@std@@QAEXAAV?$allocator@U?$_Tree_node@PAVIMeetingChatCtrlEvent@ZOOMSDK@@PAX@std@@@1@PAU?$_Tree_node@PAVIMeetingChatCtrlEvent@ZOOMSDK@@PAX@1@@Z 00428dc0 f i sdk_util.obj
 0001:00027dc0       ??$_Erase_tree@V?$allocator@U?$_Tree_node@PAVIMeetingVideoCtrlEvent@ZOOMSDK@@PAX@std@@@std@@@?$_Tree_val@U?$_Tree_simple_types@PAVIMeetingVideoCtrlEvent@ZOOMSDK@@@std@@@std@@QAEXAAV?$allocator@U?$_Tree_node@PAVIMeetingVideoCtrlEvent@ZOOMSDK@@PAX@std@@@1@PAU?$_Tree_node@PAVIMeetingVideoCtrlEvent@ZOOMSDK@@PAX@1@@Z 00428dc0 f i sdk_util.obj
 0001:00027dc0       ??$_Erase_tree@V?$allocator@U?$_Tree_node@PAVIAuthServiceEvent@ZOOMSDK@@PAX@std@@@std@@@?$_Tree_val@U?$_Tree_simple_types@PAVIAuthServiceEvent@ZOOMSDK@@@std@@@std@@QAEXAAV?$allocator@U?$_Tree_node@PAVIAuthServiceEvent@ZOOMSDK@@PAX@std@@@1@PAU?$_Tree_node@PAVIAuthServiceEvent@ZOOMSDK@@PAX@1@@Z 00428dc0 f i sdk_util.obj
 0001:00027e40       ??$_Freenode0@V?$allocator@U?$_Tree_node@PAVIMeetingParticipantsCtrlEvent@ZOOMSDK@@PAX@std@@@std@@@?$_Tree_node@PAVIMeetingParticipantsCtrlEvent@ZOOMSDK@@PAX@std@@SAXAAV?$allocator@U?$_Tree_node@PAVIMeetingParticipantsCtrlEvent@ZOOMSDK@@PAX@std@@@1@PAU01@@Z 00428e40 f i sdk_util.obj
 0001:00027e40       ??$_Freenode0@V?$allocator@U?$_Tree_node@PAVIMeetingVideoCtrlEvent@ZOOMSDK@@PAX@std@@@std@@@?$_Tree_node@PAVIMeetingVideoCtrlEvent@ZOOMSDK@@PAX@std@@SAXAAV?$allocator@U?$_Tree_node@PAVIMeetingVideoCtrlEvent@ZOOMSDK@@PAX@std@@@1@PAU01@@Z 00428e40 f i sdk_util.obj
 0001:00027e40       ??$_Freenode0@V?$allocator@U?$_Tree_node@PAVIClosedCaptionControllerEvent@ZOOMSDK@@PAX@std@@@std@@@?$_Tree_node@PAVIClosedCaptionControllerEvent@ZOOMSDK@@PAX@std@@SAXAAV?$allocator@U?$_Tree_node@PAVIClosedCaptionControllerEvent@ZOOMSDK@@PAX@std@@@1@PAU01@@Z 00428e40 f i sdk_util.obj
 0001:00027e40       ??$_Freenode0@V?$allocator@U?$_Tree_node@PAVISDKInMeetingServiceMgrEvent@@PAX@std@@@std@@@?$_Tree_node@PAVISDKInMeetingServiceMgrEvent@@PAX@std@@SAXAAV?$allocator@U?$_Tree_node@PAVISDKInMeetingServiceMgrEvent@@PAX@std@@@1@PAU01@@Z 00428e40 f i sdk_util.obj
 0001:00027e40       ??$_Freenode0@V?$allocator@U?$_Tree_node@PAVIMeetingChatCtrlEvent@ZOOMSDK@@PAX@std@@@std@@@?$_Tree_node@PAVIMeetingChatCtrlEvent@ZOOMSDK@@PAX@std@@SAXAAV?$allocator@U?$_Tree_node@PAVIMeetingChatCtrlEvent@ZOOMSDK@@PAX@std@@@1@PAU01@@Z 00428e40 f i sdk_util.obj
 0001:00027e40       ??$_Freenode0@V?$allocator@U?$_Tree_node@PAVIMeetingServiceEvent@ZOOMSDK@@PAX@std@@@std@@@?$_Tree_node@PAVIMeetingServiceEvent@ZOOMSDK@@PAX@std@@SAXAAV?$allocator@U?$_Tree_node@PAVIMeetingServiceEvent@ZOOMSDK@@PAX@std@@@1@PAU01@@Z 00428e40 f i sdk_util.obj
 0001:00027e40       ??$_Freenode0@V?$allocator@U?$_Tree_node@PAVIAuthServiceEvent@ZOOMSDK@@PAX@std@@@std@@@?$_Tree_node@PAVIAuthServiceEvent@ZOOMSDK@@PAX@std@@SAXAAV?$allocator@U?$_Tree_node@PAVIAuthServiceEvent@ZOOMSDK@@PAX@std@@@1@PAU01@@Z 00428e40 f i sdk_util.obj
 0001:00027e40       ??$_Freenode0@V?$allocator@U?$_Tree_node@PAVIPreMeetingServiceEvent@ZOOMSDK@@PAX@std@@@std@@@?$_Tree_node@PAVIPreMeetingServiceEvent@ZOOMSDK@@PAX@std@@SAXAAV?$allocator@U?$_Tree_node@PAVIPreMeetingServiceEvent@ZOOMSDK@@PAX@std@@@1@PAU01@@Z 00428e40 f i sdk_util.obj
 0001:00027ee0       ??$_Freenode@V?$allocator@U?$_Tree_node@PAVIClosedCaptionControllerEvent@ZOOMSDK@@PAX@std@@@std@@@?$_Tree_node@PAVIClosedCaptionControllerEvent@ZOOMSDK@@PAX@std@@SAXAAV?$allocator@U?$_Tree_node@PAVIClosedCaptionControllerEvent@ZOOMSDK@@PAX@std@@@1@PAU01@@Z 00428ee0 f i sdk_util.obj
 0001:00027ee0       ??$_Freenode@V?$allocator@U?$_Tree_node@PAVIMeetingChatCtrlEvent@ZOOMSDK@@PAX@std@@@std@@@?$_Tree_node@PAVIMeetingChatCtrlEvent@ZOOMSDK@@PAX@std@@SAXAAV?$allocator@U?$_Tree_node@PAVIMeetingChatCtrlEvent@ZOOMSDK@@PAX@std@@@1@PAU01@@Z 00428ee0 f i sdk_util.obj
 0001:00027ee0       ??$_Freenode@V?$allocator@U?$_Tree_node@PAVIMeetingVideoCtrlEvent@ZOOMSDK@@PAX@std@@@std@@@?$_Tree_node@PAVIMeetingVideoCtrlEvent@ZOOMSDK@@PAX@std@@SAXAAV?$allocator@U?$_Tree_node@PAVIMeetingVideoCtrlEvent@ZOOMSDK@@PAX@std@@@1@PAU01@@Z 00428ee0 f i sdk_util.obj
 0001:00027ee0       ??$_Freenode@V?$allocator@U?$_Tree_node@PAVIMeetingServiceEvent@ZOOMSDK@@PAX@std@@@std@@@?$_Tree_node@PAVIMeetingServiceEvent@ZOOMSDK@@PAX@std@@SAXAAV?$allocator@U?$_Tree_node@PAVIMeetingServiceEvent@ZOOMSDK@@PAX@std@@@1@PAU01@@Z 00428ee0 f i sdk_util.obj
 0001:00027ee0       ??$_Freenode@V?$allocator@U?$_Tree_node@PAVIAuthServiceEvent@ZOOMSDK@@PAX@std@@@std@@@?$_Tree_node@PAVIAuthServiceEvent@ZOOMSDK@@PAX@std@@SAXAAV?$allocator@U?$_Tree_node@PAVIAuthServiceEvent@ZOOMSDK@@PAX@std@@@1@PAU01@@Z 00428ee0 f i sdk_util.obj
 0001:00027ee0       ??$_Freenode@V?$allocator@U?$_Tree_node@PAVIMeetingParticipantsCtrlEvent@ZOOMSDK@@PAX@std@@@std@@@?$_Tree_node@PAVIMeetingParticipantsCtrlEvent@ZOOMSDK@@PAX@std@@SAXAAV?$allocator@U?$_Tree_node@PAVIMeetingParticipantsCtrlEvent@ZOOMSDK@@PAX@std@@@1@PAU01@@Z 00428ee0 f i sdk_util.obj
 0001:00027ee0       ??$_Freenode@V?$allocator@U?$_Tree_node@PAVISDKInMeetingServiceMgrEvent@@PAX@std@@@std@@@?$_Tree_node@PAVISDKInMeetingServiceMgrEvent@@PAX@std@@SAXAAV?$allocator@U?$_Tree_node@PAVISDKInMeetingServiceMgrEvent@@PAX@std@@@1@PAU01@@Z 00428ee0 f i sdk_util.obj
 0001:00027ee0       ??$_Freenode@V?$allocator@U?$_Tree_node@PAVIPreMeetingServiceEvent@ZOOMSDK@@PAX@std@@@std@@@?$_Tree_node@PAVIPreMeetingServiceEvent@ZOOMSDK@@PAX@std@@SAXAAV?$allocator@U?$_Tree_node@PAVIPreMeetingServiceEvent@ZOOMSDK@@PAX@std@@@1@PAU01@@Z 00428ee0 f i sdk_util.obj
 0001:00027f40       ??$_Get_size_of_n@$0BE@@std@@YAII@Z 00428f40 f i sdk_util.obj
 0001:00027f70       ??$_Get_unwrapped@V?$_Tree_const_iterator@V?$_Tree_val@U?$_Tree_simple_types@PAVIPreMeetingServiceEvent@ZOOMSDK@@@std@@@std@@@std@@$0A@@std@@YA?AV?$_Tree_unchecked_const_iterator@V?$_Tree_val@U?$_Tree_simple_types@PAVIPreMeetingServiceEvent@ZOOMSDK@@@std@@@std@@U_Iterator_base0@2@@0@ABV?$_Tree_const_iterator@V?$_Tree_val@U?$_Tree_simple_types@PAVIPreMeetingServiceEvent@ZOOMSDK@@@std@@@std@@@0@@Z 00428f70 f i sdk_util.obj
 0001:00027f70       ??$_Get_unwrapped@V?$_Tree_const_iterator@V?$_Tree_val@U?$_Tree_simple_types@PAVIClosedCaptionControllerEvent@ZOOMSDK@@@std@@@std@@@std@@$0A@@std@@YA?AV?$_Tree_unchecked_const_iterator@V?$_Tree_val@U?$_Tree_simple_types@PAVIClosedCaptionControllerEvent@ZOOMSDK@@@std@@@std@@U_Iterator_base0@2@@0@ABV?$_Tree_const_iterator@V?$_Tree_val@U?$_Tree_simple_types@PAVIClosedCaptionControllerEvent@ZOOMSDK@@@std@@@std@@@0@@Z 00428f70 f i sdk_util.obj
 0001:00027f70       ??$_Get_unwrapped@V?$_Tree_const_iterator@V?$_Tree_val@U?$_Tree_simple_types@PAVIMeetingParticipantsCtrlEvent@ZOOMSDK@@@std@@@std@@@std@@$0A@@std@@YA?AV?$_Tree_unchecked_const_iterator@V?$_Tree_val@U?$_Tree_simple_types@PAVIMeetingParticipantsCtrlEvent@ZOOMSDK@@@std@@@std@@U_Iterator_base0@2@@0@ABV?$_Tree_const_iterator@V?$_Tree_val@U?$_Tree_simple_types@PAVIMeetingParticipantsCtrlEvent@ZOOMSDK@@@std@@@std@@@0@@Z 00428f70 f i sdk_util.obj
 0001:00027f70       ??$_Get_unwrapped@V?$_Tree_const_iterator@V?$_Tree_val@U?$_Tree_simple_types@PAVISDKInMeetingServiceMgrEvent@@@std@@@std@@@std@@$0A@@std@@YA?AV?$_Tree_unchecked_const_iterator@V?$_Tree_val@U?$_Tree_simple_types@PAVISDKInMeetingServiceMgrEvent@@@std@@@std@@U_Iterator_base0@2@@0@ABV?$_Tree_const_iterator@V?$_Tree_val@U?$_Tree_simple_types@PAVISDKInMeetingServiceMgrEvent@@@std@@@std@@@0@@Z 00428f70 f i sdk_util.obj
 0001:00027f70       ??$_Get_unwrapped@V?$_Tree_const_iterator@V?$_Tree_val@U?$_Tree_simple_types@PAVIAuthServiceEvent@ZOOMSDK@@@std@@@std@@@std@@$0A@@std@@YA?AV?$_Tree_unchecked_const_iterator@V?$_Tree_val@U?$_Tree_simple_types@PAVIAuthServiceEvent@ZOOMSDK@@@std@@@std@@U_Iterator_base0@2@@0@ABV?$_Tree_const_iterator@V?$_Tree_val@U?$_Tree_simple_types@PAVIAuthServiceEvent@ZOOMSDK@@@std@@@std@@@0@@Z 00428f70 f i sdk_util.obj
 0001:00027f70       ??$_Get_unwrapped@V?$_Tree_const_iterator@V?$_Tree_val@U?$_Tree_simple_types@PAVIMeetingServiceEvent@ZOOMSDK@@@std@@@std@@@std@@$0A@@std@@YA?AV?$_Tree_unchecked_const_iterator@V?$_Tree_val@U?$_Tree_simple_types@PAVIMeetingServiceEvent@ZOOMSDK@@@std@@@std@@U_Iterator_base0@2@@0@ABV?$_Tree_const_iterator@V?$_Tree_val@U?$_Tree_simple_types@PAVIMeetingServiceEvent@ZOOMSDK@@@std@@@std@@@0@@Z 00428f70 f i sdk_util.obj
 0001:00027f70       ??$_Get_unwrapped@V?$_Tree_const_iterator@V?$_Tree_val@U?$_Tree_simple_types@PAVIMeetingChatCtrlEvent@ZOOMSDK@@@std@@@std@@@std@@$0A@@std@@YA?AV?$_Tree_unchecked_const_iterator@V?$_Tree_val@U?$_Tree_simple_types@PAVIMeetingChatCtrlEvent@ZOOMSDK@@@std@@@std@@U_Iterator_base0@2@@0@ABV?$_Tree_const_iterator@V?$_Tree_val@U?$_Tree_simple_types@PAVIMeetingChatCtrlEvent@ZOOMSDK@@@std@@@std@@@0@@Z 00428f70 f i sdk_util.obj
 0001:00027f70       ??$_Get_unwrapped@V?$_Tree_const_iterator@V?$_Tree_val@U?$_Tree_simple_types@PAVIMeetingVideoCtrlEvent@ZOOMSDK@@@std@@@std@@@std@@$0A@@std@@YA?AV?$_Tree_unchecked_const_iterator@V?$_Tree_val@U?$_Tree_simple_types@PAVIMeetingVideoCtrlEvent@ZOOMSDK@@@std@@@std@@U_Iterator_base0@2@@0@ABV?$_Tree_const_iterator@V?$_Tree_val@U?$_Tree_simple_types@PAVIMeetingVideoCtrlEvent@ZOOMSDK@@@std@@@std@@@0@@Z 00428f70 f i sdk_util.obj
 0001:00027f90       ??$_Insert_at@AAPAVIMeetingServiceEvent@ZOOMSDK@@PAU?$_Tree_node@PAVIMeetingServiceEvent@ZOOMSDK@@PAX@std@@@?$_Tree@V?$_Tset_traits@PAVIMeetingServiceEvent@ZOOMSDK@@U?$less@PAVIMeetingServiceEvent@ZOOMSDK@@@std@@V?$allocator@PAVIMeetingServiceEvent@ZOOMSDK@@@4@$0A@@std@@@std@@IAE?AV?$_Tree_const_iterator@V?$_Tree_val@U?$_Tree_simple_types@PAVIMeetingServiceEvent@ZOOMSDK@@@std@@@std@@@1@_NPAU?$_Tree_node@PAVIMeetingServiceEvent@ZOOMSDK@@PAX@1@AAPAVIMeetingServiceEvent@ZOOMSDK@@1@Z 00428f90 f i sdk_util.obj
 0001:00027f90       ??$_Insert_at@AAPAVIMeetingChatCtrlEvent@ZOOMSDK@@PAU?$_Tree_node@PAVIMeetingChatCtrlEvent@ZOOMSDK@@PAX@std@@@?$_Tree@V?$_Tset_traits@PAVIMeetingChatCtrlEvent@ZOOMSDK@@U?$less@PAVIMeetingChatCtrlEvent@ZOOMSDK@@@std@@V?$allocator@PAVIMeetingChatCtrlEvent@ZOOMSDK@@@4@$0A@@std@@@std@@IAE?AV?$_Tree_const_iterator@V?$_Tree_val@U?$_Tree_simple_types@PAVIMeetingChatCtrlEvent@ZOOMSDK@@@std@@@std@@@1@_NPAU?$_Tree_node@PAVIMeetingChatCtrlEvent@ZOOMSDK@@PAX@1@AAPAVIMeetingChatCtrlEvent@ZOOMSDK@@1@Z 00428f90 f i sdk_util.obj
 0001:00027f90       ??$_Insert_at@AAPAVIClosedCaptionControllerEvent@ZOOMSDK@@PAU?$_Tree_node@PAVIClosedCaptionControllerEvent@ZOOMSDK@@PAX@std@@@?$_Tree@V?$_Tset_traits@PAVIClosedCaptionControllerEvent@ZOOMSDK@@U?$less@PAVIClosedCaptionControllerEvent@ZOOMSDK@@@std@@V?$allocator@PAVIClosedCaptionControllerEvent@ZOOMSDK@@@4@$0A@@std@@@std@@IAE?AV?$_Tree_const_iterator@V?$_Tree_val@U?$_Tree_simple_types@PAVIClosedCaptionControllerEvent@ZOOMSDK@@@std@@@std@@@1@_NPAU?$_Tree_node@PAVIClosedCaptionControllerEvent@ZOOMSDK@@PAX@1@AAPAVIClosedCaptionControllerEvent@ZOOMSDK@@1@Z 00428f90 f i sdk_util.obj
 0001:00027f90       ??$_Insert_at@AAPAVIPreMeetingServiceEvent@ZOOMSDK@@PAU?$_Tree_node@PAVIPreMeetingServiceEvent@ZOOMSDK@@PAX@std@@@?$_Tree@V?$_Tset_traits@PAVIPreMeetingServiceEvent@ZOOMSDK@@U?$less@PAVIPreMeetingServiceEvent@ZOOMSDK@@@std@@V?$allocator@PAVIPreMeetingServiceEvent@ZOOMSDK@@@4@$0A@@std@@@std@@IAE?AV?$_Tree_const_iterator@V?$_Tree_val@U?$_Tree_simple_types@PAVIPreMeetingServiceEvent@ZOOMSDK@@@std@@@std@@@1@_NPAU?$_Tree_node@PAVIPreMeetingServiceEvent@ZOOMSDK@@PAX@1@AAPAVIPreMeetingServiceEvent@ZOOMSDK@@1@Z 00428f90 f i sdk_util.obj
 0001:00027f90       ??$_Insert_at@AAPAVIMeetingParticipantsCtrlEvent@ZOOMSDK@@PAU?$_Tree_node@PAVIMeetingParticipantsCtrlEvent@ZOOMSDK@@PAX@std@@@?$_Tree@V?$_Tset_traits@PAVIMeetingParticipantsCtrlEvent@ZOOMSDK@@U?$less@PAVIMeetingParticipantsCtrlEvent@ZOOMSDK@@@std@@V?$allocator@PAVIMeetingParticipantsCtrlEvent@ZOOMSDK@@@4@$0A@@std@@@std@@IAE?AV?$_Tree_const_iterator@V?$_Tree_val@U?$_Tree_simple_types@PAVIMeetingParticipantsCtrlEvent@ZOOMSDK@@@std@@@std@@@1@_NPAU?$_Tree_node@PAVIMeetingParticipantsCtrlEvent@ZOOMSDK@@PAX@1@AAPAVIMeetingParticipantsCtrlEvent@ZOOMSDK@@1@Z 00428f90 f i sdk_util.obj
 0001:00027f90       ??$_Insert_at@AAPAVIAuthServiceEvent@ZOOMSDK@@PAU?$_Tree_node@PAVIAuthServiceEvent@ZOOMSDK@@PAX@std@@@?$_Tree@V?$_Tset_traits@PAVIAuthServiceEvent@ZOOMSDK@@U?$less@PAVIAuthServiceEvent@ZOOMSDK@@@std@@V?$allocator@PAVIAuthServiceEvent@ZOOMSDK@@@4@$0A@@std@@@std@@IAE?AV?$_Tree_const_iterator@V?$_Tree_val@U?$_Tree_simple_types@PAVIAuthServiceEvent@ZOOMSDK@@@std@@@std@@@1@_NPAU?$_Tree_node@PAVIAuthServiceEvent@ZOOMSDK@@PAX@1@AAPAVIAuthServiceEvent@ZOOMSDK@@1@Z 00428f90 f i sdk_util.obj
 0001:00027f90       ??$_Insert_at@AAPAVIMeetingVideoCtrlEvent@ZOOMSDK@@PAU?$_Tree_node@PAVIMeetingVideoCtrlEvent@ZOOMSDK@@PAX@std@@@?$_Tree@V?$_Tset_traits@PAVIMeetingVideoCtrlEvent@ZOOMSDK@@U?$less@PAVIMeetingVideoCtrlEvent@ZOOMSDK@@@std@@V?$allocator@PAVIMeetingVideoCtrlEvent@ZOOMSDK@@@4@$0A@@std@@@std@@IAE?AV?$_Tree_const_iterator@V?$_Tree_val@U?$_Tree_simple_types@PAVIMeetingVideoCtrlEvent@ZOOMSDK@@@std@@@std@@@1@_NPAU?$_Tree_node@PAVIMeetingVideoCtrlEvent@ZOOMSDK@@PAX@1@AAPAVIMeetingVideoCtrlEvent@ZOOMSDK@@1@Z 00428f90 f i sdk_util.obj
 0001:00027f90       ??$_Insert_at@AAPAVISDKInMeetingServiceMgrEvent@@PAU?$_Tree_node@PAVISDKInMeetingServiceMgrEvent@@PAX@std@@@?$_Tree@V?$_Tset_traits@PAVISDKInMeetingServiceMgrEvent@@U?$less@PAVISDKInMeetingServiceMgrEvent@@@std@@V?$allocator@PAVISDKInMeetingServiceMgrEvent@@@3@$0A@@std@@@std@@IAE?AV?$_Tree_const_iterator@V?$_Tree_val@U?$_Tree_simple_types@PAVISDKInMeetingServiceMgrEvent@@@std@@@std@@@1@_NPAU?$_Tree_node@PAVISDKInMeetingServiceMgrEvent@@PAX@1@AAPAVISDKInMeetingServiceMgrEvent@@1@Z 00428f90 f i sdk_util.obj
 0001:00028220       ??$_Insert_at@ABQAVIAuthServiceEvent@ZOOMSDK@@U_Not_a_node_tag@std@@@?$_Tree@V?$_Tset_traits@PAVIAuthServiceEvent@ZOOMSDK@@U?$less@PAVIAuthServiceEvent@ZOOMSDK@@@std@@V?$allocator@PAVIAuthServiceEvent@ZOOMSDK@@@4@$0A@@std@@@std@@IAE?AV?$_Tree_const_iterator@V?$_Tree_val@U?$_Tree_simple_types@PAVIAuthServiceEvent@ZOOMSDK@@@std@@@std@@@1@_NPAU?$_Tree_node@PAVIAuthServiceEvent@ZOOMSDK@@PAX@1@ABQAVIAuthServiceEvent@ZOOMSDK@@U_Not_a_node_tag@1@@Z 00429220 f i sdk_util.obj
 0001:00028220       ??$_Insert_at@ABQAVIMeetingVideoCtrlEvent@ZOOMSDK@@U_Not_a_node_tag@std@@@?$_Tree@V?$_Tset_traits@PAVIMeetingVideoCtrlEvent@ZOOMSDK@@U?$less@PAVIMeetingVideoCtrlEvent@ZOOMSDK@@@std@@V?$allocator@PAVIMeetingVideoCtrlEvent@ZOOMSDK@@@4@$0A@@std@@@std@@IAE?AV?$_Tree_const_iterator@V?$_Tree_val@U?$_Tree_simple_types@PAVIMeetingVideoCtrlEvent@ZOOMSDK@@@std@@@std@@@1@_NPAU?$_Tree_node@PAVIMeetingVideoCtrlEvent@ZOOMSDK@@PAX@1@ABQAVIMeetingVideoCtrlEvent@ZOOMSDK@@U_Not_a_node_tag@1@@Z 00429220 f i sdk_util.obj
 0001:00028220       ??$_Insert_at@ABQAVIClosedCaptionControllerEvent@ZOOMSDK@@U_Not_a_node_tag@std@@@?$_Tree@V?$_Tset_traits@PAVIClosedCaptionControllerEvent@ZOOMSDK@@U?$less@PAVIClosedCaptionControllerEvent@ZOOMSDK@@@std@@V?$allocator@PAVIClosedCaptionControllerEvent@ZOOMSDK@@@4@$0A@@std@@@std@@IAE?AV?$_Tree_const_iterator@V?$_Tree_val@U?$_Tree_simple_types@PAVIClosedCaptionControllerEvent@ZOOMSDK@@@std@@@std@@@1@_NPAU?$_Tree_node@PAVIClosedCaptionControllerEvent@ZOOMSDK@@PAX@1@ABQAVIClosedCaptionControllerEvent@ZOOMSDK@@U_Not_a_node_tag@1@@Z 00429220 f i sdk_util.obj
 0001:00028220       ??$_Insert_at@ABQAVIPreMeetingServiceEvent@ZOOMSDK@@U_Not_a_node_tag@std@@@?$_Tree@V?$_Tset_traits@PAVIPreMeetingServiceEvent@ZOOMSDK@@U?$less@PAVIPreMeetingServiceEvent@ZOOMSDK@@@std@@V?$allocator@PAVIPreMeetingServiceEvent@ZOOMSDK@@@4@$0A@@std@@@std@@IAE?AV?$_Tree_const_iterator@V?$_Tree_val@U?$_Tree_simple_types@PAVIPreMeetingServiceEvent@ZOOMSDK@@@std@@@std@@@1@_NPAU?$_Tree_node@PAVIPreMeetingServiceEvent@ZOOMSDK@@PAX@1@ABQAVIPreMeetingServiceEvent@ZOOMSDK@@U_Not_a_node_tag@1@@Z 00429220 f i sdk_util.obj
 0001:00028220       ??$_Insert_at@ABQAVISDKInMeetingServiceMgrEvent@@U_Not_a_node_tag@std@@@?$_Tree@V?$_Tset_traits@PAVISDKInMeetingServiceMgrEvent@@U?$less@PAVISDKInMeetingServiceMgrEvent@@@std@@V?$allocator@PAVISDKInMeetingServiceMgrEvent@@@3@$0A@@std@@@std@@IAE?AV?$_Tree_const_iterator@V?$_Tree_val@U?$_Tree_simple_types@PAVISDKInMeetingServiceMgrEvent@@@std@@@std@@@1@_NPAU?$_Tree_node@PAVISDKInMeetingServiceMgrEvent@@PAX@1@ABQAVISDKInMeetingServiceMgrEvent@@U_Not_a_node_tag@1@@Z 00429220 f i sdk_util.obj
 0001:00028220       ??$_Insert_at@ABQAVIMeetingServiceEvent@ZOOMSDK@@U_Not_a_node_tag@std@@@?$_Tree@V?$_Tset_traits@PAVIMeetingServiceEvent@ZOOMSDK@@U?$less@PAVIMeetingServiceEvent@ZOOMSDK@@@std@@V?$allocator@PAVIMeetingServiceEvent@ZOOMSDK@@@4@$0A@@std@@@std@@IAE?AV?$_Tree_const_iterator@V?$_Tree_val@U?$_Tree_simple_types@PAVIMeetingServiceEvent@ZOOMSDK@@@std@@@std@@@1@_NPAU?$_Tree_node@PAVIMeetingServiceEvent@ZOOMSDK@@PAX@1@ABQAVIMeetingServiceEvent@ZOOMSDK@@U_Not_a_node_tag@1@@Z 00429220 f i sdk_util.obj
 0001:00028220       ??$_Insert_at@ABQAVIMeetingParticipantsCtrlEvent@ZOOMSDK@@U_Not_a_node_tag@std@@@?$_Tree@V?$_Tset_traits@PAVIMeetingParticipantsCtrlEvent@ZOOMSDK@@U?$less@PAVIMeetingParticipantsCtrlEvent@ZOOMSDK@@@std@@V?$allocator@PAVIMeetingParticipantsCtrlEvent@ZOOMSDK@@@4@$0A@@std@@@std@@IAE?AV?$_Tree_const_iterator@V?$_Tree_val@U?$_Tree_simple_types@PAVIMeetingParticipantsCtrlEvent@ZOOMSDK@@@std@@@std@@@1@_NPAU?$_Tree_node@PAVIMeetingParticipantsCtrlEvent@ZOOMSDK@@PAX@1@ABQAVIMeetingParticipantsCtrlEvent@ZOOMSDK@@U_Not_a_node_tag@1@@Z 00429220 f i sdk_util.obj
 0001:00028220       ??$_Insert_at@ABQAVIMeetingChatCtrlEvent@ZOOMSDK@@U_Not_a_node_tag@std@@@?$_Tree@V?$_Tset_traits@PAVIMeetingChatCtrlEvent@ZOOMSDK@@U?$less@PAVIMeetingChatCtrlEvent@ZOOMSDK@@@std@@V?$allocator@PAVIMeetingChatCtrlEvent@ZOOMSDK@@@4@$0A@@std@@@std@@IAE?AV?$_Tree_const_iterator@V?$_Tree_val@U?$_Tree_simple_types@PAVIMeetingChatCtrlEvent@ZOOMSDK@@@std@@@std@@@1@_NPAU?$_Tree_node@PAVIMeetingChatCtrlEvent@ZOOMSDK@@PAX@1@ABQAVIMeetingChatCtrlEvent@ZOOMSDK@@U_Not_a_node_tag@1@@Z 00429220 f i sdk_util.obj
 0001:000284b0       ??$_Insert_hint@AAPAVIClosedCaptionControllerEvent@ZOOMSDK@@PAU?$_Tree_node@PAVIClosedCaptionControllerEvent@ZOOMSDK@@PAX@std@@@?$_Tree@V?$_Tset_traits@PAVIClosedCaptionControllerEvent@ZOOMSDK@@U?$less@PAVIClosedCaptionControllerEvent@ZOOMSDK@@@std@@V?$allocator@PAVIClosedCaptionControllerEvent@ZOOMSDK@@@4@$0A@@std@@@std@@IAE?AV?$_Tree_const_iterator@V?$_Tree_val@U?$_Tree_simple_types@PAVIClosedCaptionControllerEvent@ZOOMSDK@@@std@@@std@@@1@V21@AAPAVIClosedCaptionControllerEvent@ZOOMSDK@@PAU?$_Tree_node@PAVIClosedCaptionControllerEvent@ZOOMSDK@@PAX@1@@Z 004294b0 f i sdk_util.obj
 0001:000284b0       ??$_Insert_hint@AAPAVIAuthServiceEvent@ZOOMSDK@@PAU?$_Tree_node@PAVIAuthServiceEvent@ZOOMSDK@@PAX@std@@@?$_Tree@V?$_Tset_traits@PAVIAuthServiceEvent@ZOOMSDK@@U?$less@PAVIAuthServiceEvent@ZOOMSDK@@@std@@V?$allocator@PAVIAuthServiceEvent@ZOOMSDK@@@4@$0A@@std@@@std@@IAE?AV?$_Tree_const_iterator@V?$_Tree_val@U?$_Tree_simple_types@PAVIAuthServiceEvent@ZOOMSDK@@@std@@@std@@@1@V21@AAPAVIAuthServiceEvent@ZOOMSDK@@PAU?$_Tree_node@PAVIAuthServiceEvent@ZOOMSDK@@PAX@1@@Z 004294b0 f i sdk_util.obj
 0001:000284b0       ??$_Insert_hint@AAPAVIMeetingParticipantsCtrlEvent@ZOOMSDK@@PAU?$_Tree_node@PAVIMeetingParticipantsCtrlEvent@ZOOMSDK@@PAX@std@@@?$_Tree@V?$_Tset_traits@PAVIMeetingParticipantsCtrlEvent@ZOOMSDK@@U?$less@PAVIMeetingParticipantsCtrlEvent@ZOOMSDK@@@std@@V?$allocator@PAVIMeetingParticipantsCtrlEvent@ZOOMSDK@@@4@$0A@@std@@@std@@IAE?AV?$_Tree_const_iterator@V?$_Tree_val@U?$_Tree_simple_types@PAVIMeetingParticipantsCtrlEvent@ZOOMSDK@@@std@@@std@@@1@V21@AAPAVIMeetingParticipantsCtrlEvent@ZOOMSDK@@PAU?$_Tree_node@PAVIMeetingParticipantsCtrlEvent@ZOOMSDK@@PAX@1@@Z 004294b0 f i sdk_util.obj
 0001:000284b0       ??$_Insert_hint@AAPAVISDKInMeetingServiceMgrEvent@@PAU?$_Tree_node@PAVISDKInMeetingServiceMgrEvent@@PAX@std@@@?$_Tree@V?$_Tset_traits@PAVISDKInMeetingServiceMgrEvent@@U?$less@PAVISDKInMeetingServiceMgrEvent@@@std@@V?$allocator@PAVISDKInMeetingServiceMgrEvent@@@3@$0A@@std@@@std@@IAE?AV?$_Tree_const_iterator@V?$_Tree_val@U?$_Tree_simple_types@PAVISDKInMeetingServiceMgrEvent@@@std@@@std@@@1@V21@AAPAVISDKInMeetingServiceMgrEvent@@PAU?$_Tree_node@PAVISDKInMeetingServiceMgrEvent@@PAX@1@@Z 004294b0 f i sdk_util.obj
 0001:000284b0       ??$_Insert_hint@AAPAVIMeetingServiceEvent@ZOOMSDK@@PAU?$_Tree_node@PAVIMeetingServiceEvent@ZOOMSDK@@PAX@std@@@?$_Tree@V?$_Tset_traits@PAVIMeetingServiceEvent@ZOOMSDK@@U?$less@PAVIMeetingServiceEvent@ZOOMSDK@@@std@@V?$allocator@PAVIMeetingServiceEvent@ZOOMSDK@@@4@$0A@@std@@@std@@IAE?AV?$_Tree_const_iterator@V?$_Tree_val@U?$_Tree_simple_types@PAVIMeetingServiceEvent@ZOOMSDK@@@std@@@std@@@1@V21@AAPAVIMeetingServiceEvent@ZOOMSDK@@PAU?$_Tree_node@PAVIMeetingServiceEvent@ZOOMSDK@@PAX@1@@Z 004294b0 f i sdk_util.obj
 0001:000284b0       ??$_Insert_hint@AAPAVIPreMeetingServiceEvent@ZOOMSDK@@PAU?$_Tree_node@PAVIPreMeetingServiceEvent@ZOOMSDK@@PAX@std@@@?$_Tree@V?$_Tset_traits@PAVIPreMeetingServiceEvent@ZOOMSDK@@U?$less@PAVIPreMeetingServiceEvent@ZOOMSDK@@@std@@V?$allocator@PAVIPreMeetingServiceEvent@ZOOMSDK@@@4@$0A@@std@@@std@@IAE?AV?$_Tree_const_iterator@V?$_Tree_val@U?$_Tree_simple_types@PAVIPreMeetingServiceEvent@ZOOMSDK@@@std@@@std@@@1@V21@AAPAVIPreMeetingServiceEvent@ZOOMSDK@@PAU?$_Tree_node@PAVIPreMeetingServiceEvent@ZOOMSDK@@PAX@1@@Z 004294b0 f i sdk_util.obj
 0001:000284b0       ??$_Insert_hint@AAPAVIMeetingVideoCtrlEvent@ZOOMSDK@@PAU?$_Tree_node@PAVIMeetingVideoCtrlEvent@ZOOMSDK@@PAX@std@@@?$_Tree@V?$_Tset_traits@PAVIMeetingVideoCtrlEvent@ZOOMSDK@@U?$less@PAVIMeetingVideoCtrlEvent@ZOOMSDK@@@std@@V?$allocator@PAVIMeetingVideoCtrlEvent@ZOOMSDK@@@4@$0A@@std@@@std@@IAE?AV?$_Tree_const_iterator@V?$_Tree_val@U?$_Tree_simple_types@PAVIMeetingVideoCtrlEvent@ZOOMSDK@@@std@@@std@@@1@V21@AAPAVIMeetingVideoCtrlEvent@ZOOMSDK@@PAU?$_Tree_node@PAVIMeetingVideoCtrlEvent@ZOOMSDK@@PAX@1@@Z 004294b0 f i sdk_util.obj
 0001:000284b0       ??$_Insert_hint@AAPAVIMeetingChatCtrlEvent@ZOOMSDK@@PAU?$_Tree_node@PAVIMeetingChatCtrlEvent@ZOOMSDK@@PAX@std@@@?$_Tree@V?$_Tset_traits@PAVIMeetingChatCtrlEvent@ZOOMSDK@@U?$less@PAVIMeetingChatCtrlEvent@ZOOMSDK@@@std@@V?$allocator@PAVIMeetingChatCtrlEvent@ZOOMSDK@@@4@$0A@@std@@@std@@IAE?AV?$_Tree_const_iterator@V?$_Tree_val@U?$_Tree_simple_types@PAVIMeetingChatCtrlEvent@ZOOMSDK@@@std@@@std@@@1@V21@AAPAVIMeetingChatCtrlEvent@ZOOMSDK@@PAU?$_Tree_node@PAVIMeetingChatCtrlEvent@ZOOMSDK@@PAX@1@@Z 004294b0 f i sdk_util.obj
 0001:00028900       ??$_Insert_nohint@AAPAVIAuthServiceEvent@ZOOMSDK@@PAU?$_Tree_node@PAVIAuthServiceEvent@ZOOMSDK@@PAX@std@@@?$_Tree@V?$_Tset_traits@PAVIAuthServiceEvent@ZOOMSDK@@U?$less@PAVIAuthServiceEvent@ZOOMSDK@@@std@@V?$allocator@PAVIAuthServiceEvent@ZOOMSDK@@@4@$0A@@std@@@std@@IAE?AU?$pair@V?$_Tree_const_iterator@V?$_Tree_val@U?$_Tree_simple_types@PAVIAuthServiceEvent@ZOOMSDK@@@std@@@std@@@std@@_N@1@_NAAPAVIAuthServiceEvent@ZOOMSDK@@PAU?$_Tree_node@PAVIAuthServiceEvent@ZOOMSDK@@PAX@1@@Z 00429900 f i sdk_util.obj
 0001:00028900       ??$_Insert_nohint@AAPAVIMeetingParticipantsCtrlEvent@ZOOMSDK@@PAU?$_Tree_node@PAVIMeetingParticipantsCtrlEvent@ZOOMSDK@@PAX@std@@@?$_Tree@V?$_Tset_traits@PAVIMeetingParticipantsCtrlEvent@ZOOMSDK@@U?$less@PAVIMeetingParticipantsCtrlEvent@ZOOMSDK@@@std@@V?$allocator@PAVIMeetingParticipantsCtrlEvent@ZOOMSDK@@@4@$0A@@std@@@std@@IAE?AU?$pair@V?$_Tree_const_iterator@V?$_Tree_val@U?$_Tree_simple_types@PAVIMeetingParticipantsCtrlEvent@ZOOMSDK@@@std@@@std@@@std@@_N@1@_NAAPAVIMeetingParticipantsCtrlEvent@ZOOMSDK@@PAU?$_Tree_node@PAVIMeetingParticipantsCtrlEvent@ZOOMSDK@@PAX@1@@Z 00429900 f i sdk_util.obj
 0001:00028900       ??$_Insert_nohint@AAPAVIMeetingChatCtrlEvent@ZOOMSDK@@PAU?$_Tree_node@PAVIMeetingChatCtrlEvent@ZOOMSDK@@PAX@std@@@?$_Tree@V?$_Tset_traits@PAVIMeetingChatCtrlEvent@ZOOMSDK@@U?$less@PAVIMeetingChatCtrlEvent@ZOOMSDK@@@std@@V?$allocator@PAVIMeetingChatCtrlEvent@ZOOMSDK@@@4@$0A@@std@@@std@@IAE?AU?$pair@V?$_Tree_const_iterator@V?$_Tree_val@U?$_Tree_simple_types@PAVIMeetingChatCtrlEvent@ZOOMSDK@@@std@@@std@@@std@@_N@1@_NAAPAVIMeetingChatCtrlEvent@ZOOMSDK@@PAU?$_Tree_node@PAVIMeetingChatCtrlEvent@ZOOMSDK@@PAX@1@@Z 00429900 f i sdk_util.obj
 0001:00028900       ??$_Insert_nohint@AAPAVIMeetingServiceEvent@ZOOMSDK@@PAU?$_Tree_node@PAVIMeetingServiceEvent@ZOOMSDK@@PAX@std@@@?$_Tree@V?$_Tset_traits@PAVIMeetingServiceEvent@ZOOMSDK@@U?$less@PAVIMeetingServiceEvent@ZOOMSDK@@@std@@V?$allocator@PAVIMeetingServiceEvent@ZOOMSDK@@@4@$0A@@std@@@std@@IAE?AU?$pair@V?$_Tree_const_iterator@V?$_Tree_val@U?$_Tree_simple_types@PAVIMeetingServiceEvent@ZOOMSDK@@@std@@@std@@@std@@_N@1@_NAAPAVIMeetingServiceEvent@ZOOMSDK@@PAU?$_Tree_node@PAVIMeetingServiceEvent@ZOOMSDK@@PAX@1@@Z 00429900 f i sdk_util.obj
 0001:00028900       ??$_Insert_nohint@AAPAVISDKInMeetingServiceMgrEvent@@PAU?$_Tree_node@PAVISDKInMeetingServiceMgrEvent@@PAX@std@@@?$_Tree@V?$_Tset_traits@PAVISDKInMeetingServiceMgrEvent@@U?$less@PAVISDKInMeetingServiceMgrEvent@@@std@@V?$allocator@PAVISDKInMeetingServiceMgrEvent@@@3@$0A@@std@@@std@@IAE?AU?$pair@V?$_Tree_const_iterator@V?$_Tree_val@U?$_Tree_simple_types@PAVISDKInMeetingServiceMgrEvent@@@std@@@std@@@std@@_N@1@_NAAPAVISDKInMeetingServiceMgrEvent@@PAU?$_Tree_node@PAVISDKInMeetingServiceMgrEvent@@PAX@1@@Z 00429900 f i sdk_util.obj
 0001:00028900       ??$_Insert_nohint@AAPAVIPreMeetingServiceEvent@ZOOMSDK@@PAU?$_Tree_node@PAVIPreMeetingServiceEvent@ZOOMSDK@@PAX@std@@@?$_Tree@V?$_Tset_traits@PAVIPreMeetingServiceEvent@ZOOMSDK@@U?$less@PAVIPreMeetingServiceEvent@ZOOMSDK@@@std@@V?$allocator@PAVIPreMeetingServiceEvent@ZOOMSDK@@@4@$0A@@std@@@std@@IAE?AU?$pair@V?$_Tree_const_iterator@V?$_Tree_val@U?$_Tree_simple_types@PAVIPreMeetingServiceEvent@ZOOMSDK@@@std@@@std@@@std@@_N@1@_NAAPAVIPreMeetingServiceEvent@ZOOMSDK@@PAU?$_Tree_node@PAVIPreMeetingServiceEvent@ZOOMSDK@@PAX@1@@Z 00429900 f i sdk_util.obj
 0001:00028900       ??$_Insert_nohint@AAPAVIClosedCaptionControllerEvent@ZOOMSDK@@PAU?$_Tree_node@PAVIClosedCaptionControllerEvent@ZOOMSDK@@PAX@std@@@?$_Tree@V?$_Tset_traits@PAVIClosedCaptionControllerEvent@ZOOMSDK@@U?$less@PAVIClosedCaptionControllerEvent@ZOOMSDK@@@std@@V?$allocator@PAVIClosedCaptionControllerEvent@ZOOMSDK@@@4@$0A@@std@@@std@@IAE?AU?$pair@V?$_Tree_const_iterator@V?$_Tree_val@U?$_Tree_simple_types@PAVIClosedCaptionControllerEvent@ZOOMSDK@@@std@@@std@@@std@@_N@1@_NAAPAVIClosedCaptionControllerEvent@ZOOMSDK@@PAU?$_Tree_node@PAVIClosedCaptionControllerEvent@ZOOMSDK@@PAX@1@@Z 00429900 f i sdk_util.obj
 0001:00028900       ??$_Insert_nohint@AAPAVIMeetingVideoCtrlEvent@ZOOMSDK@@PAU?$_Tree_node@PAVIMeetingVideoCtrlEvent@ZOOMSDK@@PAX@std@@@?$_Tree@V?$_Tset_traits@PAVIMeetingVideoCtrlEvent@ZOOMSDK@@U?$less@PAVIMeetingVideoCtrlEvent@ZOOMSDK@@@std@@V?$allocator@PAVIMeetingVideoCtrlEvent@ZOOMSDK@@@4@$0A@@std@@@std@@IAE?AU?$pair@V?$_Tree_const_iterator@V?$_Tree_val@U?$_Tree_simple_types@PAVIMeetingVideoCtrlEvent@ZOOMSDK@@@std@@@std@@@std@@_N@1@_NAAPAVIMeetingVideoCtrlEvent@ZOOMSDK@@PAU?$_Tree_node@PAVIMeetingVideoCtrlEvent@ZOOMSDK@@PAX@1@@Z 00429900 f i sdk_util.obj
 0001:00028bb0       ??$_Insert_nohint@ABQAVIAuthServiceEvent@ZOOMSDK@@U_Not_a_node_tag@std@@@?$_Tree@V?$_Tset_traits@PAVIAuthServiceEvent@ZOOMSDK@@U?$less@PAVIAuthServiceEvent@ZOOMSDK@@@std@@V?$allocator@PAVIAuthServiceEvent@ZOOMSDK@@@4@$0A@@std@@@std@@IAE?AU?$pair@V?$_Tree_const_iterator@V?$_Tree_val@U?$_Tree_simple_types@PAVIAuthServiceEvent@ZOOMSDK@@@std@@@std@@@std@@_N@1@_NABQAVIAuthServiceEvent@ZOOMSDK@@U_Not_a_node_tag@1@@Z 00429bb0 f i sdk_util.obj
 0001:00028bb0       ??$_Insert_nohint@ABQAVIMeetingParticipantsCtrlEvent@ZOOMSDK@@U_Not_a_node_tag@std@@@?$_Tree@V?$_Tset_traits@PAVIMeetingParticipantsCtrlEvent@ZOOMSDK@@U?$less@PAVIMeetingParticipantsCtrlEvent@ZOOMSDK@@@std@@V?$allocator@PAVIMeetingParticipantsCtrlEvent@ZOOMSDK@@@4@$0A@@std@@@std@@IAE?AU?$pair@V?$_Tree_const_iterator@V?$_Tree_val@U?$_Tree_simple_types@PAVIMeetingParticipantsCtrlEvent@ZOOMSDK@@@std@@@std@@@std@@_N@1@_NABQAVIMeetingParticipantsCtrlEvent@ZOOMSDK@@U_Not_a_node_tag@1@@Z 00429bb0 f i sdk_util.obj
 0001:00028bb0       ??$_Insert_nohint@ABQAVIMeetingServiceEvent@ZOOMSDK@@U_Not_a_node_tag@std@@@?$_Tree@V?$_Tset_traits@PAVIMeetingServiceEvent@ZOOMSDK@@U?$less@PAVIMeetingServiceEvent@ZOOMSDK@@@std@@V?$allocator@PAVIMeetingServiceEvent@ZOOMSDK@@@4@$0A@@std@@@std@@IAE?AU?$pair@V?$_Tree_const_iterator@V?$_Tree_val@U?$_Tree_simple_types@PAVIMeetingServiceEvent@ZOOMSDK@@@std@@@std@@@std@@_N@1@_NABQAVIMeetingServiceEvent@ZOOMSDK@@U_Not_a_node_tag@1@@Z 00429bb0 f i sdk_util.obj
 0001:00028bb0       ??$_Insert_nohint@ABQAVIPreMeetingServiceEvent@ZOOMSDK@@U_Not_a_node_tag@std@@@?$_Tree@V?$_Tset_traits@PAVIPreMeetingServiceEvent@ZOOMSDK@@U?$less@PAVIPreMeetingServiceEvent@ZOOMSDK@@@std@@V?$allocator@PAVIPreMeetingServiceEvent@ZOOMSDK@@@4@$0A@@std@@@std@@IAE?AU?$pair@V?$_Tree_const_iterator@V?$_Tree_val@U?$_Tree_simple_types@PAVIPreMeetingServiceEvent@ZOOMSDK@@@std@@@std@@@std@@_N@1@_NABQAVIPreMeetingServiceEvent@ZOOMSDK@@U_Not_a_node_tag@1@@Z 00429bb0 f i sdk_util.obj
 0001:00028bb0       ??$_Insert_nohint@ABQAVIMeetingChatCtrlEvent@ZOOMSDK@@U_Not_a_node_tag@std@@@?$_Tree@V?$_Tset_traits@PAVIMeetingChatCtrlEvent@ZOOMSDK@@U?$less@PAVIMeetingChatCtrlEvent@ZOOMSDK@@@std@@V?$allocator@PAVIMeetingChatCtrlEvent@ZOOMSDK@@@4@$0A@@std@@@std@@IAE?AU?$pair@V?$_Tree_const_iterator@V?$_Tree_val@U?$_Tree_simple_types@PAVIMeetingChatCtrlEvent@ZOOMSDK@@@std@@@std@@@std@@_N@1@_NABQAVIMeetingChatCtrlEvent@ZOOMSDK@@U_Not_a_node_tag@1@@Z 00429bb0 f i sdk_util.obj
 0001:00028bb0       ??$_Insert_nohint@ABQAVISDKInMeetingServiceMgrEvent@@U_Not_a_node_tag@std@@@?$_Tree@V?$_Tset_traits@PAVISDKInMeetingServiceMgrEvent@@U?$less@PAVISDKInMeetingServiceMgrEvent@@@std@@V?$allocator@PAVISDKInMeetingServiceMgrEvent@@@3@$0A@@std@@@std@@IAE?AU?$pair@V?$_Tree_const_iterator@V?$_Tree_val@U?$_Tree_simple_types@PAVISDKInMeetingServiceMgrEvent@@@std@@@std@@@std@@_N@1@_NABQAVISDKInMeetingServiceMgrEvent@@U_Not_a_node_tag@1@@Z 00429bb0 f i sdk_util.obj
 0001:00028bb0       ??$_Insert_nohint@ABQAVIClosedCaptionControllerEvent@ZOOMSDK@@U_Not_a_node_tag@std@@@?$_Tree@V?$_Tset_traits@PAVIClosedCaptionControllerEvent@ZOOMSDK@@U?$less@PAVIClosedCaptionControllerEvent@ZOOMSDK@@@std@@V?$allocator@PAVIClosedCaptionControllerEvent@ZOOMSDK@@@4@$0A@@std@@@std@@IAE?AU?$pair@V?$_Tree_const_iterator@V?$_Tree_val@U?$_Tree_simple_types@PAVIClosedCaptionControllerEvent@ZOOMSDK@@@std@@@std@@@std@@_N@1@_NABQAVIClosedCaptionControllerEvent@ZOOMSDK@@U_Not_a_node_tag@1@@Z 00429bb0 f i sdk_util.obj
 0001:00028bb0       ??$_Insert_nohint@ABQAVIMeetingVideoCtrlEvent@ZOOMSDK@@U_Not_a_node_tag@std@@@?$_Tree@V?$_Tset_traits@PAVIMeetingVideoCtrlEvent@ZOOMSDK@@U?$less@PAVIMeetingVideoCtrlEvent@ZOOMSDK@@@std@@V?$allocator@PAVIMeetingVideoCtrlEvent@ZOOMSDK@@@4@$0A@@std@@@std@@IAE?AU?$pair@V?$_Tree_const_iterator@V?$_Tree_val@U?$_Tree_simple_types@PAVIMeetingVideoCtrlEvent@ZOOMSDK@@@std@@@std@@@std@@_N@1@_NABQAVIMeetingVideoCtrlEvent@ZOOMSDK@@U_Not_a_node_tag@1@@Z 00429bb0 f i sdk_util.obj
 0001:00028e60       ??$distance@V?$_Tree_const_iterator@V?$_Tree_val@U?$_Tree_simple_types@PAVIAuthServiceEvent@ZOOMSDK@@@std@@@std@@@std@@@std@@YAHV?$_Tree_const_iterator@V?$_Tree_val@U?$_Tree_simple_types@PAVIAuthServiceEvent@ZOOMSDK@@@std@@@std@@@0@0@Z 00429e60 f i sdk_util.obj
 0001:00028e60       ??$distance@V?$_Tree_const_iterator@V?$_Tree_val@U?$_Tree_simple_types@PAVIMeetingChatCtrlEvent@ZOOMSDK@@@std@@@std@@@std@@@std@@YAHV?$_Tree_const_iterator@V?$_Tree_val@U?$_Tree_simple_types@PAVIMeetingChatCtrlEvent@ZOOMSDK@@@std@@@std@@@0@0@Z 00429e60 f i sdk_util.obj
 0001:00028e60       ??$distance@V?$_Tree_const_iterator@V?$_Tree_val@U?$_Tree_simple_types@PAVIPreMeetingServiceEvent@ZOOMSDK@@@std@@@std@@@std@@@std@@YAHV?$_Tree_const_iterator@V?$_Tree_val@U?$_Tree_simple_types@PAVIPreMeetingServiceEvent@ZOOMSDK@@@std@@@std@@@0@0@Z 00429e60 f i sdk_util.obj
 0001:00028e60       ??$distance@V?$_Tree_const_iterator@V?$_Tree_val@U?$_Tree_simple_types@PAVIMeetingParticipantsCtrlEvent@ZOOMSDK@@@std@@@std@@@std@@@std@@YAHV?$_Tree_const_iterator@V?$_Tree_val@U?$_Tree_simple_types@PAVIMeetingParticipantsCtrlEvent@ZOOMSDK@@@std@@@std@@@0@0@Z 00429e60 f i sdk_util.obj
 0001:00028e60       ??$distance@V?$_Tree_const_iterator@V?$_Tree_val@U?$_Tree_simple_types@PAVISDKInMeetingServiceMgrEvent@@@std@@@std@@@std@@@std@@YAHV?$_Tree_const_iterator@V?$_Tree_val@U?$_Tree_simple_types@PAVISDKInMeetingServiceMgrEvent@@@std@@@std@@@0@0@Z 00429e60 f i sdk_util.obj
 0001:00028e60       ??$distance@V?$_Tree_const_iterator@V?$_Tree_val@U?$_Tree_simple_types@PAVIMeetingServiceEvent@ZOOMSDK@@@std@@@std@@@std@@@std@@YAHV?$_Tree_const_iterator@V?$_Tree_val@U?$_Tree_simple_types@PAVIMeetingServiceEvent@ZOOMSDK@@@std@@@std@@@0@0@Z 00429e60 f i sdk_util.obj
 0001:00028e60       ??$distance@V?$_Tree_const_iterator@V?$_Tree_val@U?$_Tree_simple_types@PAVIClosedCaptionControllerEvent@ZOOMSDK@@@std@@@std@@@std@@@std@@YAHV?$_Tree_const_iterator@V?$_Tree_val@U?$_Tree_simple_types@PAVIClosedCaptionControllerEvent@ZOOMSDK@@@std@@@std@@@0@0@Z 00429e60 f i sdk_util.obj
 0001:00028ed0       ??$emplace_hint@ABQAVIAuthServiceEvent@ZOOMSDK@@@?$_Tree@V?$_Tset_traits@PAVIAuthServiceEvent@ZOOMSDK@@U?$less@PAVIAuthServiceEvent@ZOOMSDK@@@std@@V?$allocator@PAVIAuthServiceEvent@ZOOMSDK@@@4@$0A@@std@@@std@@QAE?AV?$_Tree_const_iterator@V?$_Tree_val@U?$_Tree_simple_types@PAVIAuthServiceEvent@ZOOMSDK@@@std@@@std@@@1@V21@ABQAVIAuthServiceEvent@ZOOMSDK@@@Z 00429ed0 f i sdk_util.obj
 0001:00028ed0       ??$emplace_hint@ABQAVIMeetingChatCtrlEvent@ZOOMSDK@@@?$_Tree@V?$_Tset_traits@PAVIMeetingChatCtrlEvent@ZOOMSDK@@U?$less@PAVIMeetingChatCtrlEvent@ZOOMSDK@@@std@@V?$allocator@PAVIMeetingChatCtrlEvent@ZOOMSDK@@@4@$0A@@std@@@std@@QAE?AV?$_Tree_const_iterator@V?$_Tree_val@U?$_Tree_simple_types@PAVIMeetingChatCtrlEvent@ZOOMSDK@@@std@@@std@@@1@V21@ABQAVIMeetingChatCtrlEvent@ZOOMSDK@@@Z 00429ed0 f i sdk_util.obj
 0001:00028ed0       ??$emplace_hint@ABQAVIMeetingParticipantsCtrlEvent@ZOOMSDK@@@?$_Tree@V?$_Tset_traits@PAVIMeetingParticipantsCtrlEvent@ZOOMSDK@@U?$less@PAVIMeetingParticipantsCtrlEvent@ZOOMSDK@@@std@@V?$allocator@PAVIMeetingParticipantsCtrlEvent@ZOOMSDK@@@4@$0A@@std@@@std@@QAE?AV?$_Tree_const_iterator@V?$_Tree_val@U?$_Tree_simple_types@PAVIMeetingParticipantsCtrlEvent@ZOOMSDK@@@std@@@std@@@1@V21@ABQAVIMeetingParticipantsCtrlEvent@ZOOMSDK@@@Z 00429ed0 f i sdk_util.obj
 0001:00028ed0       ??$emplace_hint@ABQAVIMeetingVideoCtrlEvent@ZOOMSDK@@@?$_Tree@V?$_Tset_traits@PAVIMeetingVideoCtrlEvent@ZOOMSDK@@U?$less@PAVIMeetingVideoCtrlEvent@ZOOMSDK@@@std@@V?$allocator@PAVIMeetingVideoCtrlEvent@ZOOMSDK@@@4@$0A@@std@@@std@@QAE?AV?$_Tree_const_iterator@V?$_Tree_val@U?$_Tree_simple_types@PAVIMeetingVideoCtrlEvent@ZOOMSDK@@@std@@@std@@@1@V21@ABQAVIMeetingVideoCtrlEvent@ZOOMSDK@@@Z 00429ed0 f i sdk_util.obj
 0001:00028ed0       ??$emplace_hint@ABQAVIPreMeetingServiceEvent@ZOOMSDK@@@?$_Tree@V?$_Tset_traits@PAVIPreMeetingServiceEvent@ZOOMSDK@@U?$less@PAVIPreMeetingServiceEvent@ZOOMSDK@@@std@@V?$allocator@PAVIPreMeetingServiceEvent@ZOOMSDK@@@4@$0A@@std@@@std@@QAE?AV?$_Tree_const_iterator@V?$_Tree_val@U?$_Tree_simple_types@PAVIPreMeetingServiceEvent@ZOOMSDK@@@std@@@std@@@1@V21@ABQAVIPreMeetingServiceEvent@ZOOMSDK@@@Z 00429ed0 f i sdk_util.obj
 0001:00028ed0       ??$emplace_hint@ABQAVIClosedCaptionControllerEvent@ZOOMSDK@@@?$_Tree@V?$_Tset_traits@PAVIClosedCaptionControllerEvent@ZOOMSDK@@U?$less@PAVIClosedCaptionControllerEvent@ZOOMSDK@@@std@@V?$allocator@PAVIClosedCaptionControllerEvent@ZOOMSDK@@@4@$0A@@std@@@std@@QAE?AV?$_Tree_const_iterator@V?$_Tree_val@U?$_Tree_simple_types@PAVIClosedCaptionControllerEvent@ZOOMSDK@@@std@@@std@@@1@V21@ABQAVIClosedCaptionControllerEvent@ZOOMSDK@@@Z 00429ed0 f i sdk_util.obj
 0001:00028ed0       ??$emplace_hint@ABQAVIMeetingServiceEvent@ZOOMSDK@@@?$_Tree@V?$_Tset_traits@PAVIMeetingServiceEvent@ZOOMSDK@@U?$less@PAVIMeetingServiceEvent@ZOOMSDK@@@std@@V?$allocator@PAVIMeetingServiceEvent@ZOOMSDK@@@4@$0A@@std@@@std@@QAE?AV?$_Tree_const_iterator@V?$_Tree_val@U?$_Tree_simple_types@PAVIMeetingServiceEvent@ZOOMSDK@@@std@@@std@@@1@V21@ABQAVIMeetingServiceEvent@ZOOMSDK@@@Z 00429ed0 f i sdk_util.obj
 0001:00028ed0       ??$emplace_hint@ABQAVISDKInMeetingServiceMgrEvent@@@?$_Tree@V?$_Tset_traits@PAVISDKInMeetingServiceMgrEvent@@U?$less@PAVISDKInMeetingServiceMgrEvent@@@std@@V?$allocator@PAVISDKInMeetingServiceMgrEvent@@@3@$0A@@std@@@std@@QAE?AV?$_Tree_const_iterator@V?$_Tree_val@U?$_Tree_simple_types@PAVISDKInMeetingServiceMgrEvent@@@std@@@std@@@1@V21@ABQAVISDKInMeetingServiceMgrEvent@@@Z 00429ed0 f i sdk_util.obj
 0001:00028f20       ??$insert@$0A@$0A@@?$_Tree@V?$_Tset_traits@PAVIMeetingServiceEvent@ZOOMSDK@@U?$less@PAVIMeetingServiceEvent@ZOOMSDK@@@std@@V?$allocator@PAVIMeetingServiceEvent@ZOOMSDK@@@4@$0A@@std@@@std@@QAE?AU?$pair@V?$_Tree_const_iterator@V?$_Tree_val@U?$_Tree_simple_types@PAVIMeetingServiceEvent@ZOOMSDK@@@std@@@std@@@std@@_N@1@ABQAVIMeetingServiceEvent@ZOOMSDK@@@Z 00429f20 f i sdk_util.obj
 0001:00028f20       ??$insert@$0A@$0A@@?$_Tree@V?$_Tset_traits@PAVIAuthServiceEvent@ZOOMSDK@@U?$less@PAVIAuthServiceEvent@ZOOMSDK@@@std@@V?$allocator@PAVIAuthServiceEvent@ZOOMSDK@@@4@$0A@@std@@@std@@QAE?AU?$pair@V?$_Tree_const_iterator@V?$_Tree_val@U?$_Tree_simple_types@PAVIAuthServiceEvent@ZOOMSDK@@@std@@@std@@@std@@_N@1@ABQAVIAuthServiceEvent@ZOOMSDK@@@Z 00429f20 f i sdk_util.obj
 0001:00028f20       ??$insert@$0A@$0A@@?$_Tree@V?$_Tset_traits@PAVISDKInMeetingServiceMgrEvent@@U?$less@PAVISDKInMeetingServiceMgrEvent@@@std@@V?$allocator@PAVISDKInMeetingServiceMgrEvent@@@3@$0A@@std@@@std@@QAE?AU?$pair@V?$_Tree_const_iterator@V?$_Tree_val@U?$_Tree_simple_types@PAVISDKInMeetingServiceMgrEvent@@@std@@@std@@@std@@_N@1@ABQAVISDKInMeetingServiceMgrEvent@@@Z 00429f20 f i sdk_util.obj
 0001:00028f20       ??$insert@$0A@$0A@@?$_Tree@V?$_Tset_traits@PAVIMeetingParticipantsCtrlEvent@ZOOMSDK@@U?$less@PAVIMeetingParticipantsCtrlEvent@ZOOMSDK@@@std@@V?$allocator@PAVIMeetingParticipantsCtrlEvent@ZOOMSDK@@@4@$0A@@std@@@std@@QAE?AU?$pair@V?$_Tree_const_iterator@V?$_Tree_val@U?$_Tree_simple_types@PAVIMeetingParticipantsCtrlEvent@ZOOMSDK@@@std@@@std@@@std@@_N@1@ABQAVIMeetingParticipantsCtrlEvent@ZOOMSDK@@@Z 00429f20 f i sdk_util.obj
 0001:00028f20       ??$insert@$0A@$0A@@?$_Tree@V?$_Tset_traits@PAVIClosedCaptionControllerEvent@ZOOMSDK@@U?$less@PAVIClosedCaptionControllerEvent@ZOOMSDK@@@std@@V?$allocator@PAVIClosedCaptionControllerEvent@ZOOMSDK@@@4@$0A@@std@@@std@@QAE?AU?$pair@V?$_Tree_const_iterator@V?$_Tree_val@U?$_Tree_simple_types@PAVIClosedCaptionControllerEvent@ZOOMSDK@@@std@@@std@@@std@@_N@1@ABQAVIClosedCaptionControllerEvent@ZOOMSDK@@@Z 00429f20 f i sdk_util.obj
 0001:00028f20       ??$insert@$0A@$0A@@?$_Tree@V?$_Tset_traits@PAVIMeetingChatCtrlEvent@ZOOMSDK@@U?$less@PAVIMeetingChatCtrlEvent@ZOOMSDK@@@std@@V?$allocator@PAVIMeetingChatCtrlEvent@ZOOMSDK@@@4@$0A@@std@@@std@@QAE?AU?$pair@V?$_Tree_const_iterator@V?$_Tree_val@U?$_Tree_simple_types@PAVIMeetingChatCtrlEvent@ZOOMSDK@@@std@@@std@@@std@@_N@1@ABQAVIMeetingChatCtrlEvent@ZOOMSDK@@@Z 00429f20 f i sdk_util.obj
 0001:00028f20       ??$insert@$0A@$0A@@?$_Tree@V?$_Tset_traits@PAVIMeetingVideoCtrlEvent@ZOOMSDK@@U?$less@PAVIMeetingVideoCtrlEvent@ZOOMSDK@@@std@@V?$allocator@PAVIMeetingVideoCtrlEvent@ZOOMSDK@@@4@$0A@@std@@@std@@QAE?AU?$pair@V?$_Tree_const_iterator@V?$_Tree_val@U?$_Tree_simple_types@PAVIMeetingVideoCtrlEvent@ZOOMSDK@@@std@@@std@@@std@@_N@1@ABQAVIMeetingVideoCtrlEvent@ZOOMSDK@@@Z 00429f20 f i sdk_util.obj
 0001:00028f20       ??$insert@$0A@$0A@@?$_Tree@V?$_Tset_traits@PAVIPreMeetingServiceEvent@ZOOMSDK@@U?$less@PAVIPreMeetingServiceEvent@ZOOMSDK@@@std@@V?$allocator@PAVIPreMeetingServiceEvent@ZOOMSDK@@@4@$0A@@std@@@std@@QAE?AU?$pair@V?$_Tree_const_iterator@V?$_Tree_val@U?$_Tree_simple_types@PAVIPreMeetingServiceEvent@ZOOMSDK@@@std@@@std@@@std@@_N@1@ABQAVIPreMeetingServiceEvent@ZOOMSDK@@@Z 00429f20 f i sdk_util.obj
 0001:00028f50       ??$insert@V?$_Tree_const_iterator@V?$_Tree_val@U?$_Tree_simple_types@PAVIClosedCaptionControllerEvent@ZOOMSDK@@@std@@@std@@@std@@@?$_Tree@V?$_Tset_traits@PAVIClosedCaptionControllerEvent@ZOOMSDK@@U?$less@PAVIClosedCaptionControllerEvent@ZOOMSDK@@@std@@V?$allocator@PAVIClosedCaptionControllerEvent@ZOOMSDK@@@4@$0A@@std@@@std@@QAEXV?$_Tree_const_iterator@V?$_Tree_val@U?$_Tree_simple_types@PAVIClosedCaptionControllerEvent@ZOOMSDK@@@std@@@std@@@1@0@Z 00429f50 f i sdk_util.obj
 0001:00028f50       ??$insert@V?$_Tree_const_iterator@V?$_Tree_val@U?$_Tree_simple_types@PAVIMeetingVideoCtrlEvent@ZOOMSDK@@@std@@@std@@@std@@@?$_Tree@V?$_Tset_traits@PAVIMeetingVideoCtrlEvent@ZOOMSDK@@U?$less@PAVIMeetingVideoCtrlEvent@ZOOMSDK@@@std@@V?$allocator@PAVIMeetingVideoCtrlEvent@ZOOMSDK@@@4@$0A@@std@@@std@@QAEXV?$_Tree_const_iterator@V?$_Tree_val@U?$_Tree_simple_types@PAVIMeetingVideoCtrlEvent@ZOOMSDK@@@std@@@std@@@1@0@Z 00429f50 f i sdk_util.obj
 0001:00028f50       ??$insert@V?$_Tree_const_iterator@V?$_Tree_val@U?$_Tree_simple_types@PAVIMeetingServiceEvent@ZOOMSDK@@@std@@@std@@@std@@@?$_Tree@V?$_Tset_traits@PAVIMeetingServiceEvent@ZOOMSDK@@U?$less@PAVIMeetingServiceEvent@ZOOMSDK@@@std@@V?$allocator@PAVIMeetingServiceEvent@ZOOMSDK@@@4@$0A@@std@@@std@@QAEXV?$_Tree_const_iterator@V?$_Tree_val@U?$_Tree_simple_types@PAVIMeetingServiceEvent@ZOOMSDK@@@std@@@std@@@1@0@Z 00429f50 f i sdk_util.obj
 0001:00028f50       ??$insert@V?$_Tree_const_iterator@V?$_Tree_val@U?$_Tree_simple_types@PAVIAuthServiceEvent@ZOOMSDK@@@std@@@std@@@std@@@?$_Tree@V?$_Tset_traits@PAVIAuthServiceEvent@ZOOMSDK@@U?$less@PAVIAuthServiceEvent@ZOOMSDK@@@std@@V?$allocator@PAVIAuthServiceEvent@ZOOMSDK@@@4@$0A@@std@@@std@@QAEXV?$_Tree_const_iterator@V?$_Tree_val@U?$_Tree_simple_types@PAVIAuthServiceEvent@ZOOMSDK@@@std@@@std@@@1@0@Z 00429f50 f i sdk_util.obj
 0001:00028f50       ??$insert@V?$_Tree_const_iterator@V?$_Tree_val@U?$_Tree_simple_types@PAVIPreMeetingServiceEvent@ZOOMSDK@@@std@@@std@@@std@@@?$_Tree@V?$_Tset_traits@PAVIPreMeetingServiceEvent@ZOOMSDK@@U?$less@PAVIPreMeetingServiceEvent@ZOOMSDK@@@std@@V?$allocator@PAVIPreMeetingServiceEvent@ZOOMSDK@@@4@$0A@@std@@@std@@QAEXV?$_Tree_const_iterator@V?$_Tree_val@U?$_Tree_simple_types@PAVIPreMeetingServiceEvent@ZOOMSDK@@@std@@@std@@@1@0@Z 00429f50 f i sdk_util.obj
 0001:00028f50       ??$insert@V?$_Tree_const_iterator@V?$_Tree_val@U?$_Tree_simple_types@PAVISDKInMeetingServiceMgrEvent@@@std@@@std@@@std@@@?$_Tree@V?$_Tset_traits@PAVISDKInMeetingServiceMgrEvent@@U?$less@PAVISDKInMeetingServiceMgrEvent@@@std@@V?$allocator@PAVISDKInMeetingServiceMgrEvent@@@3@$0A@@std@@@std@@QAEXV?$_Tree_const_iterator@V?$_Tree_val@U?$_Tree_simple_types@PAVISDKInMeetingServiceMgrEvent@@@std@@@std@@@1@0@Z 00429f50 f i sdk_util.obj
 0001:00028f50       ??$insert@V?$_Tree_const_iterator@V?$_Tree_val@U?$_Tree_simple_types@PAVIMeetingChatCtrlEvent@ZOOMSDK@@@std@@@std@@@std@@@?$_Tree@V?$_Tset_traits@PAVIMeetingChatCtrlEvent@ZOOMSDK@@U?$less@PAVIMeetingChatCtrlEvent@ZOOMSDK@@@std@@V?$allocator@PAVIMeetingChatCtrlEvent@ZOOMSDK@@@4@$0A@@std@@@std@@QAEXV?$_Tree_const_iterator@V?$_Tree_val@U?$_Tree_simple_types@PAVIMeetingChatCtrlEvent@ZOOMSDK@@@std@@@std@@@1@0@Z 00429f50 f i sdk_util.obj
 0001:00028f50       ??$insert@V?$_Tree_const_iterator@V?$_Tree_val@U?$_Tree_simple_types@PAVIMeetingParticipantsCtrlEvent@ZOOMSDK@@@std@@@std@@@std@@@?$_Tree@V?$_Tset_traits@PAVIMeetingParticipantsCtrlEvent@ZOOMSDK@@U?$less@PAVIMeetingParticipantsCtrlEvent@ZOOMSDK@@@std@@V?$allocator@PAVIMeetingParticipantsCtrlEvent@ZOOMSDK@@@4@$0A@@std@@@std@@QAEXV?$_Tree_const_iterator@V?$_Tree_val@U?$_Tree_simple_types@PAVIMeetingParticipantsCtrlEvent@ZOOMSDK@@@std@@@std@@@1@0@Z 00429f50 f i sdk_util.obj
 0001:00028fe0       ??$swap@DX@std@@YAXAAD0@Z  00429fe0 f i sdk_util.obj
 0001:00029020       ??0?$EventSinkPool@VIAuthServiceEvent@ZOOMSDK@@@@QAE@XZ 0042a020 f i sdk_util.obj
 0001:00029090       ??0?$EventSinkPool@VIClosedCaptionControllerEvent@ZOOMSDK@@@@QAE@XZ 0042a090 f i sdk_util.obj
 0001:00029100       ??0?$EventSinkPool@VIMeetingChatCtrlEvent@ZOOMSDK@@@@QAE@XZ 0042a100 f i sdk_util.obj
 0001:00029170       ??0?$EventSinkPool@VIMeetingParticipantsCtrlEvent@ZOOMSDK@@@@QAE@XZ 0042a170 f i sdk_util.obj
 0001:000291e0       ??0?$EventSinkPool@VIMeetingServiceEvent@ZOOMSDK@@@@QAE@XZ 0042a1e0 f i sdk_util.obj
 0001:00029250       ??0?$EventSinkPool@VIMeetingVideoCtrlEvent@ZOOMSDK@@@@QAE@XZ 0042a250 f i sdk_util.obj
 0001:000292c0       ??0?$EventSinkPool@VIPreMeetingServiceEvent@ZOOMSDK@@@@QAE@XZ 0042a2c0 f i sdk_util.obj
 0001:00029330       ??0?$EventSinkPool@VISDKInMeetingServiceMgrEvent@@@@QAE@XZ 0042a330 f i sdk_util.obj
 0001:000293a0       ??0?$_Tree@V?$_Tset_traits@PAVISDKInMeetingServiceMgrEvent@@U?$less@PAVISDKInMeetingServiceMgrEvent@@@std@@V?$allocator@PAVISDKInMeetingServiceMgrEvent@@@3@$0A@@std@@@std@@QAE@ABU?$less@PAVISDKInMeetingServiceMgrEvent@@@1@@Z 0042a3a0 f i sdk_util.obj
 0001:000293a0       ??0?$_Tree@V?$_Tset_traits@PAVIMeetingVideoCtrlEvent@ZOOMSDK@@U?$less@PAVIMeetingVideoCtrlEvent@ZOOMSDK@@@std@@V?$allocator@PAVIMeetingVideoCtrlEvent@ZOOMSDK@@@4@$0A@@std@@@std@@QAE@ABU?$less@PAVIMeetingVideoCtrlEvent@ZOOMSDK@@@1@@Z 0042a3a0 f i sdk_util.obj
 0001:000293a0       ??0?$_Tree@V?$_Tset_traits@PAVIMeetingParticipantsCtrlEvent@ZOOMSDK@@U?$less@PAVIMeetingParticipantsCtrlEvent@ZOOMSDK@@@std@@V?$allocator@PAVIMeetingParticipantsCtrlEvent@ZOOMSDK@@@4@$0A@@std@@@std@@QAE@ABU?$less@PAVIMeetingParticipantsCtrlEvent@ZOOMSDK@@@1@@Z 0042a3a0 f i sdk_util.obj
 0001:000293a0       ??0?$_Tree@V?$_Tset_traits@PAVIMeetingServiceEvent@ZOOMSDK@@U?$less@PAVIMeetingServiceEvent@ZOOMSDK@@@std@@V?$allocator@PAVIMeetingServiceEvent@ZOOMSDK@@@4@$0A@@std@@@std@@QAE@ABU?$less@PAVIMeetingServiceEvent@ZOOMSDK@@@1@@Z 0042a3a0 f i sdk_util.obj
 0001:000293a0       ??0?$_Tree@V?$_Tset_traits@PAVIMeetingChatCtrlEvent@ZOOMSDK@@U?$less@PAVIMeetingChatCtrlEvent@ZOOMSDK@@@std@@V?$allocator@PAVIMeetingChatCtrlEvent@ZOOMSDK@@@4@$0A@@std@@@std@@QAE@ABU?$less@PAVIMeetingChatCtrlEvent@ZOOMSDK@@@1@@Z 0042a3a0 f i sdk_util.obj
 0001:000293a0       ??0?$_Tree@V?$_Tset_traits@PAVIClosedCaptionControllerEvent@ZOOMSDK@@U?$less@PAVIClosedCaptionControllerEvent@ZOOMSDK@@@std@@V?$allocator@PAVIClosedCaptionControllerEvent@ZOOMSDK@@@4@$0A@@std@@@std@@QAE@ABU?$less@PAVIClosedCaptionControllerEvent@ZOOMSDK@@@1@@Z 0042a3a0 f i sdk_util.obj
 0001:000293a0       ??0?$_Tree@V?$_Tset_traits@PAVIPreMeetingServiceEvent@ZOOMSDK@@U?$less@PAVIPreMeetingServiceEvent@ZOOMSDK@@@std@@V?$allocator@PAVIPreMeetingServiceEvent@ZOOMSDK@@@4@$0A@@std@@@std@@QAE@ABU?$less@PAVIPreMeetingServiceEvent@ZOOMSDK@@@1@@Z 0042a3a0 f i sdk_util.obj
 0001:000293a0       ??0?$_Tree@V?$_Tset_traits@PAVIAuthServiceEvent@ZOOMSDK@@U?$less@PAVIAuthServiceEvent@ZOOMSDK@@@std@@V?$allocator@PAVIAuthServiceEvent@ZOOMSDK@@@4@$0A@@std@@@std@@QAE@ABU?$less@PAVIAuthServiceEvent@ZOOMSDK@@@1@@Z 0042a3a0 f i sdk_util.obj
 0001:000293d0       ??0?$_Tree_const_iterator@V?$_Tree_val@U?$_Tree_simple_types@PAVIMeetingServiceEvent@ZOOMSDK@@@std@@@std@@@std@@QAE@XZ 0042a3d0 f i sdk_util.obj
 0001:000293d0       ??0?$_Tree_const_iterator@V?$_Tree_val@U?$_Tree_simple_types@PAVIMeetingVideoCtrlEvent@ZOOMSDK@@@std@@@std@@@std@@QAE@XZ 0042a3d0 f i sdk_util.obj
 0001:000293d0       ??0?$_Tree_const_iterator@V?$_Tree_val@U?$_Tree_simple_types@PAVIAuthServiceEvent@ZOOMSDK@@@std@@@std@@@std@@QAE@XZ 0042a3d0 f i sdk_util.obj
 0001:000293d0       ??0?$_Tree_const_iterator@V?$_Tree_val@U?$_Tree_simple_types@PAVIMeetingChatCtrlEvent@ZOOMSDK@@@std@@@std@@@std@@QAE@XZ 0042a3d0 f i sdk_util.obj
 0001:000293d0       ??0?$_Tree_const_iterator@V?$_Tree_val@U?$_Tree_simple_types@PAVIClosedCaptionControllerEvent@ZOOMSDK@@@std@@@std@@@std@@QAE@XZ 0042a3d0 f i sdk_util.obj
 0001:000293d0       ??0?$_Tree_const_iterator@V?$_Tree_val@U?$_Tree_simple_types@PAVISDKInMeetingServiceMgrEvent@@@std@@@std@@@std@@QAE@XZ 0042a3d0 f i sdk_util.obj
 0001:000293d0       ??0?$_Tree_const_iterator@V?$_Tree_val@U?$_Tree_simple_types@PAVIPreMeetingServiceEvent@ZOOMSDK@@@std@@@std@@@std@@QAE@XZ 0042a3d0 f i sdk_util.obj
 0001:000293d0       ??0?$_Tree_const_iterator@V?$_Tree_val@U?$_Tree_simple_types@U?$pair@$$CBIPAVIUserInfo@ZOOMSDK@@@std@@@std@@@std@@@std@@QAE@XZ 0042a3d0 f i user_manager.obj
 0001:000293d0       ??0?$_Tree_const_iterator@V?$_Tree_val@U?$_Tree_simple_types@PAVIMeetingParticipantsCtrlEvent@ZOOMSDK@@@std@@@std@@@std@@QAE@XZ 0042a3d0 f i sdk_util.obj
 0001:000293f0       ??0?$set@PAVISDKInMeetingServiceMgrEvent@@U?$less@PAVISDKInMeetingServiceMgrEvent@@@std@@V?$allocator@PAVISDKInMeetingServiceMgrEvent@@@3@@std@@QAE@XZ 0042a3f0 f i sdk_util.obj
 0001:000293f0       ??0?$set@PAVIMeetingChatCtrlEvent@ZOOMSDK@@U?$less@PAVIMeetingChatCtrlEvent@ZOOMSDK@@@std@@V?$allocator@PAVIMeetingChatCtrlEvent@ZOOMSDK@@@4@@std@@QAE@XZ 0042a3f0 f i sdk_util.obj
 0001:000293f0       ??0?$set@PAVIMeetingVideoCtrlEvent@ZOOMSDK@@U?$less@PAVIMeetingVideoCtrlEvent@ZOOMSDK@@@std@@V?$allocator@PAVIMeetingVideoCtrlEvent@ZOOMSDK@@@4@@std@@QAE@XZ 0042a3f0 f i sdk_util.obj
 0001:000293f0       ??0?$set@PAVIAuthServiceEvent@ZOOMSDK@@U?$less@PAVIAuthServiceEvent@ZOOMSDK@@@std@@V?$allocator@PAVIAuthServiceEvent@ZOOMSDK@@@4@@std@@QAE@XZ 0042a3f0 f i sdk_util.obj
 0001:000293f0       ??0?$set@PAVIMeetingParticipantsCtrlEvent@ZOOMSDK@@U?$less@PAVIMeetingParticipantsCtrlEvent@ZOOMSDK@@@std@@V?$allocator@PAVIMeetingParticipantsCtrlEvent@ZOOMSDK@@@4@@std@@QAE@XZ 0042a3f0 f i sdk_util.obj
 0001:000293f0       ??0?$set@PAVIMeetingServiceEvent@ZOOMSDK@@U?$less@PAVIMeetingServiceEvent@ZOOMSDK@@@std@@V?$allocator@PAVIMeetingServiceEvent@ZOOMSDK@@@4@@std@@QAE@XZ 0042a3f0 f i sdk_util.obj
 0001:000293f0       ??0?$set@PAVIPreMeetingServiceEvent@ZOOMSDK@@U?$less@PAVIPreMeetingServiceEvent@ZOOMSDK@@@std@@V?$allocator@PAVIPreMeetingServiceEvent@ZOOMSDK@@@4@@std@@QAE@XZ 0042a3f0 f i sdk_util.obj
 0001:000293f0       ??0?$set@PAVIClosedCaptionControllerEvent@ZOOMSDK@@U?$less@PAVIClosedCaptionControllerEvent@ZOOMSDK@@@std@@V?$allocator@PAVIClosedCaptionControllerEvent@ZOOMSDK@@@4@@std@@QAE@XZ 0042a3f0 f i sdk_util.obj
 0001:00029410       ??0CAtlException@ATL@@QAE@J@Z 0042a410 f i sdk_util.obj
 0001:00029430       ??0CComAutoCriticalSection@ATL@@QAE@XZ 0042a430 f i sdk_util.obj
 0001:000294a0       ??0SDKInterfaceWrap@@AAE@XZ 0042a4a0 f   sdk_util.obj
 0001:000296a0       ??1?$EventSinkPool@VIAuthServiceEvent@ZOOMSDK@@@@UAE@XZ 0042a6a0 f i sdk_util.obj
 0001:000296f0       ??1?$EventSinkPool@VIClosedCaptionControllerEvent@ZOOMSDK@@@@UAE@XZ 0042a6f0 f i sdk_util.obj
 0001:00029740       ??1?$EventSinkPool@VIMeetingChatCtrlEvent@ZOOMSDK@@@@UAE@XZ 0042a740 f i sdk_util.obj
 0001:00029790       ??1?$EventSinkPool@VIMeetingParticipantsCtrlEvent@ZOOMSDK@@@@UAE@XZ 0042a790 f i sdk_util.obj
 0001:000297e0       ??1?$EventSinkPool@VIMeetingServiceEvent@ZOOMSDK@@@@UAE@XZ 0042a7e0 f i sdk_util.obj
 0001:00029830       ??1?$EventSinkPool@VIMeetingVideoCtrlEvent@ZOOMSDK@@@@UAE@XZ 0042a830 f i sdk_util.obj
 0001:00029880       ??1?$EventSinkPool@VIPreMeetingServiceEvent@ZOOMSDK@@@@UAE@XZ 0042a880 f i sdk_util.obj
 0001:000298d0       ??1?$EventSinkPool@VISDKInMeetingServiceMgrEvent@@@@UAE@XZ 0042a8d0 f i sdk_util.obj
 0001:00029920       ??1?$_Alloc_construct_ptr@V?$allocator@U?$_Tree_node@PAVIAuthServiceEvent@ZOOMSDK@@PAX@std@@@std@@@std@@QAE@XZ 0042a920 f i sdk_util.obj
 0001:00029920       ??1?$_Alloc_construct_ptr@V?$allocator@U?$_Tree_node@PAVIMeetingServiceEvent@ZOOMSDK@@PAX@std@@@std@@@std@@QAE@XZ 0042a920 f i sdk_util.obj
 0001:00029920       ??1?$_Alloc_construct_ptr@V?$allocator@U?$_Tree_node@PAVISDKInMeetingServiceMgrEvent@@PAX@std@@@std@@@std@@QAE@XZ 0042a920 f i sdk_util.obj
 0001:00029920       ??1?$_Alloc_construct_ptr@V?$allocator@U?$_Tree_node@PAVIPreMeetingServiceEvent@ZOOMSDK@@PAX@std@@@std@@@std@@QAE@XZ 0042a920 f i sdk_util.obj
 0001:00029920       ??1?$_Alloc_construct_ptr@V?$allocator@U?$_Tree_node@PAVIClosedCaptionControllerEvent@ZOOMSDK@@PAX@std@@@std@@@std@@QAE@XZ 0042a920 f i sdk_util.obj
 0001:00029920       ??1?$_Alloc_construct_ptr@V?$allocator@U?$_Tree_node@PAVIMeetingChatCtrlEvent@ZOOMSDK@@PAX@std@@@std@@@std@@QAE@XZ 0042a920 f i sdk_util.obj
 0001:00029920       ??1?$_Alloc_construct_ptr@V?$allocator@U?$_Tree_node@PAVIMeetingVideoCtrlEvent@ZOOMSDK@@PAX@std@@@std@@@std@@QAE@XZ 0042a920 f i sdk_util.obj
 0001:00029920       ??1?$_Alloc_construct_ptr@V?$allocator@U?$_Tree_node@PAVIMeetingParticipantsCtrlEvent@ZOOMSDK@@PAX@std@@@std@@@std@@QAE@XZ 0042a920 f i sdk_util.obj
 0001:00029980       ??1?$_Tree@V?$_Tset_traits@PAVIAuthServiceEvent@ZOOMSDK@@U?$less@PAVIAuthServiceEvent@ZOOMSDK@@@std@@V?$allocator@PAVIAuthServiceEvent@ZOOMSDK@@@4@$0A@@std@@@std@@QAE@XZ 0042a980 f i sdk_util.obj
 0001:00029980       ??1?$_Tree@V?$_Tset_traits@PAVISDKInMeetingServiceMgrEvent@@U?$less@PAVISDKInMeetingServiceMgrEvent@@@std@@V?$allocator@PAVISDKInMeetingServiceMgrEvent@@@3@$0A@@std@@@std@@QAE@XZ 0042a980 f i sdk_util.obj
 0001:00029980       ??1?$_Tree@V?$_Tset_traits@PAVIMeetingVideoCtrlEvent@ZOOMSDK@@U?$less@PAVIMeetingVideoCtrlEvent@ZOOMSDK@@@std@@V?$allocator@PAVIMeetingVideoCtrlEvent@ZOOMSDK@@@4@$0A@@std@@@std@@QAE@XZ 0042a980 f i sdk_util.obj
 0001:00029980       ??1?$_Tree@V?$_Tset_traits@PAVIMeetingServiceEvent@ZOOMSDK@@U?$less@PAVIMeetingServiceEvent@ZOOMSDK@@@std@@V?$allocator@PAVIMeetingServiceEvent@ZOOMSDK@@@4@$0A@@std@@@std@@QAE@XZ 0042a980 f i sdk_util.obj
 0001:00029980       ??1?$_Tree@V?$_Tset_traits@PAVIPreMeetingServiceEvent@ZOOMSDK@@U?$less@PAVIPreMeetingServiceEvent@ZOOMSDK@@@std@@V?$allocator@PAVIPreMeetingServiceEvent@ZOOMSDK@@@4@$0A@@std@@@std@@QAE@XZ 0042a980 f i sdk_util.obj
 0001:00029980       ??1?$_Tree@V?$_Tset_traits@PAVIClosedCaptionControllerEvent@ZOOMSDK@@U?$less@PAVIClosedCaptionControllerEvent@ZOOMSDK@@@std@@V?$allocator@PAVIClosedCaptionControllerEvent@ZOOMSDK@@@4@$0A@@std@@@std@@QAE@XZ 0042a980 f i sdk_util.obj
 0001:00029980       ??1?$_Tree@V?$_Tset_traits@PAVIMeetingParticipantsCtrlEvent@ZOOMSDK@@U?$less@PAVIMeetingParticipantsCtrlEvent@ZOOMSDK@@@std@@V?$allocator@PAVIMeetingParticipantsCtrlEvent@ZOOMSDK@@@4@$0A@@std@@@std@@QAE@XZ 0042a980 f i sdk_util.obj
 0001:00029980       ??1?$_Tree@V?$_Tset_traits@PAVIMeetingChatCtrlEvent@ZOOMSDK@@U?$less@PAVIMeetingChatCtrlEvent@ZOOMSDK@@@std@@V?$allocator@PAVIMeetingChatCtrlEvent@ZOOMSDK@@@4@$0A@@std@@@std@@QAE@XZ 0042a980 f i sdk_util.obj
 0001:000299b0       ??1?$set@PAVIMeetingChatCtrlEvent@ZOOMSDK@@U?$less@PAVIMeetingChatCtrlEvent@ZOOMSDK@@@std@@V?$allocator@PAVIMeetingChatCtrlEvent@ZOOMSDK@@@4@@std@@QAE@XZ 0042a9b0 f i sdk_util.obj
 0001:000299b0       ??1?$set@PAVIMeetingVideoCtrlEvent@ZOOMSDK@@U?$less@PAVIMeetingVideoCtrlEvent@ZOOMSDK@@@std@@V?$allocator@PAVIMeetingVideoCtrlEvent@ZOOMSDK@@@4@@std@@QAE@XZ 0042a9b0 f i sdk_util.obj
 0001:000299b0       ??1?$set@PAVIClosedCaptionControllerEvent@ZOOMSDK@@U?$less@PAVIClosedCaptionControllerEvent@ZOOMSDK@@@std@@V?$allocator@PAVIClosedCaptionControllerEvent@ZOOMSDK@@@4@@std@@QAE@XZ 0042a9b0 f i sdk_util.obj
 0001:000299b0       ??1?$set@PAVIAuthServiceEvent@ZOOMSDK@@U?$less@PAVIAuthServiceEvent@ZOOMSDK@@@std@@V?$allocator@PAVIAuthServiceEvent@ZOOMSDK@@@4@@std@@QAE@XZ 0042a9b0 f i sdk_util.obj
 0001:000299b0       ??1?$set@PAVIMeetingParticipantsCtrlEvent@ZOOMSDK@@U?$less@PAVIMeetingParticipantsCtrlEvent@ZOOMSDK@@@std@@V?$allocator@PAVIMeetingParticipantsCtrlEvent@ZOOMSDK@@@4@@std@@QAE@XZ 0042a9b0 f i sdk_util.obj
 0001:000299b0       ??1?$set@PAVISDKInMeetingServiceMgrEvent@@U?$less@PAVISDKInMeetingServiceMgrEvent@@@std@@V?$allocator@PAVISDKInMeetingServiceMgrEvent@@@3@@std@@QAE@XZ 0042a9b0 f i sdk_util.obj
 0001:000299b0       ??1?$set@PAVIPreMeetingServiceEvent@ZOOMSDK@@U?$less@PAVIPreMeetingServiceEvent@ZOOMSDK@@@std@@V?$allocator@PAVIPreMeetingServiceEvent@ZOOMSDK@@@4@@std@@QAE@XZ 0042a9b0 f i sdk_util.obj
 0001:000299b0       ??1?$set@PAVIMeetingServiceEvent@ZOOMSDK@@U?$less@PAVIMeetingServiceEvent@ZOOMSDK@@@std@@V?$allocator@PAVIMeetingServiceEvent@ZOOMSDK@@@4@@std@@QAE@XZ 0042a9b0 f i sdk_util.obj
 0001:000299d0       ??1CComAutoCriticalSection@ATL@@QAE@XZ 0042a9d0 f i sdk_util.obj
 0001:000299f0       ??1SDKInterfaceWrap@@EAE@XZ 0042a9f0 f   sdk_util.obj
 0001:00029af0       ??D?$_Tree_unchecked_const_iterator@V?$_Tree_val@U?$_Tree_simple_types@PAVIMeetingChatCtrlEvent@ZOOMSDK@@@std@@@std@@U_Iterator_base0@2@@std@@QBEABQAVIMeetingChatCtrlEvent@ZOOMSDK@@XZ 0042aaf0 f i sdk_util.obj
 0001:00029af0       ??D?$_Tree_unchecked_const_iterator@V?$_Tree_val@U?$_Tree_simple_types@PAVIClosedCaptionControllerEvent@ZOOMSDK@@@std@@@std@@U_Iterator_base0@2@@std@@QBEABQAVIClosedCaptionControllerEvent@ZOOMSDK@@XZ 0042aaf0 f i sdk_util.obj
 0001:00029af0       ??D?$_Tree_const_iterator@V?$_Tree_val@U?$_Tree_simple_types@PAVIMeetingServiceEvent@ZOOMSDK@@@std@@@std@@@std@@QBEABQAVIMeetingServiceEvent@ZOOMSDK@@XZ 0042aaf0 f i sdk_util.obj
 0001:00029af0       ??D?$_Tree_unchecked_const_iterator@V?$_Tree_val@U?$_Tree_simple_types@PAVIMeetingParticipantsCtrlEvent@ZOOMSDK@@@std@@@std@@U_Iterator_base0@2@@std@@QBEABQAVIMeetingParticipantsCtrlEvent@ZOOMSDK@@XZ 0042aaf0 f i sdk_util.obj
 0001:00029af0       ??D?$_Tree_const_iterator@V?$_Tree_val@U?$_Tree_simple_types@U?$pair@$$CBIPAVIUserInfo@ZOOMSDK@@@std@@@std@@@std@@@std@@QBEABU?$pair@$$CBIPAVIUserInfo@ZOOMSDK@@@1@XZ 0042aaf0 f i user_manager.obj
 0001:00029af0       ??D?$_Tree_const_iterator@V?$_Tree_val@U?$_Tree_simple_types@PAVIAuthServiceEvent@ZOOMSDK@@@std@@@std@@@std@@QBEABQAVIAuthServiceEvent@ZOOMSDK@@XZ 0042aaf0 f i sdk_util.obj
 0001:00029af0       ??D?$_Tree_const_iterator@V?$_Tree_val@U?$_Tree_simple_types@PAVIMeetingChatCtrlEvent@ZOOMSDK@@@std@@@std@@@std@@QBEABQAVIMeetingChatCtrlEvent@ZOOMSDK@@XZ 0042aaf0 f i sdk_util.obj
 0001:00029af0       ??D?$_Tree_const_iterator@V?$_Tree_val@U?$_Tree_simple_types@PAVISDKInMeetingServiceMgrEvent@@@std@@@std@@@std@@QBEABQAVISDKInMeetingServiceMgrEvent@@XZ 0042aaf0 f i sdk_util.obj
 0001:00029af0       ??D?$_Tree_unchecked_const_iterator@V?$_Tree_val@U?$_Tree_simple_types@PAVIMeetingVideoCtrlEvent@ZOOMSDK@@@std@@@std@@U_Iterator_base0@2@@std@@QBEABQAVIMeetingVideoCtrlEvent@ZOOMSDK@@XZ 0042aaf0 f i sdk_util.obj
 0001:00029af0       ??D?$_Tree_unchecked_const_iterator@V?$_Tree_val@U?$_Tree_simple_types@PAVIMeetingServiceEvent@ZOOMSDK@@@std@@@std@@U_Iterator_base0@2@@std@@QBEABQAVIMeetingServiceEvent@ZOOMSDK@@XZ 0042aaf0 f i sdk_util.obj
 0001:00029af0       ??D?$_Tree_unchecked_const_iterator@V?$_Tree_val@U?$_Tree_simple_types@PAVIAuthServiceEvent@ZOOMSDK@@@std@@@std@@U_Iterator_base0@2@@std@@QBEABQAVIAuthServiceEvent@ZOOMSDK@@XZ 0042aaf0 f i sdk_util.obj
 0001:00029af0       ??D?$_Tree_const_iterator@V?$_Tree_val@U?$_Tree_simple_types@PAVIMeetingParticipantsCtrlEvent@ZOOMSDK@@@std@@@std@@@std@@QBEABQAVIMeetingParticipantsCtrlEvent@ZOOMSDK@@XZ 0042aaf0 f i sdk_util.obj
 0001:00029af0       ??D?$_Tree_unchecked_const_iterator@V?$_Tree_val@U?$_Tree_simple_types@PAVISDKInMeetingServiceMgrEvent@@@std@@@std@@U_Iterator_base0@2@@std@@QBEABQAVISDKInMeetingServiceMgrEvent@@XZ 0042aaf0 f i sdk_util.obj
 0001:00029af0       ??D?$_Tree_const_iterator@V?$_Tree_val@U?$_Tree_simple_types@PAVIPreMeetingServiceEvent@ZOOMSDK@@@std@@@std@@@std@@QBEABQAVIPreMeetingServiceEvent@ZOOMSDK@@XZ 0042aaf0 f i sdk_util.obj
 0001:00029af0       ??D?$_Tree_const_iterator@V?$_Tree_val@U?$_Tree_simple_types@PAVIMeetingVideoCtrlEvent@ZOOMSDK@@@std@@@std@@@std@@QBEABQAVIMeetingVideoCtrlEvent@ZOOMSDK@@XZ 0042aaf0 f i sdk_util.obj
 0001:00029af0       ??D?$_Tree_const_iterator@V?$_Tree_val@U?$_Tree_simple_types@PAVIClosedCaptionControllerEvent@ZOOMSDK@@@std@@@std@@@std@@QBEABQAVIClosedCaptionControllerEvent@ZOOMSDK@@XZ 0042aaf0 f i sdk_util.obj
 0001:00029af0       ??D?$_Tree_unchecked_const_iterator@V?$_Tree_val@U?$_Tree_simple_types@PAVIPreMeetingServiceEvent@ZOOMSDK@@@std@@@std@@U_Iterator_base0@2@@std@@QBEABQAVIPreMeetingServiceEvent@ZOOMSDK@@XZ 0042aaf0 f i sdk_util.obj
 0001:00029b10       ??E?$_Tree_const_iterator@V?$_Tree_val@U?$_Tree_simple_types@PAVIPreMeetingServiceEvent@ZOOMSDK@@@std@@@std@@@std@@QAE?AV01@H@Z 0042ab10 f i sdk_util.obj
 0001:00029b10       ??E?$_Tree_const_iterator@V?$_Tree_val@U?$_Tree_simple_types@PAVIMeetingParticipantsCtrlEvent@ZOOMSDK@@@std@@@std@@@std@@QAE?AV01@H@Z 0042ab10 f i sdk_util.obj
 0001:00029b10       ??E?$_Tree_const_iterator@V?$_Tree_val@U?$_Tree_simple_types@PAVISDKInMeetingServiceMgrEvent@@@std@@@std@@@std@@QAE?AV01@H@Z 0042ab10 f i sdk_util.obj
 0001:00029b10       ??E?$_Tree_const_iterator@V?$_Tree_val@U?$_Tree_simple_types@PAVIAuthServiceEvent@ZOOMSDK@@@std@@@std@@@std@@QAE?AV01@H@Z 0042ab10 f i sdk_util.obj
 0001:00029b10       ??E?$_Tree_const_iterator@V?$_Tree_val@U?$_Tree_simple_types@PAVIClosedCaptionControllerEvent@ZOOMSDK@@@std@@@std@@@std@@QAE?AV01@H@Z 0042ab10 f i sdk_util.obj
 0001:00029b10       ??E?$_Tree_const_iterator@V?$_Tree_val@U?$_Tree_simple_types@PAVIMeetingServiceEvent@ZOOMSDK@@@std@@@std@@@std@@QAE?AV01@H@Z 0042ab10 f i sdk_util.obj
 0001:00029b10       ??E?$_Tree_const_iterator@V?$_Tree_val@U?$_Tree_simple_types@PAVIMeetingChatCtrlEvent@ZOOMSDK@@@std@@@std@@@std@@QAE?AV01@H@Z 0042ab10 f i sdk_util.obj
 0001:00029b10       ??E?$_Tree_const_iterator@V?$_Tree_val@U?$_Tree_simple_types@PAVIMeetingVideoCtrlEvent@ZOOMSDK@@@std@@@std@@@std@@QAE?AV01@H@Z 0042ab10 f i sdk_util.obj
 0001:00029b40       ??E?$_Tree_const_iterator@V?$_Tree_val@U?$_Tree_simple_types@PAVIMeetingChatCtrlEvent@ZOOMSDK@@@std@@@std@@@std@@QAEAAV01@XZ 0042ab40 f i sdk_util.obj
 0001:00029b40       ??E?$_Tree_const_iterator@V?$_Tree_val@U?$_Tree_simple_types@PAVIMeetingParticipantsCtrlEvent@ZOOMSDK@@@std@@@std@@@std@@QAEAAV01@XZ 0042ab40 f i sdk_util.obj
 0001:00029b40       ??E?$_Tree_const_iterator@V?$_Tree_val@U?$_Tree_simple_types@PAVIMeetingServiceEvent@ZOOMSDK@@@std@@@std@@@std@@QAEAAV01@XZ 0042ab40 f i sdk_util.obj
 0001:00029b40       ??E?$_Tree_const_iterator@V?$_Tree_val@U?$_Tree_simple_types@PAVIMeetingVideoCtrlEvent@ZOOMSDK@@@std@@@std@@@std@@QAEAAV01@XZ 0042ab40 f i sdk_util.obj
 0001:00029b40       ??E?$_Tree_const_iterator@V?$_Tree_val@U?$_Tree_simple_types@PAVIAuthServiceEvent@ZOOMSDK@@@std@@@std@@@std@@QAEAAV01@XZ 0042ab40 f i sdk_util.obj
 0001:00029b40       ??E?$_Tree_const_iterator@V?$_Tree_val@U?$_Tree_simple_types@PAVISDKInMeetingServiceMgrEvent@@@std@@@std@@@std@@QAEAAV01@XZ 0042ab40 f i sdk_util.obj
 0001:00029b40       ??E?$_Tree_const_iterator@V?$_Tree_val@U?$_Tree_simple_types@U?$pair@$$CBIPAVIUserInfo@ZOOMSDK@@@std@@@std@@@std@@@std@@QAEAAV01@XZ 0042ab40 f i user_manager.obj
 0001:00029b40       ??E?$_Tree_const_iterator@V?$_Tree_val@U?$_Tree_simple_types@PAVIClosedCaptionControllerEvent@ZOOMSDK@@@std@@@std@@@std@@QAEAAV01@XZ 0042ab40 f i sdk_util.obj
 0001:00029b40       ??E?$_Tree_const_iterator@V?$_Tree_val@U?$_Tree_simple_types@PAVIPreMeetingServiceEvent@ZOOMSDK@@@std@@@std@@@std@@QAEAAV01@XZ 0042ab40 f i sdk_util.obj
 0001:00029b60       ??E?$_Tree_unchecked_const_iterator@V?$_Tree_val@U?$_Tree_simple_types@PAVIMeetingParticipantsCtrlEvent@ZOOMSDK@@@std@@@std@@U_Iterator_base0@2@@std@@QAEAAV01@XZ 0042ab60 f i sdk_util.obj
 0001:00029b60       ??E?$_Tree_unchecked_const_iterator@V?$_Tree_val@U?$_Tree_simple_types@PAVIMeetingVideoCtrlEvent@ZOOMSDK@@@std@@@std@@U_Iterator_base0@2@@std@@QAEAAV01@XZ 0042ab60 f i sdk_util.obj
 0001:00029b60       ??E?$_Tree_unchecked_const_iterator@V?$_Tree_val@U?$_Tree_simple_types@PAVIMeetingServiceEvent@ZOOMSDK@@@std@@@std@@U_Iterator_base0@2@@std@@QAEAAV01@XZ 0042ab60 f i sdk_util.obj
 0001:00029b60       ??E?$_Tree_unchecked_const_iterator@V?$_Tree_val@U?$_Tree_simple_types@PAVISDKInMeetingServiceMgrEvent@@@std@@@std@@U_Iterator_base0@2@@std@@QAEAAV01@XZ 0042ab60 f i sdk_util.obj
 0001:00029b60       ??E?$_Tree_unchecked_const_iterator@V?$_Tree_val@U?$_Tree_simple_types@PAVIPreMeetingServiceEvent@ZOOMSDK@@@std@@@std@@U_Iterator_base0@2@@std@@QAEAAV01@XZ 0042ab60 f i sdk_util.obj
 0001:00029b60       ??E?$_Tree_unchecked_const_iterator@V?$_Tree_val@U?$_Tree_simple_types@PAVIMeetingChatCtrlEvent@ZOOMSDK@@@std@@@std@@U_Iterator_base0@2@@std@@QAEAAV01@XZ 0042ab60 f i sdk_util.obj
 0001:00029b60       ??E?$_Tree_unchecked_const_iterator@V?$_Tree_val@U?$_Tree_simple_types@U?$pair@$$CBIPAVIUserInfo@ZOOMSDK@@@std@@@std@@@std@@U_Iterator_base0@2@@std@@QAEAAV01@XZ 0042ab60 f i user_manager.obj
 0001:00029b60       ??E?$_Tree_unchecked_const_iterator@V?$_Tree_val@U?$_Tree_simple_types@PAVIClosedCaptionControllerEvent@ZOOMSDK@@@std@@@std@@U_Iterator_base0@2@@std@@QAEAAV01@XZ 0042ab60 f i sdk_util.obj
 0001:00029b60       ??E?$_Tree_unchecked_const_iterator@V?$_Tree_val@U?$_Tree_simple_types@PAVIAuthServiceEvent@ZOOMSDK@@@std@@@std@@U_Iterator_base0@2@@std@@QAEAAV01@XZ 0042ab60 f i sdk_util.obj
 0001:00029bd0       ??F?$_Tree_const_iterator@V?$_Tree_val@U?$_Tree_simple_types@PAVIPreMeetingServiceEvent@ZOOMSDK@@@std@@@std@@@std@@QAEAAV01@XZ 0042abd0 f i sdk_util.obj
 0001:00029bd0       ??F?$_Tree_const_iterator@V?$_Tree_val@U?$_Tree_simple_types@PAVIAuthServiceEvent@ZOOMSDK@@@std@@@std@@@std@@QAEAAV01@XZ 0042abd0 f i sdk_util.obj
 0001:00029bd0       ??F?$_Tree_const_iterator@V?$_Tree_val@U?$_Tree_simple_types@PAVISDKInMeetingServiceMgrEvent@@@std@@@std@@@std@@QAEAAV01@XZ 0042abd0 f i sdk_util.obj
 0001:00029bd0       ??F?$_Tree_const_iterator@V?$_Tree_val@U?$_Tree_simple_types@PAVIClosedCaptionControllerEvent@ZOOMSDK@@@std@@@std@@@std@@QAEAAV01@XZ 0042abd0 f i sdk_util.obj
 0001:00029bd0       ??F?$_Tree_const_iterator@V?$_Tree_val@U?$_Tree_simple_types@U?$pair@$$CBIPAVIUserInfo@ZOOMSDK@@@std@@@std@@@std@@@std@@QAEAAV01@XZ 0042abd0 f i user_manager.obj
 0001:00029bd0       ??F?$_Tree_const_iterator@V?$_Tree_val@U?$_Tree_simple_types@PAVIMeetingChatCtrlEvent@ZOOMSDK@@@std@@@std@@@std@@QAEAAV01@XZ 0042abd0 f i sdk_util.obj
 0001:00029bd0       ??F?$_Tree_const_iterator@V?$_Tree_val@U?$_Tree_simple_types@PAVIMeetingParticipantsCtrlEvent@ZOOMSDK@@@std@@@std@@@std@@QAEAAV01@XZ 0042abd0 f i sdk_util.obj
 0001:00029bd0       ??F?$_Tree_const_iterator@V?$_Tree_val@U?$_Tree_simple_types@PAVIMeetingServiceEvent@ZOOMSDK@@@std@@@std@@@std@@QAEAAV01@XZ 0042abd0 f i sdk_util.obj
 0001:00029bd0       ??F?$_Tree_const_iterator@V?$_Tree_val@U?$_Tree_simple_types@PAVIMeetingVideoCtrlEvent@ZOOMSDK@@@std@@@std@@@std@@QAEAAV01@XZ 0042abd0 f i sdk_util.obj
 0001:00029bf0       ??F?$_Tree_unchecked_const_iterator@V?$_Tree_val@U?$_Tree_simple_types@PAVIPreMeetingServiceEvent@ZOOMSDK@@@std@@@std@@U_Iterator_base0@2@@std@@QAEAAV01@XZ 0042abf0 f i sdk_util.obj
 0001:00029bf0       ??F?$_Tree_unchecked_const_iterator@V?$_Tree_val@U?$_Tree_simple_types@PAVIMeetingChatCtrlEvent@ZOOMSDK@@@std@@@std@@U_Iterator_base0@2@@std@@QAEAAV01@XZ 0042abf0 f i sdk_util.obj
 0001:00029bf0       ??F?$_Tree_unchecked_const_iterator@V?$_Tree_val@U?$_Tree_simple_types@PAVIClosedCaptionControllerEvent@ZOOMSDK@@@std@@@std@@U_Iterator_base0@2@@std@@QAEAAV01@XZ 0042abf0 f i sdk_util.obj
 0001:00029bf0       ??F?$_Tree_unchecked_const_iterator@V?$_Tree_val@U?$_Tree_simple_types@PAVIAuthServiceEvent@ZOOMSDK@@@std@@@std@@U_Iterator_base0@2@@std@@QAEAAV01@XZ 0042abf0 f i sdk_util.obj
 0001:00029bf0       ??F?$_Tree_unchecked_const_iterator@V?$_Tree_val@U?$_Tree_simple_types@PAVIMeetingServiceEvent@ZOOMSDK@@@std@@@std@@U_Iterator_base0@2@@std@@QAEAAV01@XZ 0042abf0 f i sdk_util.obj
 0001:00029bf0       ??F?$_Tree_unchecked_const_iterator@V?$_Tree_val@U?$_Tree_simple_types@U?$pair@$$CBIPAVIUserInfo@ZOOMSDK@@@std@@@std@@@std@@U_Iterator_base0@2@@std@@QAEAAV01@XZ 0042abf0 f i user_manager.obj
 0001:00029bf0       ??F?$_Tree_unchecked_const_iterator@V?$_Tree_val@U?$_Tree_simple_types@PAVIMeetingParticipantsCtrlEvent@ZOOMSDK@@@std@@@std@@U_Iterator_base0@2@@std@@QAEAAV01@XZ 0042abf0 f i sdk_util.obj
 0001:00029bf0       ??F?$_Tree_unchecked_const_iterator@V?$_Tree_val@U?$_Tree_simple_types@PAVISDKInMeetingServiceMgrEvent@@@std@@@std@@U_Iterator_base0@2@@std@@QAEAAV01@XZ 0042abf0 f i sdk_util.obj
 0001:00029bf0       ??F?$_Tree_unchecked_const_iterator@V?$_Tree_val@U?$_Tree_simple_types@PAVIMeetingVideoCtrlEvent@ZOOMSDK@@@std@@@std@@U_Iterator_base0@2@@std@@QAEAAV01@XZ 0042abf0 f i sdk_util.obj
 0001:00029c90       ??R?$less@PAVIClosedCaptionControllerEvent@ZOOMSDK@@@std@@QBE_NABQAVIClosedCaptionControllerEvent@ZOOMSDK@@0@Z 0042ac90 f i sdk_util.obj
 0001:00029c90       ??R?$less@PAVIMeetingVideoCtrlEvent@ZOOMSDK@@@std@@QBE_NABQAVIMeetingVideoCtrlEvent@ZOOMSDK@@0@Z 0042ac90 f i sdk_util.obj
 0001:00029c90       ??R?$less@PAVIMeetingChatCtrlEvent@ZOOMSDK@@@std@@QBE_NABQAVIMeetingChatCtrlEvent@ZOOMSDK@@0@Z 0042ac90 f i sdk_util.obj
 0001:00029c90       ??R?$less@I@std@@QBE_NABI0@Z 0042ac90 f i user_manager.obj
 0001:00029c90       ??R?$less@PAVIMeetingServiceEvent@ZOOMSDK@@@std@@QBE_NABQAVIMeetingServiceEvent@ZOOMSDK@@0@Z 0042ac90 f i sdk_util.obj
 0001:00029c90       ??R?$less@PAVIPreMeetingServiceEvent@ZOOMSDK@@@std@@QBE_NABQAVIPreMeetingServiceEvent@ZOOMSDK@@0@Z 0042ac90 f i sdk_util.obj
 0001:00029c90       ??R?$less@PAVIAuthServiceEvent@ZOOMSDK@@@std@@QBE_NABQAVIAuthServiceEvent@ZOOMSDK@@0@Z 0042ac90 f i sdk_util.obj
 0001:00029c90       ??R?$less@PAVISDKInMeetingServiceMgrEvent@@@std@@QBE_NABQAVISDKInMeetingServiceMgrEvent@@0@Z 0042ac90 f i sdk_util.obj
 0001:00029c90       ??R?$less@PAVIMeetingParticipantsCtrlEvent@ZOOMSDK@@@std@@QBE_NABQAVIMeetingParticipantsCtrlEvent@ZOOMSDK@@0@Z 0042ac90 f i sdk_util.obj
 0001:00029cc0       ??_E?$EventSinkPool@VIAuthServiceEvent@ZOOMSDK@@@@UAEPAXI@Z 0042acc0 f i sdk_util.obj
 0001:00029cc0       ??_G?$EventSinkPool@VIAuthServiceEvent@ZOOMSDK@@@@UAEPAXI@Z 0042acc0 f i sdk_util.obj
 0001:00029cf0       ??_E?$EventSinkPool@VIClosedCaptionControllerEvent@ZOOMSDK@@@@UAEPAXI@Z 0042acf0 f i sdk_util.obj
 0001:00029cf0       ??_G?$EventSinkPool@VIClosedCaptionControllerEvent@ZOOMSDK@@@@UAEPAXI@Z 0042acf0 f i sdk_util.obj
 0001:00029d20       ??_G?$EventSinkPool@VIMeetingChatCtrlEvent@ZOOMSDK@@@@UAEPAXI@Z 0042ad20 f i sdk_util.obj
 0001:00029d20       ??_E?$EventSinkPool@VIMeetingChatCtrlEvent@ZOOMSDK@@@@UAEPAXI@Z 0042ad20 f i sdk_util.obj
 0001:00029d50       ??_G?$EventSinkPool@VIMeetingParticipantsCtrlEvent@ZOOMSDK@@@@UAEPAXI@Z 0042ad50 f i sdk_util.obj
 0001:00029d50       ??_E?$EventSinkPool@VIMeetingParticipantsCtrlEvent@ZOOMSDK@@@@UAEPAXI@Z 0042ad50 f i sdk_util.obj
 0001:00029d80       ??_E?$EventSinkPool@VIMeetingServiceEvent@ZOOMSDK@@@@UAEPAXI@Z 0042ad80 f i sdk_util.obj
 0001:00029d80       ??_G?$EventSinkPool@VIMeetingServiceEvent@ZOOMSDK@@@@UAEPAXI@Z 0042ad80 f i sdk_util.obj
 0001:00029db0       ??_E?$EventSinkPool@VIMeetingVideoCtrlEvent@ZOOMSDK@@@@UAEPAXI@Z 0042adb0 f i sdk_util.obj
 0001:00029db0       ??_G?$EventSinkPool@VIMeetingVideoCtrlEvent@ZOOMSDK@@@@UAEPAXI@Z 0042adb0 f i sdk_util.obj
 0001:00029de0       ??_E?$EventSinkPool@VIPreMeetingServiceEvent@ZOOMSDK@@@@UAEPAXI@Z 0042ade0 f i sdk_util.obj
 0001:00029de0       ??_G?$EventSinkPool@VIPreMeetingServiceEvent@ZOOMSDK@@@@UAEPAXI@Z 0042ade0 f i sdk_util.obj
 0001:00029e10       ??_E?$EventSinkPool@VISDKInMeetingServiceMgrEvent@@@@UAEPAXI@Z 0042ae10 f i sdk_util.obj
 0001:00029e10       ??_G?$EventSinkPool@VISDKInMeetingServiceMgrEvent@@@@UAEPAXI@Z 0042ae10 f i sdk_util.obj
 0001:00029e40       ??_ESDKInterfaceWrap@@EAEPAXI@Z 0042ae40 f i sdk_util.obj
 0001:00029e40       ??_GSDKInterfaceWrap@@EAEPAXI@Z 0042ae40 f i sdk_util.obj
 0001:00029e80       ?ActiveWindowToTop@@YAXPAUHWND__@@H@Z 0042ae80 f   sdk_util.obj
 0001:00029f80       ?AddListener@?$EventSinkPool@VIMeetingServiceEvent@ZOOMSDK@@@@QAEXPAVIMeetingServiceEvent@ZOOMSDK@@@Z 0042af80 f i sdk_util.obj
 0001:00029f80       ?AddListener@?$EventSinkPool@VIMeetingVideoCtrlEvent@ZOOMSDK@@@@QAEXPAVIMeetingVideoCtrlEvent@ZOOMSDK@@@Z 0042af80 f i sdk_util.obj
 0001:00029f80       ?AddListener@?$EventSinkPool@VIPreMeetingServiceEvent@ZOOMSDK@@@@QAEXPAVIPreMeetingServiceEvent@ZOOMSDK@@@Z 0042af80 f i sdk_util.obj
 0001:00029f80       ?AddListener@?$EventSinkPool@VIMeetingParticipantsCtrlEvent@ZOOMSDK@@@@QAEXPAVIMeetingParticipantsCtrlEvent@ZOOMSDK@@@Z 0042af80 f i sdk_util.obj
 0001:00029f80       ?AddListener@?$EventSinkPool@VIClosedCaptionControllerEvent@ZOOMSDK@@@@QAEXPAVIClosedCaptionControllerEvent@ZOOMSDK@@@Z 0042af80 f i sdk_util.obj
 0001:00029f80       ?AddListener@?$EventSinkPool@VIMeetingChatCtrlEvent@ZOOMSDK@@@@QAEXPAVIMeetingChatCtrlEvent@ZOOMSDK@@@Z 0042af80 f i sdk_util.obj
 0001:00029f80       ?AddListener@?$EventSinkPool@VIAuthServiceEvent@ZOOMSDK@@@@QAEXPAVIAuthServiceEvent@ZOOMSDK@@@Z 0042af80 f i sdk_util.obj
 0001:00029f80       ?AddListener@?$EventSinkPool@VISDKInMeetingServiceMgrEvent@@@@QAEXPAVISDKInMeetingServiceMgrEvent@@@Z 0042af80 f i sdk_util.obj
 0001:00029fc0       ?AtlThrowImpl@ATL@@YGXJ@Z  0042afc0 f i sdk_util.obj
 0001:00029ff0       ?Cleanup@SDKInterfaceWrap@@QAE?AW4SDKError@ZOOMSDK@@XZ 0042aff0 f   sdk_util.obj
 0001:0002a120       ?GetAuthService@SDKInterfaceWrap@@QAEPAVIAuthService@ZOOMSDK@@XZ 0042b120 f   sdk_util.obj
 0001:0002a190       ?GetCloseCaptionController@SDKInterfaceWrap@@QAEPAVIClosedCaptionController@ZOOMSDK@@XZ 0042b190 f   sdk_util.obj
 0001:0002a230       ?GetCustomizedAnnotationController@SDKInterfaceWrap@@QAEPAVICustomizedAnnotationController@ZOOMSDK@@PAVICustomizedShareRender@3@@Z 0042b230 f   sdk_util.obj
 0001:0002a2b0       ?GetInst@SDKInterfaceWrap@@SAAAV1@XZ 0042b2b0 f   sdk_util.obj
 0001:0002a350       ?GetLastError@SDKInterfaceWrap@@QAEPBVIZoomLastError@ZOOMSDK@@XZ 0042b350 f   sdk_util.obj
 0001:0002a390       ?GetMeetingChatController@SDKInterfaceWrap@@QAEPAVIMeetingChatController@ZOOMSDK@@XZ 0042b390 f   sdk_util.obj
 0001:0002a430       ?GetMeetingParticipantsController@SDKInterfaceWrap@@QAEPAVIMeetingParticipantsController@ZOOMSDK@@XZ 0042b430 f   sdk_util.obj
 0001:0002a4d0       ?GetMeetingRemoteController@SDKInterfaceWrap@@QAEPAVIMeetingRemoteController@ZOOMSDK@@XZ 0042b4d0 f   sdk_util.obj
 0001:0002a520       ?GetMeetingService@SDKInterfaceWrap@@QAEPAVIMeetingService@ZOOMSDK@@XZ 0042b520 f   sdk_util.obj
 0001:0002a5c0       ?GetMeetingVideoController@SDKInterfaceWrap@@QAEPAVIMeetingVideoController@ZOOMSDK@@XZ 0042b5c0 f   sdk_util.obj
 0001:0002a660       ?GetNetworkConnectionHelper@SDKInterfaceWrap@@QAEPAVINetworkConnectionHelper@ZOOMSDK@@XZ 0042b660 f   sdk_util.obj
 0001:0002a6a0       ?GetPreMeetingService@SDKInterfaceWrap@@QAEPAVIPreMeetingService@ZOOMSDK@@XZ 0042b6a0 f   sdk_util.obj
 0001:0002a730       ?GetSettingService@SDKInterfaceWrap@@QAEPAVISettingService@ZOOMSDK@@XZ 0042b730 f   sdk_util.obj
 0001:0002a770       ?Init@SDKInterfaceWrap@@QAE?AW4SDKError@ZOOMSDK@@AAUtagInitParam@3@@Z 0042b770 f   sdk_util.obj
 0001:0002a7f0       ?ListenAuthServiceEvent@SDKInterfaceWrap@@QAEXPAVIAuthServiceEvent@ZOOMSDK@@@Z 0042b7f0 f   sdk_util.obj
 0001:0002a820       ?ListenChatServiceMgrEvent@SDKInterfaceWrap@@QAEXPAVIMeetingChatCtrlEvent@ZOOMSDK@@@Z 0042b820 f   sdk_util.obj
 0001:0002a840       ?ListenCloseCaptionEvent@SDKInterfaceWrap@@QAEXPAVIClosedCaptionControllerEvent@ZOOMSDK@@@Z 0042b840 f   sdk_util.obj
 0001:0002a860       ?ListenInMeetingServiceMgrEvent@SDKInterfaceWrap@@QAEXPAVISDKInMeetingServiceMgrEvent@@@Z 0042b860 f   sdk_util.obj
 0001:0002a880       ?ListenMeetingParticipantsCtrEvent@SDKInterfaceWrap@@QAEXPAVIMeetingParticipantsCtrlEvent@ZOOMSDK@@@Z 0042b880 f   sdk_util.obj
 0001:0002a8a0       ?ListenMeetingServiceEvent@SDKInterfaceWrap@@QAEXPAVIMeetingServiceEvent@ZOOMSDK@@@Z 0042b8a0 f   sdk_util.obj
 0001:0002a8c0       ?ListenMeetingVideoCtrEvent@SDKInterfaceWrap@@QAEXPAVIMeetingVideoCtrlEvent@ZOOMSDK@@@Z 0042b8c0 f   sdk_util.obj
 0001:0002a8e0       ?ListenPremeetingServiceEvent@SDKInterfaceWrap@@QAEXPAVIPreMeetingServiceEvent@ZOOMSDK@@@Z 0042b8e0 f   sdk_util.obj
 0001:0002a900       ?Lock@CComCriticalSection@ATL@@QAEJXZ 0042b900 f i sdk_util.obj
 0001:0002a920       ?OnMicSpkVolumnChanged@SDKInterfaceWrap@@UAEXII@Z 0042b920 f i sdk_util.obj
 0001:0002aa40       ?OnNoAudioDeviceIsUseful@SDKInterfaceWrap@@UAEX_N@Z 0042ba40 f i sdk_util.obj
 0001:0002ab50       ?OnNoVideoDeviceIsUseful@SDKInterfaceWrap@@UAEXXZ 0042bb50 f i sdk_util.obj
 0001:0002ac60       ?OnNoWindowToShowPreview@SDKInterfaceWrap@@UAEXXZ 0042bc60 f i sdk_util.obj
 0001:0002ad70       ?OnSelectedAudioDeviceIsChanged@SDKInterfaceWrap@@UAEXXZ 0042bd70 f i sdk_util.obj
 0001:0002ae80       ?OnSelectedVideoDeviceIsChanged@SDKInterfaceWrap@@UAEXXZ 0042be80 f i sdk_util.obj
 0001:0002af90       ?OnTestMicStatusChanged@SDKInterfaceWrap@@UAEXW4SDK_TESTMIC_STATUS@ZOOMSDK@@AA_N@Z 0042bf90 f i sdk_util.obj
 0001:0002b0b0       ?RemoveListener@?$EventSinkPool@VIClosedCaptionControllerEvent@ZOOMSDK@@@@QAEXPAVIClosedCaptionControllerEvent@ZOOMSDK@@@Z 0042c0b0 f i sdk_util.obj
 0001:0002b0b0       ?RemoveListener@?$EventSinkPool@VIMeetingParticipantsCtrlEvent@ZOOMSDK@@@@QAEXPAVIMeetingParticipantsCtrlEvent@ZOOMSDK@@@Z 0042c0b0 f i sdk_util.obj
 0001:0002b0b0       ?RemoveListener@?$EventSinkPool@VIMeetingChatCtrlEvent@ZOOMSDK@@@@QAEXPAVIMeetingChatCtrlEvent@ZOOMSDK@@@Z 0042c0b0 f i sdk_util.obj
 0001:0002b0b0       ?RemoveListener@?$EventSinkPool@VISDKInMeetingServiceMgrEvent@@@@QAEXPAVISDKInMeetingServiceMgrEvent@@@Z 0042c0b0 f i sdk_util.obj
 0001:0002b0b0       ?RemoveListener@?$EventSinkPool@VIAuthServiceEvent@ZOOMSDK@@@@QAEXPAVIAuthServiceEvent@ZOOMSDK@@@Z 0042c0b0 f i sdk_util.obj
 0001:0002b0b0       ?RemoveListener@?$EventSinkPool@VIMeetingServiceEvent@ZOOMSDK@@@@QAEXPAVIMeetingServiceEvent@ZOOMSDK@@@Z 0042c0b0 f i sdk_util.obj
 0001:0002b0b0       ?RemoveListener@?$EventSinkPool@VIPreMeetingServiceEvent@ZOOMSDK@@@@QAEXPAVIPreMeetingServiceEvent@ZOOMSDK@@@Z 0042c0b0 f i sdk_util.obj
 0001:0002b0f0       ?SetDataToClipboard@@YA_NPB_WPAUHWND__@@@Z 0042c0f0 f   sdk_util.obj
 0001:0002b1e0       ?UnListenAuthServiceEvent@SDKInterfaceWrap@@QAEXPAVIAuthServiceEvent@ZOOMSDK@@@Z 0042c1e0 f   sdk_util.obj
 0001:0002b200       ?UnListenChatServiceMgrEvent@SDKInterfaceWrap@@QAEXPAVIMeetingChatCtrlEvent@ZOOMSDK@@@Z 0042c200 f   sdk_util.obj
 0001:0002b220       ?UnListenCloseCaptionEvent@SDKInterfaceWrap@@QAEXPAVIClosedCaptionControllerEvent@ZOOMSDK@@@Z 0042c220 f   sdk_util.obj
 0001:0002b240       ?UnListenInMeetingServiceMgrEvent@SDKInterfaceWrap@@QAEXPAVISDKInMeetingServiceMgrEvent@@@Z 0042c240 f   sdk_util.obj
 0001:0002b260       ?UnListenMeetingParticipantsCtrEvent@SDKInterfaceWrap@@QAEXPAVIMeetingParticipantsCtrlEvent@ZOOMSDK@@@Z 0042c260 f   sdk_util.obj
 0001:0002b280       ?UnListenMeetingServiceEvent@SDKInterfaceWrap@@QAEXPAVIMeetingServiceEvent@ZOOMSDK@@@Z 0042c280 f   sdk_util.obj
 0001:0002b2a0       ?UnListenPremeetingServiceEvent@SDKInterfaceWrap@@QAEXPAVIPreMeetingServiceEvent@ZOOMSDK@@@Z 0042c2a0 f   sdk_util.obj
 0001:0002b2c0       ?Unlock@CComCriticalSection@ATL@@QAEJXZ 0042c2c0 f i sdk_util.obj
 0001:0002b2e0       ?_Alloc_sentinel_and_proxy@?$_Tree@V?$_Tset_traits@PAVISDKInMeetingServiceMgrEvent@@U?$less@PAVISDKInMeetingServiceMgrEvent@@@std@@V?$allocator@PAVISDKInMeetingServiceMgrEvent@@@3@$0A@@std@@@std@@IAEXXZ 0042c2e0 f i sdk_util.obj
 0001:0002b2e0       ?_Alloc_sentinel_and_proxy@?$_Tree@V?$_Tset_traits@PAVIMeetingChatCtrlEvent@ZOOMSDK@@U?$less@PAVIMeetingChatCtrlEvent@ZOOMSDK@@@std@@V?$allocator@PAVIMeetingChatCtrlEvent@ZOOMSDK@@@4@$0A@@std@@@std@@IAEXXZ 0042c2e0 f i sdk_util.obj
 0001:0002b2e0       ?_Alloc_sentinel_and_proxy@?$_Tree@V?$_Tset_traits@PAVIMeetingServiceEvent@ZOOMSDK@@U?$less@PAVIMeetingServiceEvent@ZOOMSDK@@@std@@V?$allocator@PAVIMeetingServiceEvent@ZOOMSDK@@@4@$0A@@std@@@std@@IAEXXZ 0042c2e0 f i sdk_util.obj
 0001:0002b2e0       ?_Alloc_sentinel_and_proxy@?$_Tree@V?$_Tset_traits@PAVIClosedCaptionControllerEvent@ZOOMSDK@@U?$less@PAVIClosedCaptionControllerEvent@ZOOMSDK@@@std@@V?$allocator@PAVIClosedCaptionControllerEvent@ZOOMSDK@@@4@$0A@@std@@@std@@IAEXXZ 0042c2e0 f i sdk_util.obj
 0001:0002b2e0       ?_Alloc_sentinel_and_proxy@?$_Tree@V?$_Tset_traits@PAVIAuthServiceEvent@ZOOMSDK@@U?$less@PAVIAuthServiceEvent@ZOOMSDK@@@std@@V?$allocator@PAVIAuthServiceEvent@ZOOMSDK@@@4@$0A@@std@@@std@@IAEXXZ 0042c2e0 f i sdk_util.obj
 0001:0002b2e0       ?_Alloc_sentinel_and_proxy@?$_Tree@V?$_Tset_traits@PAVIMeetingParticipantsCtrlEvent@ZOOMSDK@@U?$less@PAVIMeetingParticipantsCtrlEvent@ZOOMSDK@@@std@@V?$allocator@PAVIMeetingParticipantsCtrlEvent@ZOOMSDK@@@4@$0A@@std@@@std@@IAEXXZ 0042c2e0 f i sdk_util.obj
 0001:0002b2e0       ?_Alloc_sentinel_and_proxy@?$_Tree@V?$_Tset_traits@PAVIMeetingVideoCtrlEvent@ZOOMSDK@@U?$less@PAVIMeetingVideoCtrlEvent@ZOOMSDK@@@std@@V?$allocator@PAVIMeetingVideoCtrlEvent@ZOOMSDK@@@4@$0A@@std@@@std@@IAEXXZ 0042c2e0 f i sdk_util.obj
 0001:0002b2e0       ?_Alloc_sentinel_and_proxy@?$_Tree@V?$_Tset_traits@PAVIPreMeetingServiceEvent@ZOOMSDK@@U?$less@PAVIPreMeetingServiceEvent@ZOOMSDK@@@std@@V?$allocator@PAVIPreMeetingServiceEvent@ZOOMSDK@@@4@$0A@@std@@@std@@IAEXXZ 0042c2e0 f i sdk_util.obj
 0001:0002b330       ?_Allocate@?$_Alloc_construct_ptr@V?$allocator@U?$_Tree_node@PAVIPreMeetingServiceEvent@ZOOMSDK@@PAX@std@@@std@@@std@@QAEXXZ 0042c330 f i sdk_util.obj
 0001:0002b330       ?_Allocate@?$_Alloc_construct_ptr@V?$allocator@U?$_Tree_node@PAVIAuthServiceEvent@ZOOMSDK@@PAX@std@@@std@@@std@@QAEXXZ 0042c330 f i sdk_util.obj
 0001:0002b330       ?_Allocate@?$_Alloc_construct_ptr@V?$allocator@U?$_Tree_node@PAVIMeetingChatCtrlEvent@ZOOMSDK@@PAX@std@@@std@@@std@@QAEXXZ 0042c330 f i sdk_util.obj
 0001:0002b330       ?_Allocate@?$_Alloc_construct_ptr@V?$allocator@U?$_Tree_node@PAVIMeetingParticipantsCtrlEvent@ZOOMSDK@@PAX@std@@@std@@@std@@QAEXXZ 0042c330 f i sdk_util.obj
 0001:0002b330       ?_Allocate@?$_Alloc_construct_ptr@V?$allocator@U?$_Tree_node@PAVISDKInMeetingServiceMgrEvent@@PAX@std@@@std@@@std@@QAEXXZ 0042c330 f i sdk_util.obj
 0001:0002b330       ?_Allocate@?$_Alloc_construct_ptr@V?$allocator@U?$_Tree_node@PAVIMeetingServiceEvent@ZOOMSDK@@PAX@std@@@std@@@std@@QAEXXZ 0042c330 f i sdk_util.obj
 0001:0002b330       ?_Allocate@?$_Alloc_construct_ptr@V?$allocator@U?$_Tree_node@PAVIMeetingVideoCtrlEvent@ZOOMSDK@@PAX@std@@@std@@@std@@QAEXXZ 0042c330 f i sdk_util.obj
 0001:0002b330       ?_Allocate@?$_Alloc_construct_ptr@V?$allocator@U?$_Tree_node@PAVIClosedCaptionControllerEvent@ZOOMSDK@@PAX@std@@@std@@@std@@QAEXXZ 0042c330 f i sdk_util.obj
 0001:0002b360       ?_Destroy_if_node@?$_Tree@V?$_Tset_traits@PAVIMeetingServiceEvent@ZOOMSDK@@U?$less@PAVIMeetingServiceEvent@ZOOMSDK@@@std@@V?$allocator@PAVIMeetingServiceEvent@ZOOMSDK@@@4@$0A@@std@@@std@@IAEXPAU?$_Tree_node@PAVIMeetingServiceEvent@ZOOMSDK@@PAX@2@@Z 0042c360 f i sdk_util.obj
 0001:0002b360       ?_Destroy_if_node@?$_Tree@V?$_Tset_traits@PAVIPreMeetingServiceEvent@ZOOMSDK@@U?$less@PAVIPreMeetingServiceEvent@ZOOMSDK@@@std@@V?$allocator@PAVIPreMeetingServiceEvent@ZOOMSDK@@@4@$0A@@std@@@std@@IAEXPAU?$_Tree_node@PAVIPreMeetingServiceEvent@ZOOMSDK@@PAX@2@@Z 0042c360 f i sdk_util.obj
 0001:0002b360       ?_Destroy_if_node@?$_Tree@V?$_Tset_traits@PAVIClosedCaptionControllerEvent@ZOOMSDK@@U?$less@PAVIClosedCaptionControllerEvent@ZOOMSDK@@@std@@V?$allocator@PAVIClosedCaptionControllerEvent@ZOOMSDK@@@4@$0A@@std@@@std@@IAEXPAU?$_Tree_node@PAVIClosedCaptionControllerEvent@ZOOMSDK@@PAX@2@@Z 0042c360 f i sdk_util.obj
 0001:0002b360       ?_Destroy_if_node@?$_Tree@V?$_Tset_traits@PAVIAuthServiceEvent@ZOOMSDK@@U?$less@PAVIAuthServiceEvent@ZOOMSDK@@@std@@V?$allocator@PAVIAuthServiceEvent@ZOOMSDK@@@4@$0A@@std@@@std@@IAEXPAU?$_Tree_node@PAVIAuthServiceEvent@ZOOMSDK@@PAX@2@@Z 0042c360 f i sdk_util.obj
 0001:0002b360       ?_Destroy_if_node@?$_Tree@V?$_Tset_traits@PAVIMeetingChatCtrlEvent@ZOOMSDK@@U?$less@PAVIMeetingChatCtrlEvent@ZOOMSDK@@@std@@V?$allocator@PAVIMeetingChatCtrlEvent@ZOOMSDK@@@4@$0A@@std@@@std@@IAEXPAU?$_Tree_node@PAVIMeetingChatCtrlEvent@ZOOMSDK@@PAX@2@@Z 0042c360 f i sdk_util.obj
 0001:0002b360       ?_Destroy_if_node@?$_Tree@V?$_Tset_traits@PAVIMeetingParticipantsCtrlEvent@ZOOMSDK@@U?$less@PAVIMeetingParticipantsCtrlEvent@ZOOMSDK@@@std@@V?$allocator@PAVIMeetingParticipantsCtrlEvent@ZOOMSDK@@@4@$0A@@std@@@std@@IAEXPAU?$_Tree_node@PAVIMeetingParticipantsCtrlEvent@ZOOMSDK@@PAX@2@@Z 0042c360 f i sdk_util.obj
 0001:0002b360       ?_Destroy_if_node@?$_Tree@V?$_Tset_traits@PAVISDKInMeetingServiceMgrEvent@@U?$less@PAVISDKInMeetingServiceMgrEvent@@@std@@V?$allocator@PAVISDKInMeetingServiceMgrEvent@@@3@$0A@@std@@@std@@IAEXPAU?$_Tree_node@PAVISDKInMeetingServiceMgrEvent@@PAX@2@@Z 0042c360 f i sdk_util.obj
 0001:0002b360       ?_Destroy_if_node@?$_Tree@V?$_Tset_traits@PAVIMeetingVideoCtrlEvent@ZOOMSDK@@U?$less@PAVIMeetingVideoCtrlEvent@ZOOMSDK@@@std@@V?$allocator@PAVIMeetingVideoCtrlEvent@ZOOMSDK@@@4@$0A@@std@@@std@@IAEXPAU?$_Tree_node@PAVIMeetingVideoCtrlEvent@ZOOMSDK@@PAX@2@@Z 0042c360 f i sdk_util.obj
 0001:0002b390       ?_Extract@?$_Tree_val@U?$_Tree_simple_types@PAVIMeetingServiceEvent@ZOOMSDK@@@std@@@std@@QAEPAU?$_Tree_node@PAVIMeetingServiceEvent@ZOOMSDK@@PAX@2@V?$_Tree_const_iterator@V?$_Tree_val@U?$_Tree_simple_types@PAVIMeetingServiceEvent@ZOOMSDK@@@std@@@std@@@2@@Z 0042c390 f i sdk_util.obj
 0001:0002b390       ?_Extract@?$_Tree_val@U?$_Tree_simple_types@U?$pair@$$CBIPAVIUserInfo@ZOOMSDK@@@std@@@std@@@std@@QAEPAU?$_Tree_node@U?$pair@$$CBIPAVIUserInfo@ZOOMSDK@@@std@@PAX@2@V?$_Tree_const_iterator@V?$_Tree_val@U?$_Tree_simple_types@U?$pair@$$CBIPAVIUserInfo@ZOOMSDK@@@std@@@std@@@std@@@2@@Z 0042c390 f i user_manager.obj
 0001:0002b390       ?_Extract@?$_Tree_val@U?$_Tree_simple_types@PAVIMeetingChatCtrlEvent@ZOOMSDK@@@std@@@std@@QAEPAU?$_Tree_node@PAVIMeetingChatCtrlEvent@ZOOMSDK@@PAX@2@V?$_Tree_const_iterator@V?$_Tree_val@U?$_Tree_simple_types@PAVIMeetingChatCtrlEvent@ZOOMSDK@@@std@@@std@@@2@@Z 0042c390 f i sdk_util.obj
 0001:0002b390       ?_Extract@?$_Tree_val@U?$_Tree_simple_types@PAVIClosedCaptionControllerEvent@ZOOMSDK@@@std@@@std@@QAEPAU?$_Tree_node@PAVIClosedCaptionControllerEvent@ZOOMSDK@@PAX@2@V?$_Tree_const_iterator@V?$_Tree_val@U?$_Tree_simple_types@PAVIClosedCaptionControllerEvent@ZOOMSDK@@@std@@@std@@@2@@Z 0042c390 f i sdk_util.obj
 0001:0002b390       ?_Extract@?$_Tree_val@U?$_Tree_simple_types@PAVIAuthServiceEvent@ZOOMSDK@@@std@@@std@@QAEPAU?$_Tree_node@PAVIAuthServiceEvent@ZOOMSDK@@PAX@2@V?$_Tree_const_iterator@V?$_Tree_val@U?$_Tree_simple_types@PAVIAuthServiceEvent@ZOOMSDK@@@std@@@std@@@2@@Z 0042c390 f i sdk_util.obj
 0001:0002b390       ?_Extract@?$_Tree_val@U?$_Tree_simple_types@PAVIPreMeetingServiceEvent@ZOOMSDK@@@std@@@std@@QAEPAU?$_Tree_node@PAVIPreMeetingServiceEvent@ZOOMSDK@@PAX@2@V?$_Tree_const_iterator@V?$_Tree_val@U?$_Tree_simple_types@PAVIPreMeetingServiceEvent@ZOOMSDK@@@std@@@std@@@2@@Z 0042c390 f i sdk_util.obj
 0001:0002b390       ?_Extract@?$_Tree_val@U?$_Tree_simple_types@PAVIMeetingParticipantsCtrlEvent@ZOOMSDK@@@std@@@std@@QAEPAU?$_Tree_node@PAVIMeetingParticipantsCtrlEvent@ZOOMSDK@@PAX@2@V?$_Tree_const_iterator@V?$_Tree_val@U?$_Tree_simple_types@PAVIMeetingParticipantsCtrlEvent@ZOOMSDK@@@std@@@std@@@2@@Z 0042c390 f i sdk_util.obj
 0001:0002b390       ?_Extract@?$_Tree_val@U?$_Tree_simple_types@PAVISDKInMeetingServiceMgrEvent@@@std@@@std@@QAEPAU?$_Tree_node@PAVISDKInMeetingServiceMgrEvent@@PAX@2@V?$_Tree_const_iterator@V?$_Tree_val@U?$_Tree_simple_types@PAVISDKInMeetingServiceMgrEvent@@@std@@@std@@@2@@Z 0042c390 f i sdk_util.obj
 0001:0002b7d0       ?_Getal@?$_Tree@V?$_Tset_traits@PAVIClosedCaptionControllerEvent@ZOOMSDK@@U?$less@PAVIClosedCaptionControllerEvent@ZOOMSDK@@@std@@V?$allocator@PAVIClosedCaptionControllerEvent@ZOOMSDK@@@4@$0A@@std@@@std@@IBEABV?$allocator@U?$_Tree_node@PAVIClosedCaptionControllerEvent@ZOOMSDK@@PAX@std@@@2@XZ 0042c7d0 f i sdk_util.obj
 0001:0002b7d0       ?_Get_data@?$_Tree@V?$_Tset_traits@PAVISDKInMeetingServiceMgrEvent@@U?$less@PAVISDKInMeetingServiceMgrEvent@@@std@@V?$allocator@PAVISDKInMeetingServiceMgrEvent@@@3@$0A@@std@@@std@@IAEAAV?$_Tree_val@U?$_Tree_simple_types@PAVISDKInMeetingServiceMgrEvent@@@std@@@2@XZ 0042c7d0 f i sdk_util.obj
 0001:0002b7d0       ?_Get_data@?$_Tree@V?$_Tset_traits@PAVIPreMeetingServiceEvent@ZOOMSDK@@U?$less@PAVIPreMeetingServiceEvent@ZOOMSDK@@@std@@V?$allocator@PAVIPreMeetingServiceEvent@ZOOMSDK@@@4@$0A@@std@@@std@@IBEABV?$_Tree_val@U?$_Tree_simple_types@PAVIPreMeetingServiceEvent@ZOOMSDK@@@std@@@2@XZ 0042c7d0 f i sdk_util.obj
 0001:0002b7d0       ?_Get_data@?$_Tree@V?$_Tset_traits@PAVIMeetingVideoCtrlEvent@ZOOMSDK@@U?$less@PAVIMeetingVideoCtrlEvent@ZOOMSDK@@@std@@V?$allocator@PAVIMeetingVideoCtrlEvent@ZOOMSDK@@@4@$0A@@std@@@std@@IBEABV?$_Tree_val@U?$_Tree_simple_types@PAVIMeetingVideoCtrlEvent@ZOOMSDK@@@std@@@2@XZ 0042c7d0 f i sdk_util.obj
 0001:0002b7d0       ?_Getal@?$_Tree@V?$_Tset_traits@PAVIPreMeetingServiceEvent@ZOOMSDK@@U?$less@PAVIPreMeetingServiceEvent@ZOOMSDK@@@std@@V?$allocator@PAVIPreMeetingServiceEvent@ZOOMSDK@@@4@$0A@@std@@@std@@IBEABV?$allocator@U?$_Tree_node@PAVIPreMeetingServiceEvent@ZOOMSDK@@PAX@std@@@2@XZ 0042c7d0 f i sdk_util.obj
 0001:0002b7d0       ?_Get_data@?$_Tree@V?$_Tset_traits@PAVIPreMeetingServiceEvent@ZOOMSDK@@U?$less@PAVIPreMeetingServiceEvent@ZOOMSDK@@@std@@V?$allocator@PAVIPreMeetingServiceEvent@ZOOMSDK@@@4@$0A@@std@@@std@@IAEAAV?$_Tree_val@U?$_Tree_simple_types@PAVIPreMeetingServiceEvent@ZOOMSDK@@@std@@@2@XZ 0042c7d0 f i sdk_util.obj
 0001:0002b7d0       ?_Getal@?$_Tree@V?$_Tset_traits@PAVIMeetingVideoCtrlEvent@ZOOMSDK@@U?$less@PAVIMeetingVideoCtrlEvent@ZOOMSDK@@@std@@V?$allocator@PAVIMeetingVideoCtrlEvent@ZOOMSDK@@@4@$0A@@std@@@std@@IAEAAV?$allocator@U?$_Tree_node@PAVIMeetingVideoCtrlEvent@ZOOMSDK@@PAX@std@@@2@XZ 0042c7d0 f i sdk_util.obj
 0001:0002b7d0       ?_Getal@?$_Tree@V?$_Tset_traits@PAVIAuthServiceEvent@ZOOMSDK@@U?$less@PAVIAuthServiceEvent@ZOOMSDK@@@std@@V?$allocator@PAVIAuthServiceEvent@ZOOMSDK@@@4@$0A@@std@@@std@@IAEAAV?$allocator@U?$_Tree_node@PAVIAuthServiceEvent@ZOOMSDK@@PAX@std@@@2@XZ 0042c7d0 f i sdk_util.obj
 0001:0002b7d0       ?_Getal@?$_Tree@V?$_Tset_traits@PAVIMeetingParticipantsCtrlEvent@ZOOMSDK@@U?$less@PAVIMeetingParticipantsCtrlEvent@ZOOMSDK@@@std@@V?$allocator@PAVIMeetingParticipantsCtrlEvent@ZOOMSDK@@@4@$0A@@std@@@std@@IAEAAV?$allocator@U?$_Tree_node@PAVIMeetingParticipantsCtrlEvent@ZOOMSDK@@PAX@std@@@2@XZ 0042c7d0 f i sdk_util.obj
 0001:0002b7d0       ?_Get_data@?$_Tree@V?$_Tset_traits@PAVIAuthServiceEvent@ZOOMSDK@@U?$less@PAVIAuthServiceEvent@ZOOMSDK@@@std@@V?$allocator@PAVIAuthServiceEvent@ZOOMSDK@@@4@$0A@@std@@@std@@IAEAAV?$_Tree_val@U?$_Tree_simple_types@PAVIAuthServiceEvent@ZOOMSDK@@@std@@@2@XZ 0042c7d0 f i sdk_util.obj
 0001:0002b7d0       ?_Getal@?$_Tree@V?$_Tset_traits@PAVIClosedCaptionControllerEvent@ZOOMSDK@@U?$less@PAVIClosedCaptionControllerEvent@ZOOMSDK@@@std@@V?$allocator@PAVIClosedCaptionControllerEvent@ZOOMSDK@@@4@$0A@@std@@@std@@IAEAAV?$allocator@U?$_Tree_node@PAVIClosedCaptionControllerEvent@ZOOMSDK@@PAX@std@@@2@XZ 0042c7d0 f i sdk_util.obj
 0001:0002b7d0       ?_Getal@?$_Tree@V?$_Tset_traits@PAVIMeetingServiceEvent@ZOOMSDK@@U?$less@PAVIMeetingServiceEvent@ZOOMSDK@@@std@@V?$allocator@PAVIMeetingServiceEvent@ZOOMSDK@@@4@$0A@@std@@@std@@IAEAAV?$allocator@U?$_Tree_node@PAVIMeetingServiceEvent@ZOOMSDK@@PAX@std@@@2@XZ 0042c7d0 f i sdk_util.obj
 0001:0002b7d0       ?_Get_data@?$_Tree@V?$_Tmap_traits@IPAVIUserInfo@ZOOMSDK@@U?$less@I@std@@V?$allocator@U?$pair@$$CBIPAVIUserInfo@ZOOMSDK@@@std@@@4@$0A@@std@@@std@@IAEAAV?$_Tree_val@U?$_Tree_simple_types@U?$pair@$$CBIPAVIUserInfo@ZOOMSDK@@@std@@@std@@@2@XZ 0042c7d0 f i user_manager.obj
 0001:0002b7d0       ?_Getal@?$_Tree@V?$_Tset_traits@PAVIMeetingChatCtrlEvent@ZOOMSDK@@U?$less@PAVIMeetingChatCtrlEvent@ZOOMSDK@@@std@@V?$allocator@PAVIMeetingChatCtrlEvent@ZOOMSDK@@@4@$0A@@std@@@std@@IBEABV?$allocator@U?$_Tree_node@PAVIMeetingChatCtrlEvent@ZOOMSDK@@PAX@std@@@2@XZ 0042c7d0 f i sdk_util.obj
 0001:0002b7d0       ?_Getal@?$_Tree@V?$_Tmap_traits@IPAVIUserInfo@ZOOMSDK@@U?$less@I@std@@V?$allocator@U?$pair@$$CBIPAVIUserInfo@ZOOMSDK@@@std@@@4@$0A@@std@@@std@@IAEAAV?$allocator@U?$_Tree_node@U?$pair@$$CBIPAVIUserInfo@ZOOMSDK@@@std@@PAX@std@@@2@XZ 0042c7d0 f i user_manager.obj
 0001:0002b7d0       ?_Get_data@?$_Tree@V?$_Tset_traits@PAVIMeetingVideoCtrlEvent@ZOOMSDK@@U?$less@PAVIMeetingVideoCtrlEvent@ZOOMSDK@@@std@@V?$allocator@PAVIMeetingVideoCtrlEvent@ZOOMSDK@@@4@$0A@@std@@@std@@IAEAAV?$_Tree_val@U?$_Tree_simple_types@PAVIMeetingVideoCtrlEvent@ZOOMSDK@@@std@@@2@XZ 0042c7d0 f i sdk_util.obj
 0001:0002b7d0       ?_Getal@?$_Tree@V?$_Tmap_traits@IPAVIUserInfo@ZOOMSDK@@U?$less@I@std@@V?$allocator@U?$pair@$$CBIPAVIUserInfo@ZOOMSDK@@@std@@@4@$0A@@std@@@std@@IBEABV?$allocator@U?$_Tree_node@U?$pair@$$CBIPAVIUserInfo@ZOOMSDK@@@std@@PAX@std@@@2@XZ 0042c7d0 f i user_manager.obj
 0001:0002b7d0       ?_Get_data@?$_Tree@V?$_Tset_traits@PAVIMeetingParticipantsCtrlEvent@ZOOMSDK@@U?$less@PAVIMeetingParticipantsCtrlEvent@ZOOMSDK@@@std@@V?$allocator@PAVIMeetingParticipantsCtrlEvent@ZOOMSDK@@@4@$0A@@std@@@std@@IAEAAV?$_Tree_val@U?$_Tree_simple_types@PAVIMeetingParticipantsCtrlEvent@ZOOMSDK@@@std@@@2@XZ 0042c7d0 f i sdk_util.obj
 0001:0002b7d0       ?_Getal@?$_Tree@V?$_Tset_traits@PAVIMeetingServiceEvent@ZOOMSDK@@U?$less@PAVIMeetingServiceEvent@ZOOMSDK@@@std@@V?$allocator@PAVIMeetingServiceEvent@ZOOMSDK@@@4@$0A@@std@@@std@@IBEABV?$allocator@U?$_Tree_node@PAVIMeetingServiceEvent@ZOOMSDK@@PAX@std@@@2@XZ 0042c7d0 f i sdk_util.obj
 0001:0002b7d0       ?_Getal@?$_Tree@V?$_Tset_traits@PAVIMeetingVideoCtrlEvent@ZOOMSDK@@U?$less@PAVIMeetingVideoCtrlEvent@ZOOMSDK@@@std@@V?$allocator@PAVIMeetingVideoCtrlEvent@ZOOMSDK@@@4@$0A@@std@@@std@@IBEABV?$allocator@U?$_Tree_node@PAVIMeetingVideoCtrlEvent@ZOOMSDK@@PAX@std@@@2@XZ 0042c7d0 f i sdk_util.obj
 0001:0002b7d0       ?_Getal@?$_Tree@V?$_Tset_traits@PAVIMeetingParticipantsCtrlEvent@ZOOMSDK@@U?$less@PAVIMeetingParticipantsCtrlEvent@ZOOMSDK@@@std@@V?$allocator@PAVIMeetingParticipantsCtrlEvent@ZOOMSDK@@@4@$0A@@std@@@std@@IBEABV?$allocator@U?$_Tree_node@PAVIMeetingParticipantsCtrlEvent@ZOOMSDK@@PAX@std@@@2@XZ 0042c7d0 f i sdk_util.obj
 0001:0002b7d0       ?_Getal@?$_Tree@V?$_Tset_traits@PAVIMeetingChatCtrlEvent@ZOOMSDK@@U?$less@PAVIMeetingChatCtrlEvent@ZOOMSDK@@@std@@V?$allocator@PAVIMeetingChatCtrlEvent@ZOOMSDK@@@4@$0A@@std@@@std@@IAEAAV?$allocator@U?$_Tree_node@PAVIMeetingChatCtrlEvent@ZOOMSDK@@PAX@std@@@2@XZ 0042c7d0 f i sdk_util.obj
 0001:0002b7d0       ?_Getal@?$_Tree@V?$_Tset_traits@PAVISDKInMeetingServiceMgrEvent@@U?$less@PAVISDKInMeetingServiceMgrEvent@@@std@@V?$allocator@PAVISDKInMeetingServiceMgrEvent@@@3@$0A@@std@@@std@@IBEABV?$allocator@U?$_Tree_node@PAVISDKInMeetingServiceMgrEvent@@PAX@std@@@2@XZ 0042c7d0 f i sdk_util.obj
 0001:0002b7d0       ?_Getal@?$_Tree@V?$_Tset_traits@PAVISDKInMeetingServiceMgrEvent@@U?$less@PAVISDKInMeetingServiceMgrEvent@@@std@@V?$allocator@PAVISDKInMeetingServiceMgrEvent@@@3@$0A@@std@@@std@@IAEAAV?$allocator@U?$_Tree_node@PAVISDKInMeetingServiceMgrEvent@@PAX@std@@@2@XZ 0042c7d0 f i sdk_util.obj
 0001:0002b7d0       ?_Get_data@?$_Tree@V?$_Tset_traits@PAVIMeetingChatCtrlEvent@ZOOMSDK@@U?$less@PAVIMeetingChatCtrlEvent@ZOOMSDK@@@std@@V?$allocator@PAVIMeetingChatCtrlEvent@ZOOMSDK@@@4@$0A@@std@@@std@@IAEAAV?$_Tree_val@U?$_Tree_simple_types@PAVIMeetingChatCtrlEvent@ZOOMSDK@@@std@@@2@XZ 0042c7d0 f i sdk_util.obj
 0001:0002b7d0       ?_Get_data@?$_Tree@V?$_Tmap_traits@IPAVIUserInfo@ZOOMSDK@@U?$less@I@std@@V?$allocator@U?$pair@$$CBIPAVIUserInfo@ZOOMSDK@@@std@@@4@$0A@@std@@@std@@IBEABV?$_Tree_val@U?$_Tree_simple_types@U?$pair@$$CBIPAVIUserInfo@ZOOMSDK@@@std@@@std@@@2@XZ 0042c7d0 f i user_manager.obj
 0001:0002b7d0       ?_Get_data@?$_Tree@V?$_Tset_traits@PAVIClosedCaptionControllerEvent@ZOOMSDK@@U?$less@PAVIClosedCaptionControllerEvent@ZOOMSDK@@@std@@V?$allocator@PAVIClosedCaptionControllerEvent@ZOOMSDK@@@4@$0A@@std@@@std@@IAEAAV?$_Tree_val@U?$_Tree_simple_types@PAVIClosedCaptionControllerEvent@ZOOMSDK@@@std@@@2@XZ 0042c7d0 f i sdk_util.obj
 0001:0002b7d0       ?_Get_data@?$_Tree@V?$_Tset_traits@PAVIMeetingChatCtrlEvent@ZOOMSDK@@U?$less@PAVIMeetingChatCtrlEvent@ZOOMSDK@@@std@@V?$allocator@PAVIMeetingChatCtrlEvent@ZOOMSDK@@@4@$0A@@std@@@std@@IBEABV?$_Tree_val@U?$_Tree_simple_types@PAVIMeetingChatCtrlEvent@ZOOMSDK@@@std@@@2@XZ 0042c7d0 f i sdk_util.obj
 0001:0002b7d0       ?_Get_data@?$_Tree@V?$_Tset_traits@PAVIAuthServiceEvent@ZOOMSDK@@U?$less@PAVIAuthServiceEvent@ZOOMSDK@@@std@@V?$allocator@PAVIAuthServiceEvent@ZOOMSDK@@@4@$0A@@std@@@std@@IBEABV?$_Tree_val@U?$_Tree_simple_types@PAVIAuthServiceEvent@ZOOMSDK@@@std@@@2@XZ 0042c7d0 f i sdk_util.obj
 0001:0002b7d0       ?_Get_data@?$_Tree@V?$_Tset_traits@PAVIClosedCaptionControllerEvent@ZOOMSDK@@U?$less@PAVIClosedCaptionControllerEvent@ZOOMSDK@@@std@@V?$allocator@PAVIClosedCaptionControllerEvent@ZOOMSDK@@@4@$0A@@std@@@std@@IBEABV?$_Tree_val@U?$_Tree_simple_types@PAVIClosedCaptionControllerEvent@ZOOMSDK@@@std@@@2@XZ 0042c7d0 f i sdk_util.obj
 0001:0002b7d0       ?_Get_data@?$_Tree@V?$_Tset_traits@PAVIMeetingServiceEvent@ZOOMSDK@@U?$less@PAVIMeetingServiceEvent@ZOOMSDK@@@std@@V?$allocator@PAVIMeetingServiceEvent@ZOOMSDK@@@4@$0A@@std@@@std@@IBEABV?$_Tree_val@U?$_Tree_simple_types@PAVIMeetingServiceEvent@ZOOMSDK@@@std@@@2@XZ 0042c7d0 f i sdk_util.obj
 0001:0002b7d0       ?_Getal@?$_Tree@V?$_Tset_traits@PAVIAuthServiceEvent@ZOOMSDK@@U?$less@PAVIAuthServiceEvent@ZOOMSDK@@@std@@V?$allocator@PAVIAuthServiceEvent@ZOOMSDK@@@4@$0A@@std@@@std@@IBEABV?$allocator@U?$_Tree_node@PAVIAuthServiceEvent@ZOOMSDK@@PAX@std@@@2@XZ 0042c7d0 f i sdk_util.obj
 0001:0002b7d0       ?_Getal@?$_Tree@V?$_Tset_traits@PAVIPreMeetingServiceEvent@ZOOMSDK@@U?$less@PAVIPreMeetingServiceEvent@ZOOMSDK@@@std@@V?$allocator@PAVIPreMeetingServiceEvent@ZOOMSDK@@@4@$0A@@std@@@std@@IAEAAV?$allocator@U?$_Tree_node@PAVIPreMeetingServiceEvent@ZOOMSDK@@PAX@std@@@2@XZ 0042c7d0 f i sdk_util.obj
 0001:0002b7d0       ?_Get_data@?$_Tree@V?$_Tset_traits@PAVISDKInMeetingServiceMgrEvent@@U?$less@PAVISDKInMeetingServiceMgrEvent@@@std@@V?$allocator@PAVISDKInMeetingServiceMgrEvent@@@3@$0A@@std@@@std@@IBEABV?$_Tree_val@U?$_Tree_simple_types@PAVISDKInMeetingServiceMgrEvent@@@std@@@2@XZ 0042c7d0 f i sdk_util.obj
 0001:0002b7d0       ?_Get_data@?$_Tree@V?$_Tset_traits@PAVIMeetingServiceEvent@ZOOMSDK@@U?$less@PAVIMeetingServiceEvent@ZOOMSDK@@@std@@V?$allocator@PAVIMeetingServiceEvent@ZOOMSDK@@@4@$0A@@std@@@std@@IAEAAV?$_Tree_val@U?$_Tree_simple_types@PAVIMeetingServiceEvent@ZOOMSDK@@@std@@@2@XZ 0042c7d0 f i sdk_util.obj
 0001:0002b7d0       ?_Get_data@?$_Tree@V?$_Tset_traits@PAVIMeetingParticipantsCtrlEvent@ZOOMSDK@@U?$less@PAVIMeetingParticipantsCtrlEvent@ZOOMSDK@@@std@@V?$allocator@PAVIMeetingParticipantsCtrlEvent@ZOOMSDK@@@4@$0A@@std@@@std@@IBEABV?$_Tree_val@U?$_Tree_simple_types@PAVIMeetingParticipantsCtrlEvent@ZOOMSDK@@@std@@@2@XZ 0042c7d0 f i sdk_util.obj
 0001:0002b7f0       ?_Getcont@_Iterator_base0@std@@QBEPBU_Container_base0@2@XZ 0042c7f0 f i sdk_util.obj
 0001:0002b800       ?_Key@?$_Tree@V?$_Tset_traits@PAVIAuthServiceEvent@ZOOMSDK@@U?$less@PAVIAuthServiceEvent@ZOOMSDK@@@std@@V?$allocator@PAVIAuthServiceEvent@ZOOMSDK@@@4@$0A@@std@@@std@@IBEABQAVIAuthServiceEvent@ZOOMSDK@@PAU?$_Tree_node@PAVIAuthServiceEvent@ZOOMSDK@@PAX@2@@Z 0042c800 f i sdk_util.obj
 0001:0002b800       ?_Key@?$_Tree@V?$_Tset_traits@PAVISDKInMeetingServiceMgrEvent@@U?$less@PAVISDKInMeetingServiceMgrEvent@@@std@@V?$allocator@PAVISDKInMeetingServiceMgrEvent@@@3@$0A@@std@@@std@@IBEABQAVISDKInMeetingServiceMgrEvent@@PAU?$_Tree_node@PAVISDKInMeetingServiceMgrEvent@@PAX@2@@Z 0042c800 f i sdk_util.obj
 0001:0002b800       ?_Key@?$_Tree@V?$_Tset_traits@PAVIClosedCaptionControllerEvent@ZOOMSDK@@U?$less@PAVIClosedCaptionControllerEvent@ZOOMSDK@@@std@@V?$allocator@PAVIClosedCaptionControllerEvent@ZOOMSDK@@@4@$0A@@std@@@std@@IBEABQAVIClosedCaptionControllerEvent@ZOOMSDK@@PAU?$_Tree_node@PAVIClosedCaptionControllerEvent@ZOOMSDK@@PAX@2@@Z 0042c800 f i sdk_util.obj
 0001:0002b800       ?_Key@?$_Tree@V?$_Tset_traits@PAVIMeetingChatCtrlEvent@ZOOMSDK@@U?$less@PAVIMeetingChatCtrlEvent@ZOOMSDK@@@std@@V?$allocator@PAVIMeetingChatCtrlEvent@ZOOMSDK@@@4@$0A@@std@@@std@@IBEABQAVIMeetingChatCtrlEvent@ZOOMSDK@@PAU?$_Tree_node@PAVIMeetingChatCtrlEvent@ZOOMSDK@@PAX@2@@Z 0042c800 f i sdk_util.obj
 0001:0002b800       ?_Key@?$_Tree@V?$_Tmap_traits@IPAVIUserInfo@ZOOMSDK@@U?$less@I@std@@V?$allocator@U?$pair@$$CBIPAVIUserInfo@ZOOMSDK@@@std@@@4@$0A@@std@@@std@@IBEABIPAU?$_Tree_node@U?$pair@$$CBIPAVIUserInfo@ZOOMSDK@@@std@@PAX@2@@Z 0042c800 f i user_manager.obj
 0001:0002b800       ?_Key@?$_Tree@V?$_Tset_traits@PAVIPreMeetingServiceEvent@ZOOMSDK@@U?$less@PAVIPreMeetingServiceEvent@ZOOMSDK@@@std@@V?$allocator@PAVIPreMeetingServiceEvent@ZOOMSDK@@@4@$0A@@std@@@std@@IBEABQAVIPreMeetingServiceEvent@ZOOMSDK@@PAU?$_Tree_node@PAVIPreMeetingServiceEvent@ZOOMSDK@@PAX@2@@Z 0042c800 f i sdk_util.obj
 0001:0002b800       ?_Key@?$_Tree@V?$_Tset_traits@PAVIMeetingServiceEvent@ZOOMSDK@@U?$less@PAVIMeetingServiceEvent@ZOOMSDK@@@std@@V?$allocator@PAVIMeetingServiceEvent@ZOOMSDK@@@4@$0A@@std@@@std@@IBEABQAVIMeetingServiceEvent@ZOOMSDK@@PAU?$_Tree_node@PAVIMeetingServiceEvent@ZOOMSDK@@PAX@2@@Z 0042c800 f i sdk_util.obj
 0001:0002b800       ?_Key@?$_Tree@V?$_Tset_traits@PAVIMeetingVideoCtrlEvent@ZOOMSDK@@U?$less@PAVIMeetingVideoCtrlEvent@ZOOMSDK@@@std@@V?$allocator@PAVIMeetingVideoCtrlEvent@ZOOMSDK@@@4@$0A@@std@@@std@@IBEABQAVIMeetingVideoCtrlEvent@ZOOMSDK@@PAU?$_Tree_node@PAVIMeetingVideoCtrlEvent@ZOOMSDK@@PAX@2@@Z 0042c800 f i sdk_util.obj
 0001:0002b800       ?_Key@?$_Tree@V?$_Tset_traits@PAVIMeetingParticipantsCtrlEvent@ZOOMSDK@@U?$less@PAVIMeetingParticipantsCtrlEvent@ZOOMSDK@@@std@@V?$allocator@PAVIMeetingParticipantsCtrlEvent@ZOOMSDK@@@4@$0A@@std@@@std@@IBEABQAVIMeetingParticipantsCtrlEvent@ZOOMSDK@@PAU?$_Tree_node@PAVIMeetingParticipantsCtrlEvent@ZOOMSDK@@PAX@2@@Z 0042c800 f i sdk_util.obj
 0001:0002b820       ?_Kfn@?$_Tree@V?$_Tset_traits@PAVIPreMeetingServiceEvent@ZOOMSDK@@U?$less@PAVIPreMeetingServiceEvent@ZOOMSDK@@@std@@V?$allocator@PAVIPreMeetingServiceEvent@ZOOMSDK@@@4@$0A@@std@@@std@@IBEABQAVIPreMeetingServiceEvent@ZOOMSDK@@ABQAV34@@Z 0042c820 f i sdk_util.obj
 0001:0002b820       ?_Kfn@?$_Tree@V?$_Tset_traits@PAVIMeetingParticipantsCtrlEvent@ZOOMSDK@@U?$less@PAVIMeetingParticipantsCtrlEvent@ZOOMSDK@@@std@@V?$allocator@PAVIMeetingParticipantsCtrlEvent@ZOOMSDK@@@4@$0A@@std@@@std@@IBEABQAVIMeetingParticipantsCtrlEvent@ZOOMSDK@@ABQAV34@@Z 0042c820 f i sdk_util.obj
 0001:0002b820       ?_Kfn@?$_Tree@V?$_Tset_traits@PAVISDKInMeetingServiceMgrEvent@@U?$less@PAVISDKInMeetingServiceMgrEvent@@@std@@V?$allocator@PAVISDKInMeetingServiceMgrEvent@@@3@$0A@@std@@@std@@IBEABQAVISDKInMeetingServiceMgrEvent@@ABQAV3@@Z 0042c820 f i sdk_util.obj
 0001:0002b820       ?_Kfn@?$_Tree@V?$_Tmap_traits@IPAVIUserInfo@ZOOMSDK@@U?$less@I@std@@V?$allocator@U?$pair@$$CBIPAVIUserInfo@ZOOMSDK@@@std@@@4@$0A@@std@@@std@@IBEABIABU?$pair@$$CBIPAVIUserInfo@ZOOMSDK@@@2@@Z 0042c820 f i user_manager.obj
 0001:0002b820       ?_Kfn@?$_Tree@V?$_Tset_traits@PAVIMeetingChatCtrlEvent@ZOOMSDK@@U?$less@PAVIMeetingChatCtrlEvent@ZOOMSDK@@@std@@V?$allocator@PAVIMeetingChatCtrlEvent@ZOOMSDK@@@4@$0A@@std@@@std@@IBEABQAVIMeetingChatCtrlEvent@ZOOMSDK@@ABQAV34@@Z 0042c820 f i sdk_util.obj
 0001:0002b820       ?_Kfn@?$_Tree@V?$_Tset_traits@PAVIAuthServiceEvent@ZOOMSDK@@U?$less@PAVIAuthServiceEvent@ZOOMSDK@@@std@@V?$allocator@PAVIAuthServiceEvent@ZOOMSDK@@@4@$0A@@std@@@std@@IBEABQAVIAuthServiceEvent@ZOOMSDK@@ABQAV34@@Z 0042c820 f i sdk_util.obj
 0001:0002b820       ?_Kfn@?$_Tree@V?$_Tset_traits@PAVIMeetingVideoCtrlEvent@ZOOMSDK@@U?$less@PAVIMeetingVideoCtrlEvent@ZOOMSDK@@@std@@V?$allocator@PAVIMeetingVideoCtrlEvent@ZOOMSDK@@@4@$0A@@std@@@std@@IBEABQAVIMeetingVideoCtrlEvent@ZOOMSDK@@ABQAV34@@Z 0042c820 f i sdk_util.obj
 0001:0002b820       ?_Kfn@?$_Tree@V?$_Tset_traits@PAVIClosedCaptionControllerEvent@ZOOMSDK@@U?$less@PAVIClosedCaptionControllerEvent@ZOOMSDK@@@std@@V?$allocator@PAVIClosedCaptionControllerEvent@ZOOMSDK@@@4@$0A@@std@@@std@@IBEABQAVIClosedCaptionControllerEvent@ZOOMSDK@@ABQAV34@@Z 0042c820 f i sdk_util.obj
 0001:0002b820       ?_Kfn@?$_Tree@V?$_Tset_traits@PAVIMeetingServiceEvent@ZOOMSDK@@U?$less@PAVIMeetingServiceEvent@ZOOMSDK@@@std@@V?$allocator@PAVIMeetingServiceEvent@ZOOMSDK@@@4@$0A@@std@@@std@@IBEABQAVIMeetingServiceEvent@ZOOMSDK@@ABQAV34@@Z 0042c820 f i sdk_util.obj
 0001:0002b840       ?_Lmost@?$_Tree_val@U?$_Tree_simple_types@PAVISDKInMeetingServiceMgrEvent@@@std@@@std@@QBEAAPAU?$_Tree_node@PAVISDKInMeetingServiceMgrEvent@@PAX@2@XZ 0042c840 f i sdk_util.obj
 0001:0002b840       ?_Lmost@?$_Tree_val@U?$_Tree_simple_types@PAVIMeetingServiceEvent@ZOOMSDK@@@std@@@std@@QBEAAPAU?$_Tree_node@PAVIMeetingServiceEvent@ZOOMSDK@@PAX@2@XZ 0042c840 f i sdk_util.obj
 0001:0002b840       ?_Lmost@?$_Tree_val@U?$_Tree_simple_types@U?$pair@$$CBIPAVIUserInfo@ZOOMSDK@@@std@@@std@@@std@@QBEAAPAU?$_Tree_node@U?$pair@$$CBIPAVIUserInfo@ZOOMSDK@@@std@@PAX@2@XZ 0042c840 f i user_manager.obj
 0001:0002b840       ?_Lmost@?$_Tree_val@U?$_Tree_simple_types@PAVIMeetingParticipantsCtrlEvent@ZOOMSDK@@@std@@@std@@QBEAAPAU?$_Tree_node@PAVIMeetingParticipantsCtrlEvent@ZOOMSDK@@PAX@2@XZ 0042c840 f i sdk_util.obj
 0001:0002b840       ?_Lmost@?$_Tree_val@U?$_Tree_simple_types@PAVIMeetingVideoCtrlEvent@ZOOMSDK@@@std@@@std@@QBEAAPAU?$_Tree_node@PAVIMeetingVideoCtrlEvent@ZOOMSDK@@PAX@2@XZ 0042c840 f i sdk_util.obj
 0001:0002b840       ?_Lmost@?$_Tree_val@U?$_Tree_simple_types@PAVIClosedCaptionControllerEvent@ZOOMSDK@@@std@@@std@@QBEAAPAU?$_Tree_node@PAVIClosedCaptionControllerEvent@ZOOMSDK@@PAX@2@XZ 0042c840 f i sdk_util.obj
 0001:0002b840       ??D?$_Vector_const_iterator@V?$_Vector_val@U?$_Simple_types@PAVIUserInfo@ZOOMSDK@@@std@@@std@@@std@@QBEABQAVIUserInfo@ZOOMSDK@@XZ 0042c840 f i user_manager.obj
 0001:0002b840       ?_Lmost@?$_Tree_val@U?$_Tree_simple_types@PAVIAuthServiceEvent@ZOOMSDK@@@std@@@std@@QBEAAPAU?$_Tree_node@PAVIAuthServiceEvent@ZOOMSDK@@PAX@2@XZ 0042c840 f i sdk_util.obj
 0001:0002b840       ?_Lmost@?$_Tree_val@U?$_Tree_simple_types@PAVIMeetingChatCtrlEvent@ZOOMSDK@@@std@@@std@@QBEAAPAU?$_Tree_node@PAVIMeetingChatCtrlEvent@ZOOMSDK@@PAX@2@XZ 0042c840 f i sdk_util.obj
 0001:0002b840       ?_Lmost@?$_Tree_val@U?$_Tree_simple_types@PAVIPreMeetingServiceEvent@ZOOMSDK@@@std@@@std@@QBEAAPAU?$_Tree_node@PAVIPreMeetingServiceEvent@ZOOMSDK@@PAX@2@XZ 0042c840 f i sdk_util.obj
 0001:0002b850       ?_Lrotate@?$_Tree_val@U?$_Tree_simple_types@PAVIMeetingChatCtrlEvent@ZOOMSDK@@@std@@@std@@QAEXPAU?$_Tree_node@PAVIMeetingChatCtrlEvent@ZOOMSDK@@PAX@2@@Z 0042c850 f i sdk_util.obj
 0001:0002b850       ?_Lrotate@?$_Tree_val@U?$_Tree_simple_types@PAVIMeetingVideoCtrlEvent@ZOOMSDK@@@std@@@std@@QAEXPAU?$_Tree_node@PAVIMeetingVideoCtrlEvent@ZOOMSDK@@PAX@2@@Z 0042c850 f i sdk_util.obj
 0001:0002b850       ?_Lrotate@?$_Tree_val@U?$_Tree_simple_types@PAVIAuthServiceEvent@ZOOMSDK@@@std@@@std@@QAEXPAU?$_Tree_node@PAVIAuthServiceEvent@ZOOMSDK@@PAX@2@@Z 0042c850 f i sdk_util.obj
 0001:0002b850       ?_Lrotate@?$_Tree_val@U?$_Tree_simple_types@PAVISDKInMeetingServiceMgrEvent@@@std@@@std@@QAEXPAU?$_Tree_node@PAVISDKInMeetingServiceMgrEvent@@PAX@2@@Z 0042c850 f i sdk_util.obj
 0001:0002b850       ?_Lrotate@?$_Tree_val@U?$_Tree_simple_types@PAVIClosedCaptionControllerEvent@ZOOMSDK@@@std@@@std@@QAEXPAU?$_Tree_node@PAVIClosedCaptionControllerEvent@ZOOMSDK@@PAX@2@@Z 0042c850 f i sdk_util.obj
 0001:0002b850       ?_Lrotate@?$_Tree_val@U?$_Tree_simple_types@PAVIMeetingServiceEvent@ZOOMSDK@@@std@@@std@@QAEXPAU?$_Tree_node@PAVIMeetingServiceEvent@ZOOMSDK@@PAX@2@@Z 0042c850 f i sdk_util.obj
 0001:0002b850       ?_Lrotate@?$_Tree_val@U?$_Tree_simple_types@PAVIPreMeetingServiceEvent@ZOOMSDK@@@std@@@std@@QAEXPAU?$_Tree_node@PAVIPreMeetingServiceEvent@ZOOMSDK@@PAX@2@@Z 0042c850 f i sdk_util.obj
 0001:0002b850       ?_Lrotate@?$_Tree_val@U?$_Tree_simple_types@PAVIMeetingParticipantsCtrlEvent@ZOOMSDK@@@std@@@std@@QAEXPAU?$_Tree_node@PAVIMeetingParticipantsCtrlEvent@ZOOMSDK@@PAX@2@@Z 0042c850 f i sdk_util.obj
 0001:0002b850       ?_Lrotate@?$_Tree_val@U?$_Tree_simple_types@U?$pair@$$CBIPAVIUserInfo@ZOOMSDK@@@std@@@std@@@std@@QAEXPAU?$_Tree_node@U?$pair@$$CBIPAVIUserInfo@ZOOMSDK@@@std@@PAX@2@@Z 0042c850 f i user_manager.obj
 0001:0002b8f0       ?_Max@?$_Tree_val@U?$_Tree_simple_types@PAVIAuthServiceEvent@ZOOMSDK@@@std@@@std@@SAPAU?$_Tree_node@PAVIAuthServiceEvent@ZOOMSDK@@PAX@2@PAU32@@Z 0042c8f0 f i sdk_util.obj
 0001:0002b8f0       ?_Max@?$_Tree_val@U?$_Tree_simple_types@PAVIPreMeetingServiceEvent@ZOOMSDK@@@std@@@std@@SAPAU?$_Tree_node@PAVIPreMeetingServiceEvent@ZOOMSDK@@PAX@2@PAU32@@Z 0042c8f0 f i sdk_util.obj
 0001:0002b8f0       ?_Max@?$_Tree_val@U?$_Tree_simple_types@PAVIMeetingServiceEvent@ZOOMSDK@@@std@@@std@@SAPAU?$_Tree_node@PAVIMeetingServiceEvent@ZOOMSDK@@PAX@2@PAU32@@Z 0042c8f0 f i sdk_util.obj
 0001:0002b8f0       ?_Max@?$_Tree_val@U?$_Tree_simple_types@PAVIMeetingParticipantsCtrlEvent@ZOOMSDK@@@std@@@std@@SAPAU?$_Tree_node@PAVIMeetingParticipantsCtrlEvent@ZOOMSDK@@PAX@2@PAU32@@Z 0042c8f0 f i sdk_util.obj
 0001:0002b8f0       ?_Max@?$_Tree_val@U?$_Tree_simple_types@PAVIClosedCaptionControllerEvent@ZOOMSDK@@@std@@@std@@SAPAU?$_Tree_node@PAVIClosedCaptionControllerEvent@ZOOMSDK@@PAX@2@PAU32@@Z 0042c8f0 f i sdk_util.obj
 0001:0002b8f0       ?_Max@?$_Tree_val@U?$_Tree_simple_types@PAVIMeetingChatCtrlEvent@ZOOMSDK@@@std@@@std@@SAPAU?$_Tree_node@PAVIMeetingChatCtrlEvent@ZOOMSDK@@PAX@2@PAU32@@Z 0042c8f0 f i sdk_util.obj
 0001:0002b8f0       ?_Max@?$_Tree_val@U?$_Tree_simple_types@PAVIMeetingVideoCtrlEvent@ZOOMSDK@@@std@@@std@@SAPAU?$_Tree_node@PAVIMeetingVideoCtrlEvent@ZOOMSDK@@PAX@2@PAU32@@Z 0042c8f0 f i sdk_util.obj
 0001:0002b8f0       ?_Max@?$_Tree_val@U?$_Tree_simple_types@U?$pair@$$CBIPAVIUserInfo@ZOOMSDK@@@std@@@std@@@std@@SAPAU?$_Tree_node@U?$pair@$$CBIPAVIUserInfo@ZOOMSDK@@@std@@PAX@2@PAU32@@Z 0042c8f0 f i user_manager.obj
 0001:0002b8f0       ?_Max@?$_Tree_val@U?$_Tree_simple_types@PAVISDKInMeetingServiceMgrEvent@@@std@@@std@@SAPAU?$_Tree_node@PAVISDKInMeetingServiceMgrEvent@@PAX@2@PAU32@@Z 0042c8f0 f i sdk_util.obj
 0001:0002b920       ?_Min@?$_Tree_val@U?$_Tree_simple_types@PAVISDKInMeetingServiceMgrEvent@@@std@@@std@@SAPAU?$_Tree_node@PAVISDKInMeetingServiceMgrEvent@@PAX@2@PAU32@@Z 0042c920 f i sdk_util.obj
 0001:0002b920       ?_Min@?$_Tree_val@U?$_Tree_simple_types@PAVIMeetingServiceEvent@ZOOMSDK@@@std@@@std@@SAPAU?$_Tree_node@PAVIMeetingServiceEvent@ZOOMSDK@@PAX@2@PAU32@@Z 0042c920 f i sdk_util.obj
 0001:0002b920       ?_Min@?$_Tree_val@U?$_Tree_simple_types@U?$pair@$$CBIPAVIUserInfo@ZOOMSDK@@@std@@@std@@@std@@SAPAU?$_Tree_node@U?$pair@$$CBIPAVIUserInfo@ZOOMSDK@@@std@@PAX@2@PAU32@@Z 0042c920 f i user_manager.obj
 0001:0002b920       ?_Min@?$_Tree_val@U?$_Tree_simple_types@PAVIMeetingVideoCtrlEvent@ZOOMSDK@@@std@@@std@@SAPAU?$_Tree_node@PAVIMeetingVideoCtrlEvent@ZOOMSDK@@PAX@2@PAU32@@Z 0042c920 f i sdk_util.obj
 0001:0002b920       ?_Min@?$_Tree_val@U?$_Tree_simple_types@PAVIPreMeetingServiceEvent@ZOOMSDK@@@std@@@std@@SAPAU?$_Tree_node@PAVIPreMeetingServiceEvent@ZOOMSDK@@PAX@2@PAU32@@Z 0042c920 f i sdk_util.obj
 0001:0002b920       ?_Min@?$_Tree_val@U?$_Tree_simple_types@PAVIMeetingParticipantsCtrlEvent@ZOOMSDK@@@std@@@std@@SAPAU?$_Tree_node@PAVIMeetingParticipantsCtrlEvent@ZOOMSDK@@PAX@2@PAU32@@Z 0042c920 f i sdk_util.obj
 0001:0002b920       ?_Min@?$_Tree_val@U?$_Tree_simple_types@PAVIMeetingChatCtrlEvent@ZOOMSDK@@@std@@@std@@SAPAU?$_Tree_node@PAVIMeetingChatCtrlEvent@ZOOMSDK@@PAX@2@PAU32@@Z 0042c920 f i sdk_util.obj
 0001:0002b920       ?_Min@?$_Tree_val@U?$_Tree_simple_types@PAVIAuthServiceEvent@ZOOMSDK@@@std@@@std@@SAPAU?$_Tree_node@PAVIAuthServiceEvent@ZOOMSDK@@PAX@2@PAU32@@Z 0042c920 f i sdk_util.obj
 0001:0002b920       ?_Min@?$_Tree_val@U?$_Tree_simple_types@PAVIClosedCaptionControllerEvent@ZOOMSDK@@@std@@@std@@SAPAU?$_Tree_node@PAVIClosedCaptionControllerEvent@ZOOMSDK@@PAX@2@PAU32@@Z 0042c920 f i sdk_util.obj
 0001:0002b940       ?_Root@?$_Tree_val@U?$_Tree_simple_types@PAVIMeetingChatCtrlEvent@ZOOMSDK@@@std@@@std@@QBEAAPAU?$_Tree_node@PAVIMeetingChatCtrlEvent@ZOOMSDK@@PAX@2@XZ 0042c940 f i sdk_util.obj
 0001:0002b940       ?_Root@?$_Tree_val@U?$_Tree_simple_types@U?$pair@$$CBIPAVIUserInfo@ZOOMSDK@@@std@@@std@@@std@@QBEAAPAU?$_Tree_node@U?$pair@$$CBIPAVIUserInfo@ZOOMSDK@@@std@@PAX@2@XZ 0042c940 f i user_manager.obj
 0001:0002b940       ?_Root@?$_Tree_val@U?$_Tree_simple_types@PAVIClosedCaptionControllerEvent@ZOOMSDK@@@std@@@std@@QBEAAPAU?$_Tree_node@PAVIClosedCaptionControllerEvent@ZOOMSDK@@PAX@2@XZ 0042c940 f i sdk_util.obj
 0001:0002b940       ?_Root@?$_Tree_val@U?$_Tree_simple_types@PAVIMeetingServiceEvent@ZOOMSDK@@@std@@@std@@QBEAAPAU?$_Tree_node@PAVIMeetingServiceEvent@ZOOMSDK@@PAX@2@XZ 0042c940 f i sdk_util.obj
 0001:0002b940       ?_Root@?$_Tree_val@U?$_Tree_simple_types@PAVIAuthServiceEvent@ZOOMSDK@@@std@@@std@@QBEAAPAU?$_Tree_node@PAVIAuthServiceEvent@ZOOMSDK@@PAX@2@XZ 0042c940 f i sdk_util.obj
 0001:0002b940       ?_Root@?$_Tree_val@U?$_Tree_simple_types@PAVISDKInMeetingServiceMgrEvent@@@std@@@std@@QBEAAPAU?$_Tree_node@PAVISDKInMeetingServiceMgrEvent@@PAX@2@XZ 0042c940 f i sdk_util.obj
 0001:0002b940       ?_Root@?$_Tree_val@U?$_Tree_simple_types@PAVIPreMeetingServiceEvent@ZOOMSDK@@@std@@@std@@QBEAAPAU?$_Tree_node@PAVIPreMeetingServiceEvent@ZOOMSDK@@PAX@2@XZ 0042c940 f i sdk_util.obj
 0001:0002b940       ?_Root@?$_Tree_val@U?$_Tree_simple_types@PAVIMeetingParticipantsCtrlEvent@ZOOMSDK@@@std@@@std@@QBEAAPAU?$_Tree_node@PAVIMeetingParticipantsCtrlEvent@ZOOMSDK@@PAX@2@XZ 0042c940 f i sdk_util.obj
 0001:0002b940       ?_Root@?$_Tree_val@U?$_Tree_simple_types@PAVIMeetingVideoCtrlEvent@ZOOMSDK@@@std@@@std@@QBEAAPAU?$_Tree_node@PAVIMeetingVideoCtrlEvent@ZOOMSDK@@PAX@2@XZ 0042c940 f i sdk_util.obj
 0001:0002b960       ?_Rrotate@?$_Tree_val@U?$_Tree_simple_types@PAVIMeetingVideoCtrlEvent@ZOOMSDK@@@std@@@std@@QAEXPAU?$_Tree_node@PAVIMeetingVideoCtrlEvent@ZOOMSDK@@PAX@2@@Z 0042c960 f i sdk_util.obj
 0001:0002b960       ?_Rrotate@?$_Tree_val@U?$_Tree_simple_types@PAVIMeetingServiceEvent@ZOOMSDK@@@std@@@std@@QAEXPAU?$_Tree_node@PAVIMeetingServiceEvent@ZOOMSDK@@PAX@2@@Z 0042c960 f i sdk_util.obj
 0001:0002b960       ?_Rrotate@?$_Tree_val@U?$_Tree_simple_types@PAVISDKInMeetingServiceMgrEvent@@@std@@@std@@QAEXPAU?$_Tree_node@PAVISDKInMeetingServiceMgrEvent@@PAX@2@@Z 0042c960 f i sdk_util.obj
 0001:0002b960       ?_Rrotate@?$_Tree_val@U?$_Tree_simple_types@PAVIAuthServiceEvent@ZOOMSDK@@@std@@@std@@QAEXPAU?$_Tree_node@PAVIAuthServiceEvent@ZOOMSDK@@PAX@2@@Z 0042c960 f i sdk_util.obj
 0001:0002b960       ?_Rrotate@?$_Tree_val@U?$_Tree_simple_types@PAVIMeetingParticipantsCtrlEvent@ZOOMSDK@@@std@@@std@@QAEXPAU?$_Tree_node@PAVIMeetingParticipantsCtrlEvent@ZOOMSDK@@PAX@2@@Z 0042c960 f i sdk_util.obj
 0001:0002b960       ?_Rrotate@?$_Tree_val@U?$_Tree_simple_types@PAVIMeetingChatCtrlEvent@ZOOMSDK@@@std@@@std@@QAEXPAU?$_Tree_node@PAVIMeetingChatCtrlEvent@ZOOMSDK@@PAX@2@@Z 0042c960 f i sdk_util.obj
 0001:0002b960       ?_Rrotate@?$_Tree_val@U?$_Tree_simple_types@PAVIPreMeetingServiceEvent@ZOOMSDK@@@std@@@std@@QAEXPAU?$_Tree_node@PAVIPreMeetingServiceEvent@ZOOMSDK@@PAX@2@@Z 0042c960 f i sdk_util.obj
 0001:0002b960       ?_Rrotate@?$_Tree_val@U?$_Tree_simple_types@U?$pair@$$CBIPAVIUserInfo@ZOOMSDK@@@std@@@std@@@std@@QAEXPAU?$_Tree_node@U?$pair@$$CBIPAVIUserInfo@ZOOMSDK@@@std@@PAX@2@@Z 0042c960 f i user_manager.obj
 0001:0002b960       ?_Rrotate@?$_Tree_val@U?$_Tree_simple_types@PAVIClosedCaptionControllerEvent@ZOOMSDK@@@std@@@std@@QAEXPAU?$_Tree_node@PAVIClosedCaptionControllerEvent@ZOOMSDK@@PAX@2@@Z 0042c960 f i sdk_util.obj
 0001:0002ba00       ?_Unwrapped@?$_Tree_const_iterator@V?$_Tree_val@U?$_Tree_simple_types@PAVIMeetingChatCtrlEvent@ZOOMSDK@@@std@@@std@@@std@@QBE?AV?$_Tree_unchecked_const_iterator@V?$_Tree_val@U?$_Tree_simple_types@PAVIMeetingChatCtrlEvent@ZOOMSDK@@@std@@@std@@U_Iterator_base0@2@@2@XZ 0042ca00 f i sdk_util.obj
 0001:0002ba00       ?_Unwrapped@?$_Tree_const_iterator@V?$_Tree_val@U?$_Tree_simple_types@PAVIAuthServiceEvent@ZOOMSDK@@@std@@@std@@@std@@QBE?AV?$_Tree_unchecked_const_iterator@V?$_Tree_val@U?$_Tree_simple_types@PAVIAuthServiceEvent@ZOOMSDK@@@std@@@std@@U_Iterator_base0@2@@2@XZ 0042ca00 f i sdk_util.obj
 0001:0002ba00       ?_Unwrapped@?$_Tree_const_iterator@V?$_Tree_val@U?$_Tree_simple_types@PAVIMeetingVideoCtrlEvent@ZOOMSDK@@@std@@@std@@@std@@QBE?AV?$_Tree_unchecked_const_iterator@V?$_Tree_val@U?$_Tree_simple_types@PAVIMeetingVideoCtrlEvent@ZOOMSDK@@@std@@@std@@U_Iterator_base0@2@@2@XZ 0042ca00 f i sdk_util.obj
 0001:0002ba00       ?_Unwrapped@?$_Tree_const_iterator@V?$_Tree_val@U?$_Tree_simple_types@PAVIClosedCaptionControllerEvent@ZOOMSDK@@@std@@@std@@@std@@QBE?AV?$_Tree_unchecked_const_iterator@V?$_Tree_val@U?$_Tree_simple_types@PAVIClosedCaptionControllerEvent@ZOOMSDK@@@std@@@std@@U_Iterator_base0@2@@2@XZ 0042ca00 f i sdk_util.obj
 0001:0002ba00       ?_Unwrapped@?$_Tree_const_iterator@V?$_Tree_val@U?$_Tree_simple_types@PAVIPreMeetingServiceEvent@ZOOMSDK@@@std@@@std@@@std@@QBE?AV?$_Tree_unchecked_const_iterator@V?$_Tree_val@U?$_Tree_simple_types@PAVIPreMeetingServiceEvent@ZOOMSDK@@@std@@@std@@U_Iterator_base0@2@@2@XZ 0042ca00 f i sdk_util.obj
 0001:0002ba00       ?_Unwrapped@?$_Tree_const_iterator@V?$_Tree_val@U?$_Tree_simple_types@PAVIMeetingParticipantsCtrlEvent@ZOOMSDK@@@std@@@std@@@std@@QBE?AV?$_Tree_unchecked_const_iterator@V?$_Tree_val@U?$_Tree_simple_types@PAVIMeetingParticipantsCtrlEvent@ZOOMSDK@@@std@@@std@@U_Iterator_base0@2@@2@XZ 0042ca00 f i sdk_util.obj
 0001:0002ba00       ?_Unwrapped@?$_Tree_const_iterator@V?$_Tree_val@U?$_Tree_simple_types@PAVIMeetingServiceEvent@ZOOMSDK@@@std@@@std@@@std@@QBE?AV?$_Tree_unchecked_const_iterator@V?$_Tree_val@U?$_Tree_simple_types@PAVIMeetingServiceEvent@ZOOMSDK@@@std@@@std@@U_Iterator_base0@2@@2@XZ 0042ca00 f i sdk_util.obj
 0001:0002ba00       ?_Unwrapped@?$_Tree_const_iterator@V?$_Tree_val@U?$_Tree_simple_types@PAVISDKInMeetingServiceMgrEvent@@@std@@@std@@@std@@QBE?AV?$_Tree_unchecked_const_iterator@V?$_Tree_val@U?$_Tree_simple_types@PAVISDKInMeetingServiceMgrEvent@@@std@@@std@@U_Iterator_base0@2@@2@XZ 0042ca00 f i sdk_util.obj
 0001:0002ba30       ?allocate@?$allocator@U?$_Tree_node@PAVISDKInMeetingServiceMgrEvent@@PAX@std@@@std@@QAEPAU?$_Tree_node@PAVISDKInMeetingServiceMgrEvent@@PAX@2@I@Z 0042ca30 f i sdk_util.obj
 0001:0002ba30       ?allocate@?$allocator@U?$_Tree_node@PAVIMeetingVideoCtrlEvent@ZOOMSDK@@PAX@std@@@std@@QAEPAU?$_Tree_node@PAVIMeetingVideoCtrlEvent@ZOOMSDK@@PAX@2@I@Z 0042ca30 f i sdk_util.obj
 0001:0002ba30       ?allocate@?$allocator@U?$_Tree_node@PAVIClosedCaptionControllerEvent@ZOOMSDK@@PAX@std@@@std@@QAEPAU?$_Tree_node@PAVIClosedCaptionControllerEvent@ZOOMSDK@@PAX@2@I@Z 0042ca30 f i sdk_util.obj
 0001:0002ba30       ?allocate@?$allocator@U?$_Tree_node@PAVIMeetingServiceEvent@ZOOMSDK@@PAX@std@@@std@@QAEPAU?$_Tree_node@PAVIMeetingServiceEvent@ZOOMSDK@@PAX@2@I@Z 0042ca30 f i sdk_util.obj
 0001:0002ba30       ?allocate@?$allocator@U?$_Tree_node@PAVIMeetingChatCtrlEvent@ZOOMSDK@@PAX@std@@@std@@QAEPAU?$_Tree_node@PAVIMeetingChatCtrlEvent@ZOOMSDK@@PAX@2@I@Z 0042ca30 f i sdk_util.obj
 0001:0002ba30       ?allocate@?$allocator@U?$_Tree_node@PAVIMeetingParticipantsCtrlEvent@ZOOMSDK@@PAX@std@@@std@@QAEPAU?$_Tree_node@PAVIMeetingParticipantsCtrlEvent@ZOOMSDK@@PAX@2@I@Z 0042ca30 f i sdk_util.obj
 0001:0002ba30       ?allocate@?$allocator@U?$_Tree_node@PAVIPreMeetingServiceEvent@ZOOMSDK@@PAX@std@@@std@@QAEPAU?$_Tree_node@PAVIPreMeetingServiceEvent@ZOOMSDK@@PAX@2@I@Z 0042ca30 f i sdk_util.obj
 0001:0002ba30       ?allocate@?$allocator@U?$_Tree_node@PAVIAuthServiceEvent@ZOOMSDK@@PAX@std@@@std@@QAEPAU?$_Tree_node@PAVIAuthServiceEvent@ZOOMSDK@@PAX@2@I@Z 0042ca30 f i sdk_util.obj
 0001:0002ba60       ?begin@?$_Tree@V?$_Tset_traits@PAVIMeetingServiceEvent@ZOOMSDK@@U?$less@PAVIMeetingServiceEvent@ZOOMSDK@@@std@@V?$allocator@PAVIMeetingServiceEvent@ZOOMSDK@@@4@$0A@@std@@@std@@QAE?AV?$_Tree_const_iterator@V?$_Tree_val@U?$_Tree_simple_types@PAVIMeetingServiceEvent@ZOOMSDK@@@std@@@std@@@2@XZ 0042ca60 f i sdk_util.obj
 0001:0002ba60       ?begin@?$_Tree@V?$_Tset_traits@PAVIAuthServiceEvent@ZOOMSDK@@U?$less@PAVIAuthServiceEvent@ZOOMSDK@@@std@@V?$allocator@PAVIAuthServiceEvent@ZOOMSDK@@@4@$0A@@std@@@std@@QAE?AV?$_Tree_const_iterator@V?$_Tree_val@U?$_Tree_simple_types@PAVIAuthServiceEvent@ZOOMSDK@@@std@@@std@@@2@XZ 0042ca60 f i sdk_util.obj
 0001:0002ba60       ?begin@?$_Tree@V?$_Tset_traits@PAVIPreMeetingServiceEvent@ZOOMSDK@@U?$less@PAVIPreMeetingServiceEvent@ZOOMSDK@@@std@@V?$allocator@PAVIPreMeetingServiceEvent@ZOOMSDK@@@4@$0A@@std@@@std@@QAE?AV?$_Tree_const_iterator@V?$_Tree_val@U?$_Tree_simple_types@PAVIPreMeetingServiceEvent@ZOOMSDK@@@std@@@std@@@2@XZ 0042ca60 f i sdk_util.obj
 0001:0002ba60       ?begin@?$_Tree@V?$_Tset_traits@PAVIClosedCaptionControllerEvent@ZOOMSDK@@U?$less@PAVIClosedCaptionControllerEvent@ZOOMSDK@@@std@@V?$allocator@PAVIClosedCaptionControllerEvent@ZOOMSDK@@@4@$0A@@std@@@std@@QAE?AV?$_Tree_const_iterator@V?$_Tree_val@U?$_Tree_simple_types@PAVIClosedCaptionControllerEvent@ZOOMSDK@@@std@@@std@@@2@XZ 0042ca60 f i sdk_util.obj
 0001:0002ba60       ?begin@?$_Tree@V?$_Tset_traits@PAVIMeetingChatCtrlEvent@ZOOMSDK@@U?$less@PAVIMeetingChatCtrlEvent@ZOOMSDK@@@std@@V?$allocator@PAVIMeetingChatCtrlEvent@ZOOMSDK@@@4@$0A@@std@@@std@@QAE?AV?$_Tree_const_iterator@V?$_Tree_val@U?$_Tree_simple_types@PAVIMeetingChatCtrlEvent@ZOOMSDK@@@std@@@std@@@2@XZ 0042ca60 f i sdk_util.obj
 0001:0002ba60       ?begin@?$_Tree@V?$_Tset_traits@PAVIMeetingParticipantsCtrlEvent@ZOOMSDK@@U?$less@PAVIMeetingParticipantsCtrlEvent@ZOOMSDK@@@std@@V?$allocator@PAVIMeetingParticipantsCtrlEvent@ZOOMSDK@@@4@$0A@@std@@@std@@QAE?AV?$_Tree_const_iterator@V?$_Tree_val@U?$_Tree_simple_types@PAVIMeetingParticipantsCtrlEvent@ZOOMSDK@@@std@@@std@@@2@XZ 0042ca60 f i sdk_util.obj
 0001:0002ba60       ?begin@?$_Tree@V?$_Tset_traits@PAVIMeetingVideoCtrlEvent@ZOOMSDK@@U?$less@PAVIMeetingVideoCtrlEvent@ZOOMSDK@@@std@@V?$allocator@PAVIMeetingVideoCtrlEvent@ZOOMSDK@@@4@$0A@@std@@@std@@QAE?AV?$_Tree_const_iterator@V?$_Tree_val@U?$_Tree_simple_types@PAVIMeetingVideoCtrlEvent@ZOOMSDK@@@std@@@std@@@2@XZ 0042ca60 f i sdk_util.obj
 0001:0002ba60       ?begin@?$_Tree@V?$_Tset_traits@PAVISDKInMeetingServiceMgrEvent@@U?$less@PAVISDKInMeetingServiceMgrEvent@@@std@@V?$allocator@PAVISDKInMeetingServiceMgrEvent@@@3@$0A@@std@@@std@@QAE?AV?$_Tree_const_iterator@V?$_Tree_val@U?$_Tree_simple_types@PAVISDKInMeetingServiceMgrEvent@@@std@@@std@@@2@XZ 0042ca60 f i sdk_util.obj
 0001:0002bad0       ?clear@?$_Tree@V?$_Tset_traits@PAVIMeetingParticipantsCtrlEvent@ZOOMSDK@@U?$less@PAVIMeetingParticipantsCtrlEvent@ZOOMSDK@@@std@@V?$allocator@PAVIMeetingParticipantsCtrlEvent@ZOOMSDK@@@4@$0A@@std@@@std@@QAEXXZ 0042cad0 f i sdk_util.obj
 0001:0002bad0       ?clear@?$_Tree@V?$_Tset_traits@PAVIClosedCaptionControllerEvent@ZOOMSDK@@U?$less@PAVIClosedCaptionControllerEvent@ZOOMSDK@@@std@@V?$allocator@PAVIClosedCaptionControllerEvent@ZOOMSDK@@@4@$0A@@std@@@std@@QAEXXZ 0042cad0 f i sdk_util.obj
 0001:0002bad0       ?clear@?$_Tree@V?$_Tset_traits@PAVIPreMeetingServiceEvent@ZOOMSDK@@U?$less@PAVIPreMeetingServiceEvent@ZOOMSDK@@@std@@V?$allocator@PAVIPreMeetingServiceEvent@ZOOMSDK@@@4@$0A@@std@@@std@@QAEXXZ 0042cad0 f i sdk_util.obj
 0001:0002bad0       ?clear@?$_Tree@V?$_Tset_traits@PAVIMeetingServiceEvent@ZOOMSDK@@U?$less@PAVIMeetingServiceEvent@ZOOMSDK@@@std@@V?$allocator@PAVIMeetingServiceEvent@ZOOMSDK@@@4@$0A@@std@@@std@@QAEXXZ 0042cad0 f i sdk_util.obj
 0001:0002bad0       ?clear@?$_Tree@V?$_Tset_traits@PAVISDKInMeetingServiceMgrEvent@@U?$less@PAVISDKInMeetingServiceMgrEvent@@@std@@V?$allocator@PAVISDKInMeetingServiceMgrEvent@@@3@$0A@@std@@@std@@QAEXXZ 0042cad0 f i sdk_util.obj
 0001:0002bad0       ?clear@?$_Tree@V?$_Tset_traits@PAVIAuthServiceEvent@ZOOMSDK@@U?$less@PAVIAuthServiceEvent@ZOOMSDK@@@std@@V?$allocator@PAVIAuthServiceEvent@ZOOMSDK@@@4@$0A@@std@@@std@@QAEXXZ 0042cad0 f i sdk_util.obj
 0001:0002bad0       ?clear@?$_Tree@V?$_Tset_traits@PAVIMeetingVideoCtrlEvent@ZOOMSDK@@U?$less@PAVIMeetingVideoCtrlEvent@ZOOMSDK@@@std@@V?$allocator@PAVIMeetingVideoCtrlEvent@ZOOMSDK@@@4@$0A@@std@@@std@@QAEXXZ 0042cad0 f i sdk_util.obj
 0001:0002bad0       ?clear@?$_Tree@V?$_Tset_traits@PAVIMeetingChatCtrlEvent@ZOOMSDK@@U?$less@PAVIMeetingChatCtrlEvent@ZOOMSDK@@@std@@V?$allocator@PAVIMeetingChatCtrlEvent@ZOOMSDK@@@4@$0A@@std@@@std@@QAEXXZ 0042cad0 f i sdk_util.obj
 0001:0002bb60       ?deallocate@?$_Default_allocator_traits@V?$allocator@U?$_Tree_node@PAVISDKInMeetingServiceMgrEvent@@PAX@std@@@std@@@std@@SAXAAV?$allocator@U?$_Tree_node@PAVISDKInMeetingServiceMgrEvent@@PAX@std@@@2@QAU?$_Tree_node@PAVISDKInMeetingServiceMgrEvent@@PAX@2@I@Z 0042cb60 f i sdk_util.obj
 0001:0002bb60       ?deallocate@?$_Default_allocator_traits@V?$allocator@U?$_Tree_node@PAVIMeetingVideoCtrlEvent@ZOOMSDK@@PAX@std@@@std@@@std@@SAXAAV?$allocator@U?$_Tree_node@PAVIMeetingVideoCtrlEvent@ZOOMSDK@@PAX@std@@@2@QAU?$_Tree_node@PAVIMeetingVideoCtrlEvent@ZOOMSDK@@PAX@2@I@Z 0042cb60 f i sdk_util.obj
 0001:0002bb60       ?deallocate@?$_Default_allocator_traits@V?$allocator@U?$_Tree_node@PAVIMeetingServiceEvent@ZOOMSDK@@PAX@std@@@std@@@std@@SAXAAV?$allocator@U?$_Tree_node@PAVIMeetingServiceEvent@ZOOMSDK@@PAX@std@@@2@QAU?$_Tree_node@PAVIMeetingServiceEvent@ZOOMSDK@@PAX@2@I@Z 0042cb60 f i sdk_util.obj
 0001:0002bb60       ?deallocate@?$_Default_allocator_traits@V?$allocator@U?$_Tree_node@PAVIAuthServiceEvent@ZOOMSDK@@PAX@std@@@std@@@std@@SAXAAV?$allocator@U?$_Tree_node@PAVIAuthServiceEvent@ZOOMSDK@@PAX@std@@@2@QAU?$_Tree_node@PAVIAuthServiceEvent@ZOOMSDK@@PAX@2@I@Z 0042cb60 f i sdk_util.obj
 0001:0002bb60       ?deallocate@?$_Default_allocator_traits@V?$allocator@U?$_Tree_node@PAVIPreMeetingServiceEvent@ZOOMSDK@@PAX@std@@@std@@@std@@SAXAAV?$allocator@U?$_Tree_node@PAVIPreMeetingServiceEvent@ZOOMSDK@@PAX@std@@@2@QAU?$_Tree_node@PAVIPreMeetingServiceEvent@ZOOMSDK@@PAX@2@I@Z 0042cb60 f i sdk_util.obj
 0001:0002bb60       ?deallocate@?$_Default_allocator_traits@V?$allocator@U?$_Tree_node@PAVIMeetingParticipantsCtrlEvent@ZOOMSDK@@PAX@std@@@std@@@std@@SAXAAV?$allocator@U?$_Tree_node@PAVIMeetingParticipantsCtrlEvent@ZOOMSDK@@PAX@std@@@2@QAU?$_Tree_node@PAVIMeetingParticipantsCtrlEvent@ZOOMSDK@@PAX@2@I@Z 0042cb60 f i sdk_util.obj
 0001:0002bb60       ?deallocate@?$_Default_allocator_traits@V?$allocator@U?$_Tree_node@PAVIClosedCaptionControllerEvent@ZOOMSDK@@PAX@std@@@std@@@std@@SAXAAV?$allocator@U?$_Tree_node@PAVIClosedCaptionControllerEvent@ZOOMSDK@@PAX@std@@@2@QAU?$_Tree_node@PAVIClosedCaptionControllerEvent@ZOOMSDK@@PAX@2@I@Z 0042cb60 f i sdk_util.obj
 0001:0002bb60       ?deallocate@?$_Default_allocator_traits@V?$allocator@U?$_Tree_node@PAVIMeetingChatCtrlEvent@ZOOMSDK@@PAX@std@@@std@@@std@@SAXAAV?$allocator@U?$_Tree_node@PAVIMeetingChatCtrlEvent@ZOOMSDK@@PAX@std@@@2@QAU?$_Tree_node@PAVIMeetingChatCtrlEvent@ZOOMSDK@@PAX@2@I@Z 0042cb60 f i sdk_util.obj
 0001:0002bb80       ?deallocate@?$allocator@U?$_Tree_node@PAVIMeetingChatCtrlEvent@ZOOMSDK@@PAX@std@@@std@@QAEXQAU?$_Tree_node@PAVIMeetingChatCtrlEvent@ZOOMSDK@@PAX@2@I@Z 0042cb80 f i sdk_util.obj
 0001:0002bb80       ?deallocate@?$allocator@U?$_Tree_node@PAVIClosedCaptionControllerEvent@ZOOMSDK@@PAX@std@@@std@@QAEXQAU?$_Tree_node@PAVIClosedCaptionControllerEvent@ZOOMSDK@@PAX@2@I@Z 0042cb80 f i sdk_util.obj
 0001:0002bb80       ?deallocate@?$allocator@U?$_Tree_node@PAVIMeetingServiceEvent@ZOOMSDK@@PAX@std@@@std@@QAEXQAU?$_Tree_node@PAVIMeetingServiceEvent@ZOOMSDK@@PAX@2@I@Z 0042cb80 f i sdk_util.obj
 0001:0002bb80       ?deallocate@?$allocator@U?$_Tree_node@PAVIMeetingParticipantsCtrlEvent@ZOOMSDK@@PAX@std@@@std@@QAEXQAU?$_Tree_node@PAVIMeetingParticipantsCtrlEvent@ZOOMSDK@@PAX@2@I@Z 0042cb80 f i sdk_util.obj
 0001:0002bb80       ?deallocate@?$allocator@U?$_Tree_node@PAVISDKInMeetingServiceMgrEvent@@PAX@std@@@std@@QAEXQAU?$_Tree_node@PAVISDKInMeetingServiceMgrEvent@@PAX@2@I@Z 0042cb80 f i sdk_util.obj
 0001:0002bb80       ?deallocate@?$allocator@U?$_Tree_node@PAVIPreMeetingServiceEvent@ZOOMSDK@@PAX@std@@@std@@QAEXQAU?$_Tree_node@PAVIPreMeetingServiceEvent@ZOOMSDK@@PAX@2@I@Z 0042cb80 f i sdk_util.obj
 0001:0002bb80       ?deallocate@?$allocator@U?$_Tree_node@PAVIMeetingVideoCtrlEvent@ZOOMSDK@@PAX@std@@@std@@QAEXQAU?$_Tree_node@PAVIMeetingVideoCtrlEvent@ZOOMSDK@@PAX@2@I@Z 0042cb80 f i sdk_util.obj
 0001:0002bb80       ?deallocate@?$allocator@U?$_Tree_node@PAVIAuthServiceEvent@ZOOMSDK@@PAX@std@@@std@@QAEXQAU?$_Tree_node@PAVIAuthServiceEvent@ZOOMSDK@@PAX@2@I@Z 0042cb80 f i sdk_util.obj
 0001:0002bba0       ?end@?$_Tree@V?$_Tset_traits@PAVISDKInMeetingServiceMgrEvent@@U?$less@PAVISDKInMeetingServiceMgrEvent@@@std@@V?$allocator@PAVISDKInMeetingServiceMgrEvent@@@3@$0A@@std@@@std@@QAE?AV?$_Tree_const_iterator@V?$_Tree_val@U?$_Tree_simple_types@PAVISDKInMeetingServiceMgrEvent@@@std@@@std@@@2@XZ 0042cba0 f i sdk_util.obj
 0001:0002bba0       ?end@?$_Tree@V?$_Tset_traits@PAVIMeetingChatCtrlEvent@ZOOMSDK@@U?$less@PAVIMeetingChatCtrlEvent@ZOOMSDK@@@std@@V?$allocator@PAVIMeetingChatCtrlEvent@ZOOMSDK@@@4@$0A@@std@@@std@@QAE?AV?$_Tree_const_iterator@V?$_Tree_val@U?$_Tree_simple_types@PAVIMeetingChatCtrlEvent@ZOOMSDK@@@std@@@std@@@2@XZ 0042cba0 f i sdk_util.obj
 0001:0002bba0       ?end@?$_Tree@V?$_Tset_traits@PAVIMeetingServiceEvent@ZOOMSDK@@U?$less@PAVIMeetingServiceEvent@ZOOMSDK@@@std@@V?$allocator@PAVIMeetingServiceEvent@ZOOMSDK@@@4@$0A@@std@@@std@@QAE?AV?$_Tree_const_iterator@V?$_Tree_val@U?$_Tree_simple_types@PAVIMeetingServiceEvent@ZOOMSDK@@@std@@@std@@@2@XZ 0042cba0 f i sdk_util.obj
 0001:0002bba0       ?end@?$_Tree@V?$_Tset_traits@PAVIMeetingParticipantsCtrlEvent@ZOOMSDK@@U?$less@PAVIMeetingParticipantsCtrlEvent@ZOOMSDK@@@std@@V?$allocator@PAVIMeetingParticipantsCtrlEvent@ZOOMSDK@@@4@$0A@@std@@@std@@QAE?AV?$_Tree_const_iterator@V?$_Tree_val@U?$_Tree_simple_types@PAVIMeetingParticipantsCtrlEvent@ZOOMSDK@@@std@@@std@@@2@XZ 0042cba0 f i sdk_util.obj
 0001:0002bba0       ?end@?$_Tree@V?$_Tset_traits@PAVIClosedCaptionControllerEvent@ZOOMSDK@@U?$less@PAVIClosedCaptionControllerEvent@ZOOMSDK@@@std@@V?$allocator@PAVIClosedCaptionControllerEvent@ZOOMSDK@@@4@$0A@@std@@@std@@QAE?AV?$_Tree_const_iterator@V?$_Tree_val@U?$_Tree_simple_types@PAVIClosedCaptionControllerEvent@ZOOMSDK@@@std@@@std@@@2@XZ 0042cba0 f i sdk_util.obj
 0001:0002bba0       ?end@?$_Tree@V?$_Tset_traits@PAVIMeetingVideoCtrlEvent@ZOOMSDK@@U?$less@PAVIMeetingVideoCtrlEvent@ZOOMSDK@@@std@@V?$allocator@PAVIMeetingVideoCtrlEvent@ZOOMSDK@@@4@$0A@@std@@@std@@QAE?AV?$_Tree_const_iterator@V?$_Tree_val@U?$_Tree_simple_types@PAVIMeetingVideoCtrlEvent@ZOOMSDK@@@std@@@std@@@2@XZ 0042cba0 f i sdk_util.obj
 0001:0002bba0       ?end@?$_Tree@V?$_Tset_traits@PAVIAuthServiceEvent@ZOOMSDK@@U?$less@PAVIAuthServiceEvent@ZOOMSDK@@@std@@V?$allocator@PAVIAuthServiceEvent@ZOOMSDK@@@4@$0A@@std@@@std@@QAE?AV?$_Tree_const_iterator@V?$_Tree_val@U?$_Tree_simple_types@PAVIAuthServiceEvent@ZOOMSDK@@@std@@@std@@@2@XZ 0042cba0 f i sdk_util.obj
 0001:0002bba0       ?end@?$_Tree@V?$_Tset_traits@PAVIPreMeetingServiceEvent@ZOOMSDK@@U?$less@PAVIPreMeetingServiceEvent@ZOOMSDK@@@std@@V?$allocator@PAVIPreMeetingServiceEvent@ZOOMSDK@@@4@$0A@@std@@@std@@QAE?AV?$_Tree_const_iterator@V?$_Tree_val@U?$_Tree_simple_types@PAVIPreMeetingServiceEvent@ZOOMSDK@@@std@@@std@@@2@XZ 0042cba0 f i sdk_util.obj
 0001:0002bc10       ?equal_range@?$_Tree@V?$_Tset_traits@PAVIMeetingChatCtrlEvent@ZOOMSDK@@U?$less@PAVIMeetingChatCtrlEvent@ZOOMSDK@@@std@@V?$allocator@PAVIMeetingChatCtrlEvent@ZOOMSDK@@@4@$0A@@std@@@std@@QAE?AU?$pair@V?$_Tree_const_iterator@V?$_Tree_val@U?$_Tree_simple_types@PAVIMeetingChatCtrlEvent@ZOOMSDK@@@std@@@std@@@std@@V12@@2@ABQAVIMeetingChatCtrlEvent@ZOOMSDK@@@Z 0042cc10 f i sdk_util.obj
 0001:0002bc10       ?equal_range@?$_Tree@V?$_Tset_traits@PAVISDKInMeetingServiceMgrEvent@@U?$less@PAVISDKInMeetingServiceMgrEvent@@@std@@V?$allocator@PAVISDKInMeetingServiceMgrEvent@@@3@$0A@@std@@@std@@QAE?AU?$pair@V?$_Tree_const_iterator@V?$_Tree_val@U?$_Tree_simple_types@PAVISDKInMeetingServiceMgrEvent@@@std@@@std@@@std@@V12@@2@ABQAVISDKInMeetingServiceMgrEvent@@@Z 0042cc10 f i sdk_util.obj
 0001:0002bc10       ?equal_range@?$_Tree@V?$_Tset_traits@PAVIMeetingServiceEvent@ZOOMSDK@@U?$less@PAVIMeetingServiceEvent@ZOOMSDK@@@std@@V?$allocator@PAVIMeetingServiceEvent@ZOOMSDK@@@4@$0A@@std@@@std@@QAE?AU?$pair@V?$_Tree_const_iterator@V?$_Tree_val@U?$_Tree_simple_types@PAVIMeetingServiceEvent@ZOOMSDK@@@std@@@std@@@std@@V12@@2@ABQAVIMeetingServiceEvent@ZOOMSDK@@@Z 0042cc10 f i sdk_util.obj
 0001:0002bc10       ?equal_range@?$_Tree@V?$_Tset_traits@PAVIAuthServiceEvent@ZOOMSDK@@U?$less@PAVIAuthServiceEvent@ZOOMSDK@@@std@@V?$allocator@PAVIAuthServiceEvent@ZOOMSDK@@@4@$0A@@std@@@std@@QAE?AU?$pair@V?$_Tree_const_iterator@V?$_Tree_val@U?$_Tree_simple_types@PAVIAuthServiceEvent@ZOOMSDK@@@std@@@std@@@std@@V12@@2@ABQAVIAuthServiceEvent@ZOOMSDK@@@Z 0042cc10 f i sdk_util.obj
 0001:0002bc10       ?equal_range@?$_Tree@V?$_Tset_traits@PAVIPreMeetingServiceEvent@ZOOMSDK@@U?$less@PAVIPreMeetingServiceEvent@ZOOMSDK@@@std@@V?$allocator@PAVIPreMeetingServiceEvent@ZOOMSDK@@@4@$0A@@std@@@std@@QAE?AU?$pair@V?$_Tree_const_iterator@V?$_Tree_val@U?$_Tree_simple_types@PAVIPreMeetingServiceEvent@ZOOMSDK@@@std@@@std@@@std@@V12@@2@ABQAVIPreMeetingServiceEvent@ZOOMSDK@@@Z 0042cc10 f i sdk_util.obj
 0001:0002bc10       ?equal_range@?$_Tree@V?$_Tset_traits@PAVIMeetingParticipantsCtrlEvent@ZOOMSDK@@U?$less@PAVIMeetingParticipantsCtrlEvent@ZOOMSDK@@@std@@V?$allocator@PAVIMeetingParticipantsCtrlEvent@ZOOMSDK@@@4@$0A@@std@@@std@@QAE?AU?$pair@V?$_Tree_const_iterator@V?$_Tree_val@U?$_Tree_simple_types@PAVIMeetingParticipantsCtrlEvent@ZOOMSDK@@@std@@@std@@@std@@V12@@2@ABQAVIMeetingParticipantsCtrlEvent@ZOOMSDK@@@Z 0042cc10 f i sdk_util.obj
 0001:0002bc10       ?equal_range@?$_Tree@V?$_Tset_traits@PAVIClosedCaptionControllerEvent@ZOOMSDK@@U?$less@PAVIClosedCaptionControllerEvent@ZOOMSDK@@@std@@V?$allocator@PAVIClosedCaptionControllerEvent@ZOOMSDK@@@4@$0A@@std@@@std@@QAE?AU?$pair@V?$_Tree_const_iterator@V?$_Tree_val@U?$_Tree_simple_types@PAVIClosedCaptionControllerEvent@ZOOMSDK@@@std@@@std@@@std@@V12@@2@ABQAVIClosedCaptionControllerEvent@ZOOMSDK@@@Z 0042cc10 f i sdk_util.obj
 0001:0002bc30       ?erase@?$_Tree@V?$_Tset_traits@PAVIMeetingParticipantsCtrlEvent@ZOOMSDK@@U?$less@PAVIMeetingParticipantsCtrlEvent@ZOOMSDK@@@std@@V?$allocator@PAVIMeetingParticipantsCtrlEvent@ZOOMSDK@@@4@$0A@@std@@@std@@QAE?AV?$_Tree_const_iterator@V?$_Tree_val@U?$_Tree_simple_types@PAVIMeetingParticipantsCtrlEvent@ZOOMSDK@@@std@@@std@@@2@V32@0@Z 0042cc30 f i sdk_util.obj
 0001:0002bc30       ?erase@?$_Tree@V?$_Tset_traits@PAVIClosedCaptionControllerEvent@ZOOMSDK@@U?$less@PAVIClosedCaptionControllerEvent@ZOOMSDK@@@std@@V?$allocator@PAVIClosedCaptionControllerEvent@ZOOMSDK@@@4@$0A@@std@@@std@@QAE?AV?$_Tree_const_iterator@V?$_Tree_val@U?$_Tree_simple_types@PAVIClosedCaptionControllerEvent@ZOOMSDK@@@std@@@std@@@2@V32@0@Z 0042cc30 f i sdk_util.obj
 0001:0002bc30       ?erase@?$_Tree@V?$_Tset_traits@PAVIMeetingChatCtrlEvent@ZOOMSDK@@U?$less@PAVIMeetingChatCtrlEvent@ZOOMSDK@@@std@@V?$allocator@PAVIMeetingChatCtrlEvent@ZOOMSDK@@@4@$0A@@std@@@std@@QAE?AV?$_Tree_const_iterator@V?$_Tree_val@U?$_Tree_simple_types@PAVIMeetingChatCtrlEvent@ZOOMSDK@@@std@@@std@@@2@V32@0@Z 0042cc30 f i sdk_util.obj
 0001:0002bc30       ?erase@?$_Tree@V?$_Tset_traits@PAVIPreMeetingServiceEvent@ZOOMSDK@@U?$less@PAVIPreMeetingServiceEvent@ZOOMSDK@@@std@@V?$allocator@PAVIPreMeetingServiceEvent@ZOOMSDK@@@4@$0A@@std@@@std@@QAE?AV?$_Tree_const_iterator@V?$_Tree_val@U?$_Tree_simple_types@PAVIPreMeetingServiceEvent@ZOOMSDK@@@std@@@std@@@2@V32@0@Z 0042cc30 f i sdk_util.obj
 0001:0002bc30       ?erase@?$_Tree@V?$_Tset_traits@PAVIMeetingServiceEvent@ZOOMSDK@@U?$less@PAVIMeetingServiceEvent@ZOOMSDK@@@std@@V?$allocator@PAVIMeetingServiceEvent@ZOOMSDK@@@4@$0A@@std@@@std@@QAE?AV?$_Tree_const_iterator@V?$_Tree_val@U?$_Tree_simple_types@PAVIMeetingServiceEvent@ZOOMSDK@@@std@@@std@@@2@V32@0@Z 0042cc30 f i sdk_util.obj
 0001:0002bc30       ?erase@?$_Tree@V?$_Tset_traits@PAVISDKInMeetingServiceMgrEvent@@U?$less@PAVISDKInMeetingServiceMgrEvent@@@std@@V?$allocator@PAVISDKInMeetingServiceMgrEvent@@@3@$0A@@std@@@std@@QAE?AV?$_Tree_const_iterator@V?$_Tree_val@U?$_Tree_simple_types@PAVISDKInMeetingServiceMgrEvent@@@std@@@std@@@2@V32@0@Z 0042cc30 f i sdk_util.obj
 0001:0002bc30       ?erase@?$_Tree@V?$_Tset_traits@PAVIAuthServiceEvent@ZOOMSDK@@U?$less@PAVIAuthServiceEvent@ZOOMSDK@@@std@@V?$allocator@PAVIAuthServiceEvent@ZOOMSDK@@@4@$0A@@std@@@std@@QAE?AV?$_Tree_const_iterator@V?$_Tree_val@U?$_Tree_simple_types@PAVIAuthServiceEvent@ZOOMSDK@@@std@@@std@@@2@V32@0@Z 0042cc30 f i sdk_util.obj
 0001:0002bcf0       ?erase@?$_Tree@V?$_Tset_traits@PAVIMeetingServiceEvent@ZOOMSDK@@U?$less@PAVIMeetingServiceEvent@ZOOMSDK@@@std@@V?$allocator@PAVIMeetingServiceEvent@ZOOMSDK@@@4@$0A@@std@@@std@@QAE?AV?$_Tree_const_iterator@V?$_Tree_val@U?$_Tree_simple_types@PAVIMeetingServiceEvent@ZOOMSDK@@@std@@@std@@@2@V32@@Z 0042ccf0 f i sdk_util.obj
 0001:0002bcf0       ?erase@?$_Tree@V?$_Tset_traits@PAVIClosedCaptionControllerEvent@ZOOMSDK@@U?$less@PAVIClosedCaptionControllerEvent@ZOOMSDK@@@std@@V?$allocator@PAVIClosedCaptionControllerEvent@ZOOMSDK@@@4@$0A@@std@@@std@@QAE?AV?$_Tree_const_iterator@V?$_Tree_val@U?$_Tree_simple_types@PAVIClosedCaptionControllerEvent@ZOOMSDK@@@std@@@std@@@2@V32@@Z 0042ccf0 f i sdk_util.obj
 0001:0002bcf0       ?erase@?$_Tree@V?$_Tset_traits@PAVIAuthServiceEvent@ZOOMSDK@@U?$less@PAVIAuthServiceEvent@ZOOMSDK@@@std@@V?$allocator@PAVIAuthServiceEvent@ZOOMSDK@@@4@$0A@@std@@@std@@QAE?AV?$_Tree_const_iterator@V?$_Tree_val@U?$_Tree_simple_types@PAVIAuthServiceEvent@ZOOMSDK@@@std@@@std@@@2@V32@@Z 0042ccf0 f i sdk_util.obj
 0001:0002bcf0       ?erase@?$_Tree@V?$_Tset_traits@PAVIMeetingParticipantsCtrlEvent@ZOOMSDK@@U?$less@PAVIMeetingParticipantsCtrlEvent@ZOOMSDK@@@std@@V?$allocator@PAVIMeetingParticipantsCtrlEvent@ZOOMSDK@@@4@$0A@@std@@@std@@QAE?AV?$_Tree_const_iterator@V?$_Tree_val@U?$_Tree_simple_types@PAVIMeetingParticipantsCtrlEvent@ZOOMSDK@@@std@@@std@@@2@V32@@Z 0042ccf0 f i sdk_util.obj
 0001:0002bcf0       ?erase@?$_Tree@V?$_Tset_traits@PAVISDKInMeetingServiceMgrEvent@@U?$less@PAVISDKInMeetingServiceMgrEvent@@@std@@V?$allocator@PAVISDKInMeetingServiceMgrEvent@@@3@$0A@@std@@@std@@QAE?AV?$_Tree_const_iterator@V?$_Tree_val@U?$_Tree_simple_types@PAVISDKInMeetingServiceMgrEvent@@@std@@@std@@@2@V32@@Z 0042ccf0 f i sdk_util.obj
 0001:0002bcf0       ?erase@?$_Tree@V?$_Tset_traits@PAVIMeetingChatCtrlEvent@ZOOMSDK@@U?$less@PAVIMeetingChatCtrlEvent@ZOOMSDK@@@std@@V?$allocator@PAVIMeetingChatCtrlEvent@ZOOMSDK@@@4@$0A@@std@@@std@@QAE?AV?$_Tree_const_iterator@V?$_Tree_val@U?$_Tree_simple_types@PAVIMeetingChatCtrlEvent@ZOOMSDK@@@std@@@std@@@2@V32@@Z 0042ccf0 f i sdk_util.obj
 0001:0002bcf0       ?erase@?$_Tree@V?$_Tset_traits@PAVIPreMeetingServiceEvent@ZOOMSDK@@U?$less@PAVIPreMeetingServiceEvent@ZOOMSDK@@@std@@V?$allocator@PAVIPreMeetingServiceEvent@ZOOMSDK@@@4@$0A@@std@@@std@@QAE?AV?$_Tree_const_iterator@V?$_Tree_val@U?$_Tree_simple_types@PAVIPreMeetingServiceEvent@ZOOMSDK@@@std@@@std@@@2@V32@@Z 0042ccf0 f i sdk_util.obj
 0001:0002bd70       ?erase@?$_Tree@V?$_Tset_traits@PAVIPreMeetingServiceEvent@ZOOMSDK@@U?$less@PAVIPreMeetingServiceEvent@ZOOMSDK@@@std@@V?$allocator@PAVIPreMeetingServiceEvent@ZOOMSDK@@@4@$0A@@std@@@std@@QAEIABQAVIPreMeetingServiceEvent@ZOOMSDK@@@Z 0042cd70 f i sdk_util.obj
 0001:0002bd70       ?erase@?$_Tree@V?$_Tset_traits@PAVIClosedCaptionControllerEvent@ZOOMSDK@@U?$less@PAVIClosedCaptionControllerEvent@ZOOMSDK@@@std@@V?$allocator@PAVIClosedCaptionControllerEvent@ZOOMSDK@@@4@$0A@@std@@@std@@QAEIABQAVIClosedCaptionControllerEvent@ZOOMSDK@@@Z 0042cd70 f i sdk_util.obj
 0001:0002bd70       ?erase@?$_Tree@V?$_Tset_traits@PAVIMeetingChatCtrlEvent@ZOOMSDK@@U?$less@PAVIMeetingChatCtrlEvent@ZOOMSDK@@@std@@V?$allocator@PAVIMeetingChatCtrlEvent@ZOOMSDK@@@4@$0A@@std@@@std@@QAEIABQAVIMeetingChatCtrlEvent@ZOOMSDK@@@Z 0042cd70 f i sdk_util.obj
 0001:0002bd70       ?erase@?$_Tree@V?$_Tset_traits@PAVIMeetingServiceEvent@ZOOMSDK@@U?$less@PAVIMeetingServiceEvent@ZOOMSDK@@@std@@V?$allocator@PAVIMeetingServiceEvent@ZOOMSDK@@@4@$0A@@std@@@std@@QAEIABQAVIMeetingServiceEvent@ZOOMSDK@@@Z 0042cd70 f i sdk_util.obj
 0001:0002bd70       ?erase@?$_Tree@V?$_Tset_traits@PAVISDKInMeetingServiceMgrEvent@@U?$less@PAVISDKInMeetingServiceMgrEvent@@@std@@V?$allocator@PAVISDKInMeetingServiceMgrEvent@@@3@$0A@@std@@@std@@QAEIABQAVISDKInMeetingServiceMgrEvent@@@Z 0042cd70 f i sdk_util.obj
 0001:0002bd70       ?erase@?$_Tree@V?$_Tset_traits@PAVIMeetingParticipantsCtrlEvent@ZOOMSDK@@U?$less@PAVIMeetingParticipantsCtrlEvent@ZOOMSDK@@@std@@V?$allocator@PAVIMeetingParticipantsCtrlEvent@ZOOMSDK@@@4@$0A@@std@@@std@@QAEIABQAVIMeetingParticipantsCtrlEvent@ZOOMSDK@@@Z 0042cd70 f i sdk_util.obj
 0001:0002bd70       ?erase@?$_Tree@V?$_Tset_traits@PAVIAuthServiceEvent@ZOOMSDK@@U?$less@PAVIAuthServiceEvent@ZOOMSDK@@@std@@V?$allocator@PAVIAuthServiceEvent@ZOOMSDK@@@4@$0A@@std@@@std@@QAEIABQAVIAuthServiceEvent@ZOOMSDK@@@Z 0042cd70 f i sdk_util.obj
 0001:0002bdc0       ?max_size@?$_Default_allocator_traits@V?$allocator@U?$_Tree_node@PAVIClosedCaptionControllerEvent@ZOOMSDK@@PAX@std@@@std@@@std@@SAIABV?$allocator@U?$_Tree_node@PAVIClosedCaptionControllerEvent@ZOOMSDK@@PAX@std@@@2@@Z 0042cdc0 f i sdk_util.obj
 0001:0002bdc0       ?max_size@?$_Default_allocator_traits@V?$allocator@U?$_Tree_node@PAVIMeetingParticipantsCtrlEvent@ZOOMSDK@@PAX@std@@@std@@@std@@SAIABV?$allocator@U?$_Tree_node@PAVIMeetingParticipantsCtrlEvent@ZOOMSDK@@PAX@std@@@2@@Z 0042cdc0 f i sdk_util.obj
 0001:0002bdc0       ?max_size@?$_Default_allocator_traits@V?$allocator@U?$_Tree_node@PAVIAuthServiceEvent@ZOOMSDK@@PAX@std@@@std@@@std@@SAIABV?$allocator@U?$_Tree_node@PAVIAuthServiceEvent@ZOOMSDK@@PAX@std@@@2@@Z 0042cdc0 f i sdk_util.obj
 0001:0002bdc0       ?max_size@?$_Default_allocator_traits@V?$allocator@U?$_Tree_node@PAVIMeetingChatCtrlEvent@ZOOMSDK@@PAX@std@@@std@@@std@@SAIABV?$allocator@U?$_Tree_node@PAVIMeetingChatCtrlEvent@ZOOMSDK@@PAX@std@@@2@@Z 0042cdc0 f i sdk_util.obj
 0001:0002bdc0       ?max_size@?$_Default_allocator_traits@V?$allocator@U?$_Tree_node@PAVIMeetingServiceEvent@ZOOMSDK@@PAX@std@@@std@@@std@@SAIABV?$allocator@U?$_Tree_node@PAVIMeetingServiceEvent@ZOOMSDK@@PAX@std@@@2@@Z 0042cdc0 f i sdk_util.obj
 0001:0002bdc0       ?max_size@?$_Default_allocator_traits@V?$allocator@U?$_Tree_node@PAVIPreMeetingServiceEvent@ZOOMSDK@@PAX@std@@@std@@@std@@SAIABV?$allocator@U?$_Tree_node@PAVIPreMeetingServiceEvent@ZOOMSDK@@PAX@std@@@2@@Z 0042cdc0 f i sdk_util.obj
 0001:0002bdc0       ?max_size@?$_Default_allocator_traits@V?$allocator@U?$_Tree_node@PAVIMeetingVideoCtrlEvent@ZOOMSDK@@PAX@std@@@std@@@std@@SAIABV?$allocator@U?$_Tree_node@PAVIMeetingVideoCtrlEvent@ZOOMSDK@@PAX@std@@@2@@Z 0042cdc0 f i sdk_util.obj
 0001:0002bdc0       ?max_size@?$_Default_allocator_traits@V?$allocator@U?$_Tree_node@PAVISDKInMeetingServiceMgrEvent@@PAX@std@@@std@@@std@@SAIABV?$allocator@U?$_Tree_node@PAVISDKInMeetingServiceMgrEvent@@PAX@std@@@2@@Z 0042cdc0 f i sdk_util.obj
 0001:0002bdd0       ?max_size@?$_Tree@V?$_Tset_traits@PAVIMeetingVideoCtrlEvent@ZOOMSDK@@U?$less@PAVIMeetingVideoCtrlEvent@ZOOMSDK@@@std@@V?$allocator@PAVIMeetingVideoCtrlEvent@ZOOMSDK@@@4@$0A@@std@@@std@@QBEIXZ 0042cdd0 f i sdk_util.obj
 0001:0002bdd0       ?max_size@?$_Tree@V?$_Tset_traits@PAVIAuthServiceEvent@ZOOMSDK@@U?$less@PAVIAuthServiceEvent@ZOOMSDK@@@std@@V?$allocator@PAVIAuthServiceEvent@ZOOMSDK@@@4@$0A@@std@@@std@@QBEIXZ 0042cdd0 f i sdk_util.obj
 0001:0002bdd0       ?max_size@?$_Tree@V?$_Tset_traits@PAVIPreMeetingServiceEvent@ZOOMSDK@@U?$less@PAVIPreMeetingServiceEvent@ZOOMSDK@@@std@@V?$allocator@PAVIPreMeetingServiceEvent@ZOOMSDK@@@4@$0A@@std@@@std@@QBEIXZ 0042cdd0 f i sdk_util.obj
 0001:0002bdd0       ?max_size@?$_Tree@V?$_Tset_traits@PAVIMeetingServiceEvent@ZOOMSDK@@U?$less@PAVIMeetingServiceEvent@ZOOMSDK@@@std@@V?$allocator@PAVIMeetingServiceEvent@ZOOMSDK@@@4@$0A@@std@@@std@@QBEIXZ 0042cdd0 f i sdk_util.obj
 0001:0002bdd0       ?max_size@?$_Tree@V?$_Tset_traits@PAVIMeetingParticipantsCtrlEvent@ZOOMSDK@@U?$less@PAVIMeetingParticipantsCtrlEvent@ZOOMSDK@@@std@@V?$allocator@PAVIMeetingParticipantsCtrlEvent@ZOOMSDK@@@4@$0A@@std@@@std@@QBEIXZ 0042cdd0 f i sdk_util.obj
 0001:0002bdd0       ?max_size@?$_Tree@V?$_Tset_traits@PAVIClosedCaptionControllerEvent@ZOOMSDK@@U?$less@PAVIClosedCaptionControllerEvent@ZOOMSDK@@@std@@V?$allocator@PAVIClosedCaptionControllerEvent@ZOOMSDK@@@4@$0A@@std@@@std@@QBEIXZ 0042cdd0 f i sdk_util.obj
 0001:0002bdd0       ?max_size@?$_Tree@V?$_Tset_traits@PAVISDKInMeetingServiceMgrEvent@@U?$less@PAVISDKInMeetingServiceMgrEvent@@@std@@V?$allocator@PAVISDKInMeetingServiceMgrEvent@@@3@$0A@@std@@@std@@QBEIXZ 0042cdd0 f i sdk_util.obj
 0001:0002bdd0       ?max_size@?$_Tree@V?$_Tset_traits@PAVIMeetingChatCtrlEvent@ZOOMSDK@@U?$less@PAVIMeetingChatCtrlEvent@ZOOMSDK@@@std@@V?$allocator@PAVIMeetingChatCtrlEvent@ZOOMSDK@@@4@$0A@@std@@@std@@QBEIXZ 0042cdd0 f i sdk_util.obj
 0001:0002bdf0       ?onActiveSpeakerVideoUserChanged@SDKInterfaceWrap@@UAEXI@Z 0042cdf0 f i sdk_util.obj
 0001:0002bfd0       ?onActiveVideoUserChanged@SDKInterfaceWrap@@UAEXI@Z 0042cfd0 f i sdk_util.obj
 0001:0002c1b0       ?onAssignedToSendCC@SDKInterfaceWrap@@UAEX_N@Z 0042d1b0 f i sdk_util.obj
 0001:0002c2c0       ?onAudioBtnClicked@SDKInterfaceWrap@@UAEXUtagAudioBtnClickedCallbackInfo@ZOOMSDK@@@Z 0042d2c0 f i sdk_util.obj
 0001:0002c3e0       ?onAudioMenuBtnClicked@SDKInterfaceWrap@@UAEXXZ 0042d3e0 f i sdk_util.obj
 0001:0002c4f0       ?onAuthenticationReturn@SDKInterfaceWrap@@UAEXW4AuthResult@ZOOMSDK@@@Z 0042d4f0 f i sdk_util.obj
 0001:0002c5f0       ?onCCBTNClicked@SDKInterfaceWrap@@UAEXXZ 0042d5f0 f i sdk_util.obj
 0001:0002c700       ?onChatMsgNotifcation@SDKInterfaceWrap@@UAEXPAVIChatMsgInfo@ZOOMSDK@@PB_W@Z 0042d700 f i sdk_util.obj
 0001:0002c810       ?onChatStautsChangedNotification@SDKInterfaceWrap@@UAEXPAUtagChatStatus@ZOOMSDK@@@Z 0042d810 f i sdk_util.obj
 0001:0002c920       ?onClosedCaptionMsgReceived@SDKInterfaceWrap@@UAEXPB_W_J@Z 0042d920 f i sdk_util.obj
 0001:0002ca40       ?onCloudRecordingStatus@SDKInterfaceWrap@@UAEXW4RecordingStatus@ZOOMSDK@@@Z 0042da40 f i sdk_util.obj
 0001:0002cb50       ?onCoHostChangeNotification@SDKInterfaceWrap@@UAEXI_N@Z 0042db50 f i sdk_util.obj
 0001:0002cd40       ?onCustomLiveStreamMenuClicked@SDKInterfaceWrap@@UAEXXZ 0042dd40 f i sdk_util.obj
 0001:0002ce50       ?onCustomizedLocalRecordingSourceNotification@SDKInterfaceWrap@@UAEXPAVICustomizedLocalRecordingLayoutHelper@ZOOMSDK@@@Z 0042de50 f i sdk_util.obj
 0001:0002cf60       ?onDeleteMeeting@SDKInterfaceWrap@@UAEXW4PremeetingAPIResult@ZOOMSDK@@@Z 0042df60 f i sdk_util.obj
 0001:0002d060       ?onEndMeetingBtnClicked@SDKInterfaceWrap@@UAEXXZ 0042e060 f i sdk_util.obj
 0001:0002d170       ?onHostChangeNotification@SDKInterfaceWrap@@UAEXI@Z 0042e170 f i sdk_util.obj
 0001:0002d350       ?onHostRequestStartAudio@SDKInterfaceWrap@@UAEXPAVIRequestStartAudioHandler@ZOOMSDK@@@Z 0042e350 f i sdk_util.obj
 0001:0002d460       ?onHostRequestStartVideo@SDKInterfaceWrap@@UAEXPAVIRequestStartVideoHandler@ZOOMSDK@@@Z 0042e460 f i sdk_util.obj
 0001:0002d640       ?onInviteBtnClicked@SDKInterfaceWrap@@UAEXAA_N@Z 0042e640 f i sdk_util.obj
 0001:0002d750       ?onListMeeting@SDKInterfaceWrap@@UAEXW4PremeetingAPIResult@ZOOMSDK@@PAV?$IList@_K@3@@Z 0042e750 f i sdk_util.obj
 0001:0002d860       ?onLockShareStatus@SDKInterfaceWrap@@UAEX_N@Z 0042e860 f i sdk_util.obj
 0001:0002d970       ?onLoginRet@SDKInterfaceWrap@@UAEXW4LOGINSTATUS@ZOOMSDK@@PAVIAccountInfo@3@@Z 0042e970 f i sdk_util.obj
 0001:0002da80       ?onLogout@SDKInterfaceWrap@@UAEXXZ 0042ea80 f i sdk_util.obj
 0001:0002db80       ?onLowOrRaiseHandStatusChanged@SDKInterfaceWrap@@UAEX_NI@Z 0042eb80 f i sdk_util.obj
 0001:0002dd70       ?onMeetingParameterNotification@SDKInterfaceWrap@@UAEXPBUtagMeetingParameter@ZOOMSDK@@@Z 0042ed70 f i sdk_util.obj
 0001:0002df50       ?onMeetingSecureKeyNotification@SDKInterfaceWrap@@UAEXPBDHPAVIMeetingExternalSecureKeyHandler@ZOOMSDK@@@Z 0042ef50 f i sdk_util.obj
 0001:0002e140       ?onMeetingStatisticsWarningNotification@SDKInterfaceWrap@@UAEXW4StatisticsWarningType@ZOOMSDK@@@Z 0042f140 f i sdk_util.obj
 0001:0002e320       ?onMeetingStatusChanged@SDKInterfaceWrap@@UAEXW4MeetingStatus@ZOOMSDK@@H@Z 0042f320 f i sdk_util.obj
 0001:0002e500       ?onParticipantListBtnClicked@SDKInterfaceWrap@@UAEXXZ 0042f500 f i sdk_util.obj
 0001:0002e610       ?onRecordPriviligeChanged@SDKInterfaceWrap@@UAEX_N@Z 0042f610 f i sdk_util.obj
 0001:0002e720       ?onRecording2MP4Done@SDKInterfaceWrap@@UAEX_NHPB_W@Z 0042f720 f i sdk_util.obj
 0001:0002e840       ?onRecording2MP4Processing@SDKInterfaceWrap@@UAEXH@Z 0042f840 f i sdk_util.obj
 0001:0002e950       ?onRecordingStatus@SDKInterfaceWrap@@UAEXW4RecordingStatus@ZOOMSDK@@@Z 0042f950 f i sdk_util.obj
 0001:0002ea60       ?onRemoteControlStatus@SDKInterfaceWrap@@UAEXW4RemoteControlStatus@ZOOMSDK@@I@Z 0042fa60 f i sdk_util.obj
 0001:0002eb80       ?onScheduleOrEditMeeting@SDKInterfaceWrap@@UAEXW4PremeetingAPIResult@ZOOMSDK@@_K@Z 0042fb80 f i sdk_util.obj
 0001:0002ec90       ?onShareContentNotification@SDKInterfaceWrap@@UAEXAAUtagShareInfo@ZOOMSDK@@@Z 0042fc90 f i sdk_util.obj
 0001:0002eda0       ?onSharingStatus@SDKInterfaceWrap@@UAEXW4SharingStatus@ZOOMSDK@@I@Z 0042fda0 f i sdk_util.obj
 0001:0002eec0       ?onSpotlightVideoChangeNotification@SDKInterfaceWrap@@UAEX_NI@Z 0042fec0 f i sdk_util.obj
 0001:0002f0b0       ?onStartShareBtnClicked@SDKInterfaceWrap@@UAEXXZ 004300b0 f i sdk_util.obj
 0001:0002f1c0       ?onUserActiveAudioChange@SDKInterfaceWrap@@UAEXPAV?$IList@I@ZOOMSDK@@@Z 004301c0 f i sdk_util.obj
 0001:0002f2d0       ?onUserAudioStatusChange@SDKInterfaceWrap@@UAEXPAV?$IList@PAVIUserAudioStatus@ZOOMSDK@@@ZOOMSDK@@PB_W@Z 004302d0 f i sdk_util.obj
 0001:0002f3f0       ?onUserJoin@SDKInterfaceWrap@@UAEXPAV?$IList@I@ZOOMSDK@@PB_W@Z 004303f0 f i sdk_util.obj
 0001:0002f5e0       ?onUserLeft@SDKInterfaceWrap@@UAEXPAV?$IList@I@ZOOMSDK@@PB_W@Z 004305e0 f i sdk_util.obj
 0001:0002f7d0       ?onUserNameChanged@SDKInterfaceWrap@@UAEXIPB_W@Z 004307d0 f i sdk_util.obj
 0001:0002f9c0       ?onUserVideoStatusChange@SDKInterfaceWrap@@UAEXIW4VideoStatus@ZOOMSDK@@@Z 004309c0 f i sdk_util.obj
 0001:0002fbb0       ?onZoomAuthIdentityExpired@SDKInterfaceWrap@@UAEXXZ 00430bb0 f i sdk_util.obj
 0001:0002fcb0       ?onZoomIdentityExpired@SDKInterfaceWrap@@UAEXXZ 00430cb0 f i sdk_util.obj
 0001:0002fdb0       ?onZoomInviteDialogFailed@SDKInterfaceWrap@@UAEXXZ 00430db0 f i sdk_util.obj
 0001:0002fec0       ?size@?$_Tree@V?$_Tset_traits@PAVIClosedCaptionControllerEvent@ZOOMSDK@@U?$less@PAVIClosedCaptionControllerEvent@ZOOMSDK@@@std@@V?$allocator@PAVIClosedCaptionControllerEvent@ZOOMSDK@@@4@$0A@@std@@@std@@QBEIXZ 00430ec0 f i sdk_util.obj
 0001:0002fec0       ?size@?$_Tree@V?$_Tset_traits@PAVISDKInMeetingServiceMgrEvent@@U?$less@PAVISDKInMeetingServiceMgrEvent@@@std@@V?$allocator@PAVISDKInMeetingServiceMgrEvent@@@3@$0A@@std@@@std@@QBEIXZ 00430ec0 f i sdk_util.obj
 0001:0002fec0       ?size@?$_Tree@V?$_Tset_traits@PAVIMeetingChatCtrlEvent@ZOOMSDK@@U?$less@PAVIMeetingChatCtrlEvent@ZOOMSDK@@@std@@V?$allocator@PAVIMeetingChatCtrlEvent@ZOOMSDK@@@4@$0A@@std@@@std@@QBEIXZ 00430ec0 f i sdk_util.obj
 0001:0002fec0       ?size@?$_Tree@V?$_Tset_traits@PAVIMeetingParticipantsCtrlEvent@ZOOMSDK@@U?$less@PAVIMeetingParticipantsCtrlEvent@ZOOMSDK@@@std@@V?$allocator@PAVIMeetingParticipantsCtrlEvent@ZOOMSDK@@@4@$0A@@std@@@std@@QBEIXZ 00430ec0 f i sdk_util.obj
 0001:0002fec0       ?size@?$_Tree@V?$_Tmap_traits@IPAVIUserInfo@ZOOMSDK@@U?$less@I@std@@V?$allocator@U?$pair@$$CBIPAVIUserInfo@ZOOMSDK@@@std@@@4@$0A@@std@@@std@@QBEIXZ 00430ec0 f i user_manager.obj
 0001:0002fec0       ?size@?$_Tree@V?$_Tset_traits@PAVIPreMeetingServiceEvent@ZOOMSDK@@U?$less@PAVIPreMeetingServiceEvent@ZOOMSDK@@@std@@V?$allocator@PAVIPreMeetingServiceEvent@ZOOMSDK@@@4@$0A@@std@@@std@@QBEIXZ 00430ec0 f i sdk_util.obj
 0001:0002fec0       ?size@?$_Tree@V?$_Tset_traits@PAVIAuthServiceEvent@ZOOMSDK@@U?$less@PAVIAuthServiceEvent@ZOOMSDK@@@std@@V?$allocator@PAVIAuthServiceEvent@ZOOMSDK@@@4@$0A@@std@@@std@@QBEIXZ 00430ec0 f i sdk_util.obj
 0001:0002fec0       ?size@?$_Tree@V?$_Tset_traits@PAVIMeetingServiceEvent@ZOOMSDK@@U?$less@PAVIMeetingServiceEvent@ZOOMSDK@@@std@@V?$allocator@PAVIMeetingServiceEvent@ZOOMSDK@@@4@$0A@@std@@@std@@QBEIXZ 00430ec0 f i sdk_util.obj
 0001:0002fec0       ?size@?$_Tree@V?$_Tset_traits@PAVIMeetingVideoCtrlEvent@ZOOMSDK@@U?$less@PAVIMeetingVideoCtrlEvent@ZOOMSDK@@@std@@V?$allocator@PAVIMeetingVideoCtrlEvent@ZOOMSDK@@@4@$0A@@std@@@std@@QBEIXZ 00430ec0 f i sdk_util.obj
 0001:0002fee0       ??0CSDKAudioSettingsWorkFlow@@QAE@XZ 00430ee0 f   SETTINGS_audio_workflow.obj
 0001:0002ff50       ??0IAudioSettingContextEvent@ZOOMSDK@@QAE@XZ 00430f50 f i SETTINGS_audio_workflow.obj
 0001:0002ff70       ??1CSDKAudioSettingsWorkFlow@@UAE@XZ 00430f70 f   SETTINGS_audio_workflow.obj
 0001:0002ffc0       ??_ECSDKAudioSettingsWorkFlow@@UAEPAXI@Z 00430fc0 f i SETTINGS_audio_workflow.obj
 0001:0002ffc0       ??_GCSDKAudioSettingsWorkFlow@@UAEPAXI@Z 00430fc0 f i SETTINGS_audio_workflow.obj
 0001:0002fff0       ?EnableSpotlightSelf@CSDKVideoSettingsWorkFlow@@QAE?AW4SDKError@ZOOMSDK@@_N@Z 00430ff0 f   SETTINGS_video_workflow.obj
 0001:0002fff0       ?EnableAlwaysMuteMicWhenJoinVoip@CSDKAudioSettingsWorkFlow@@QAE?AW4SDKError@ZOOMSDK@@_N@Z 00430ff0 f   SETTINGS_audio_workflow.obj
 0001:00030040       ?EnableHDVideo@CSDKVideoSettingsWorkFlow@@QAE?AW4SDKError@ZOOMSDK@@_N@Z 00431040 f   SETTINGS_video_workflow.obj
 0001:00030040       ?EnableAutoAdjustMic@CSDKAudioSettingsWorkFlow@@QAE?AW4SDKError@ZOOMSDK@@_N@Z 00431040 f   SETTINGS_audio_workflow.obj
 0001:00030090       ?EnableFaceBeautyEffect@CSDKVideoSettingsWorkFlow@@QAE?AW4SDKError@ZOOMSDK@@_N@Z 00431090 f   SETTINGS_video_workflow.obj
 0001:00030090       ?EnableAutoJoinAudio@CSDKAudioSettingsWorkFlow@@QAE?AW4SDKError@ZOOMSDK@@_N@Z 00431090 f   SETTINGS_audio_workflow.obj
 0001:000300e0       ?EnableEchoCancellation@CSDKAudioSettingsWorkFlow@@QAE?AW4SDKError@ZOOMSDK@@_N@Z 004310e0 f   SETTINGS_audio_workflow.obj
 0001:00030130       ?EnableHoldSpaceKeyToSpeak@CSDKAudioSettingsWorkFlow@@QAE?AW4SDKError@ZOOMSDK@@_N@Z 00431130 f   SETTINGS_audio_workflow.obj
 0001:00030130       ?EnableAlwaysUse16v9@CSDKVideoSettingsWorkFlow@@QAE?AW4SDKError@ZOOMSDK@@_N@Z 00431130 f   SETTINGS_video_workflow.obj
 0001:00030180       ?EnableMicOriginalInput@CSDKAudioSettingsWorkFlow@@QAE?AW4SDKError@ZOOMSDK@@_N@Z 00431180 f   SETTINGS_audio_workflow.obj
 0001:00030180       ?EnableAutoTurnOffVideoWhenJoinMeeting@CSDKVideoSettingsWorkFlow@@QAE?AW4SDKError@ZOOMSDK@@_N@Z 00431180 f   SETTINGS_video_workflow.obj
 0001:000301d0       ?EnableStereoAudio@CSDKAudioSettingsWorkFlow@@QAE?AW4SDKError@ZOOMSDK@@_N@Z 004311d0 f   SETTINGS_audio_workflow.obj
 0001:000301d0       ?EnableAlwaysShowNameOnVideo@CSDKVideoSettingsWorkFlow@@QAE?AW4SDKError@ZOOMSDK@@_N@Z 004311d0 f   SETTINGS_video_workflow.obj
 0001:00030220       ?EnableHardwareEncode@CSDKVideoSettingsWorkFlow@@QAE?AW4SDKError@ZOOMSDK@@_N@Z 00431220 f   SETTINGS_video_workflow.obj
 0001:00030220       ?EnableSuppressAudioNotify@CSDKAudioSettingsWorkFlow@@QAE?AW4SDKError@ZOOMSDK@@_N@Z 00431220 f   SETTINGS_audio_workflow.obj
 0001:00030270       ?GetMicList@CSDKAudioSettingsWorkFlow@@QAEPAV?$IList@PAVIMicInfo@ZOOMSDK@@@ZOOMSDK@@XZ 00431270 f   SETTINGS_audio_workflow.obj
 0001:00030270       ?GetCameraList@CSDKVideoSettingsWorkFlow@@QAEPAV?$IList@PAVICameraInfo@ZOOMSDK@@@ZOOMSDK@@XZ 00431270 f   SETTINGS_video_workflow.obj
 0001:000302b0       ?GetMicVol@CSDKAudioSettingsWorkFlow@@QAE?AW4SDKError@ZOOMSDK@@AAM@Z 004312b0 f   SETTINGS_audio_workflow.obj
 0001:00030300       ?GetSpeakerList@CSDKAudioSettingsWorkFlow@@QAEPAV?$IList@PAVISpeakerInfo@ZOOMSDK@@@ZOOMSDK@@XZ 00431300 f   SETTINGS_audio_workflow.obj
 0001:00030340       ?GetSpeakerVol@CSDKAudioSettingsWorkFlow@@QAE?AW4SDKError@ZOOMSDK@@AAM@Z 00431340 f   SETTINGS_audio_workflow.obj
 0001:00030390       ?Init@CSDKAudioSettingsWorkFlow@@QAE?AW4SDKError@ZOOMSDK@@XZ 00431390 f   SETTINGS_audio_workflow.obj
 0001:00030480       ?IsAlwaysMuteMicWhenJoinVoipEnabled@CSDKAudioSettingsWorkFlow@@QAE_NXZ 00431480 f   SETTINGS_audio_workflow.obj
 0001:00030480       ?IsSpotlightSelfEnabled@CSDKVideoSettingsWorkFlow@@QAE_NXZ 00431480 f   SETTINGS_video_workflow.obj
 0001:000304c0       ?IsHDVideoEnabled@CSDKVideoSettingsWorkFlow@@QAE_NXZ 004314c0 f   SETTINGS_video_workflow.obj
 0001:000304c0       ?IsAutoAdjustMicEnabled@CSDKAudioSettingsWorkFlow@@QAE_NXZ 004314c0 f   SETTINGS_audio_workflow.obj
 0001:00030500       ?IsAutoJoinAudioEnabled@CSDKAudioSettingsWorkFlow@@QAE_NXZ 00431500 f   SETTINGS_audio_workflow.obj
 0001:00030500       ?IsFaceBeautyEffectEnabled@CSDKVideoSettingsWorkFlow@@QAE_NXZ 00431500 f   SETTINGS_video_workflow.obj
